 VIP Linker 10.  Exe time: Thu Jul  8 00:16:44 2021
  Build time: 22:46:57 Jul  7 2021
  Module 'C:\Users\konno\OneDrive\Рабочий стол\енг\левое\Подписи\Документы\Visual Prolog Projects\vozved_v_stepen\exe\vozved_v_stepen.exe' Map. Tue Nov 28 20:19:18 2023

Frame 001000   Size 074750.  Name=<   .text>, 	Chars=60000020h. [CER]
Frame 076000   Size 07E7A0.  Name=<  .rdata>, 	Chars=40000040h. [IR]
Frame 0F5000   Size 000550.  Name=<  VIPini>, 	Chars=40000040h. [IR]
Frame 0F6000   Size 000010.  Name=<  VIPsym>, 	Chars=40000040h. [IR]
Frame 0F7000   Size 001190.  Name=<  VIPtpd>, 	Chars=40000040h. [IR]
Frame 0F9000   Size 000F30.  Name=<  VIPtpl>, 	Chars=40000040h. [IR]
Frame 0FA000   Size 004860.  Name=<   .data>, 	Chars=C0000040h. [IRW]
Frame 0FF000   Size 000070.  Name=< .gcroot>, 	Chars=C0000040h. [IRW]
Frame 100000   Size 000530.  Name=<  PRODBG>, 	Chars=40000040h. [IR]

	--- S e g m e n t s : ---

Frame 001000   Size 074750.  Name=<   .text>, 	Chars=60000020h. [CER]
001000:000000 0745A0   .text::CODE::<no group> F=4
   001000   Module 'obj\random.27B461AB.obj'
   0015F0   Module 'obj\comSupport.C599FD18.obj'
   0098E0   Module 'obj\guid.EF75E950.obj'
   009C10   Module 'obj\setM_redBlack.16EF8DC5.obj'
   00A320   Module 'obj\iso8601Parser.F0F6BC83.obj'
   00A9D0   Module 'obj\criticalSectionSupport.6958A988.obj'
   00AD60   Module 'obj\binary.248EF86D.obj'
   00E820   Module 'obj\multiThread.32507C62.obj'
   010920   Module 'obj\arrayM_inline.F665267A.obj'
   011D10   Module 'obj\namedValue.6D52B2A6.obj'
   013860   Module 'obj\std.2DE0EC97.obj'
   014230   Module 'obj\memory_api.EF10D306.obj'
   014B60   Module 'obj\runTime_api.B1A642EC.obj'
   015240   Module 'obj\string_api.2E13EA53.obj'
   015500   Module 'obj\registry.917E8C91.obj'
   016290   Module 'obj\string8.355639C6.obj'
   016EF0   Module 'obj\redBlackTree.401E21A0.obj'
   017480   Module 'obj\redBlackTreeRep.E6A269FA.obj'
   01AD10   Module 'obj\mapMSupport.8CD6C048.obj'
   01B490   Module 'obj\mapSupport.C7248B7B.obj'
   01BBB0   Module 'obj\collectionSupport.A039CC0D.obj'
   01BE10   Module 'obj\modifiableSupport.5D48FFF1.obj'
   01C0C0   Module 'obj\segmented_binary.C16992E7.obj'
   01CB10   Module 'obj\segmented_utf16.76E668A2.obj'
   01D500   Module 'obj\inputSupport_mode.ADC075EF.obj'
   01ECA0   Module 'obj\systemInformation_api.809129C1.obj'
   01F1A0   Module 'obj\commandLineParser.67E728BA.obj'
   020AC0   Module 'obj\varM.B882E173.obj'
   0226D0   Module 'obj\console.E8EB4F3C.obj'
   024D30   Module 'obj\core.5D9B9483.obj'
   027220   Module 'obj\event.D92D3A63.obj'
   02B790   Module 'obj\presenter.E6E77556.obj'
   02CDA0   Module 'obj\exception.B6F320E8.obj'
   02FDE0   Module 'obj\programControl.2B27F1CB.obj'
   02FE20   Module 'obj\reflection.ACE59E5C.obj'
   033720   Module 'obj\stream.8B55AAA7.obj'
   0347E0   Module 'obj\segmented.E9C86B20.obj'
   034CC0   Module 'obj\inputStreamSupport.7AF62102.obj'
   0350A0   Module 'obj\console_api.1787DB80.obj'
   0352C0   Module 'obj\exe_api.026B8342.obj'
   035A60   Module 'obj\fileSystem_api.C5B8AF1A.obj'
   037CA0   Module 'obj\memory.568C55F8.obj'
   039A60   Module 'obj\multiThread_api.57E3A62D.obj'
   03AAA0   Module 'obj\time_api.32F5932A.obj'
   03C8C0   Module 'obj\locale_api.2E000328.obj'
   03CA70   Module 'obj\gui_api.9FE53D0D.obj'
   042460   Module 'obj\vpiDomains.E7102A6D.obj'
   042850   Module 'obj\comDomains.234349D9.obj'
   042930   Module 'obj\registry_api.CF388C66.obj'
   043CC0   Module 'obj\windowsAPI.FC171F8F.obj'
   043F60   Module 'obj\winErrors.9B153E38.obj'
   043F80   Module 'obj\exe.D80FC844.obj'
   0442E0   Module 'obj\mapM_redBlack.875A0474.obj'
   044CE0   Module 'obj\fileSystem.5B0F823E.obj'
   04C6E0   Module 'obj\string.19AABD3B.obj'
   052340   Module 'obj\Shell_api.E8D4E14B.obj'
   0528E0   Module 'obj\main.789E136F.obj'
   052AF0   Module 'obj\queueM_fact.744E8FC1.obj'
   0531F0   Module 'obj\exceptionHandling.2B4136FF.obj'
   05B220   Module 'obj\com_api.B45865D0.obj'
   05B3D0   Module 'obj\iStream_api.935D2F36.obj'
   05BA90   Module 'obj\safeArray_api.9604C1AC.obj'
   05C0E0   Module 'obj\boolean.DE5055E8.obj'
   05C1B0   Module 'obj\math.5D7D6037.obj'
   05D700   Module 'obj\weakReference.0A1AF11C.obj'
   05DA00   Module 'obj\list.A75CEA31.obj'
   065F90   Module 'obj\time.6AFD2988.obj'
   06D7D0   Module 'obj\uncollectable.CD38F31A.obj'
   06D970   Module 'obj\exceptionDump.2B9C9E40.obj'
   06ED80   Module 'obj\srwLock.8CC714FD.obj'
   06F230   Module 'obj\redBlackSet.DC1C3622.obj'
   071490   Module 'obj\collectionMsupport.3A44ED4E.obj'
   071740   Module 'obj\guid_api.488B7439.obj'
   0717D0   Module 'obj\outputStreamSupport.6F229CFB.obj'
   072E00   Module 'obj\segmentedSupport.2BAFE67D.obj'
   074F10   Module 'obj\iterator.60C55021.obj'
   0753C0   Module 'obj\string8_api.53D65538.obj'
001000:0745A0 0001B0   .text$mn::CODE::<no group> F=4
   0755A0   Module '..\..\..\_intermediate\sourceVS\vipInit\Win32\Release\VIPMain.obj'
   075600   Module '..\..\..\_intermediate\sourceVS\vipInit\Win32\Release\VIPDll.obj'

Frame 076000   Size 07E7A0.  Name=<  .rdata>, 	Chars=40000040h. [IR]
076000:000000 0286D0   .rdata::.rdata::.rdata F=4
   076000   Module 'obj\random.27B461AB.obj'
   0761C0   Module 'obj\comSupport.C599FD18.obj'
   077790   Module 'obj\guid.EF75E950.obj'
   077900   Module 'obj\standardInterfaces.E508E9F3.obj'
   0779E0   Module 'obj\iEnumXXXX.DED4A0C0.obj'
   077AC0   Module 'obj\setM_redBlack.16EF8DC5.obj'
   077B80   Module 'obj\iso8601Parser.F0F6BC83.obj'
   077CF0   Module 'obj\criticalSectionSupport.6958A988.obj'
   077DD0   Module 'obj\binary.248EF86D.obj'
   078300   Module 'obj\multiThread.32507C62.obj'
   078A60   Module 'obj\arrayM_inline.F665267A.obj'
   078E20   Module 'obj\namedValue.6D52B2A6.obj'
   079230   Module 'obj\std.2DE0EC97.obj'
   0792C0   Module 'obj\memory_api.EF10D306.obj'
   079B40   Module 'obj\runTime_api.B1A642EC.obj'
   079F90   Module 'obj\string_api.2E13EA53.obj'
   07A1B0   Module 'obj\registry.917E8C91.obj'
   07A440   Module 'obj\string8.355639C6.obj'
   07A530   Module 'obj\redBlackTree.401E21A0.obj'
   07A620   Module 'obj\redBlackTreeRep.E6A269FA.obj'
   07A970   Module 'obj\mapMSupport.8CD6C048.obj'
   07AA30   Module 'obj\mapSupport.C7248B7B.obj'
   07ABC0   Module 'obj\collectionSupport.A039CC0D.obj'
   07ACA0   Module 'obj\modifiableSupport.5D48FFF1.obj'
   07AD80   Module 'obj\segmented_binary.C16992E7.obj'
   07AFE0   Module 'obj\segmented_utf16.76E668A2.obj'
   07B200   Module 'obj\inputSupport_mode.ADC075EF.obj'
   07B410   Module 'obj\systemInformation_api.809129C1.obj'
   07BB30   Module 'obj\commandLineParser.67E728BA.obj'
   07C0E0   Module 'obj\varM.B882E173.obj'
   07C260   Module 'obj\console.E8EB4F3C.obj'
   07CBA0   Module 'obj\core.5D9B9483.obj'
   07ED00   Module 'obj\event.D92D3A63.obj'
   07F050   Module 'obj\presenter.E6E77556.obj'
   07F410   Module 'obj\exception.B6F320E8.obj'
   07FBA0   Module 'obj\programControl.2B27F1CB.obj'
   07FC80   Module 'obj\typeLibrary.6EC19AA0.obj'
   07FD30   Module 'obj\reflection.ACE59E5C.obj'
   080A60   Module 'obj\stream.8B55AAA7.obj'
   0811F0   Module 'obj\segmented.E9C86B20.obj'
   0812D0   Module 'obj\inputStreamSupport.7AF62102.obj'
   081510   Module 'obj\console_api.1787DB80.obj'
   081980   Module 'obj\exe_api.026B8342.obj'
   081BD0   Module 'obj\fileSystem_api.C5B8AF1A.obj'
   082D30   Module 'obj\memory.568C55F8.obj'
   082EF0   Module 'obj\multiThread_api.57E3A62D.obj'
   083B90   Module 'obj\time_api.32F5932A.obj'
   084500   Module 'obj\locale_api.2E000328.obj'
   0847B0   Module 'obj\gui_api.9FE53D0D.obj'
   089530   Module 'obj\vpiDomains.E7102A6D.obj'
   08B260   Module 'obj\basicInterfaces.63D9152F.obj'
   08B330   Module 'obj\comDomains.234349D9.obj'
   08C250   Module 'obj\registry_api.CF388C66.obj'
   08C6A0   Module 'obj\windowsAPI.FC171F8F.obj'
   08C970   Module 'obj\winErrors.9B153E38.obj'
   08CA20   Module 'obj\exe.D80FC844.obj'
   08CAD0   Module 'obj\collection.A520841C.obj'
   08CB70   Module 'obj\mapM_redBlack.875A0474.obj'
   08CC70   Module 'obj\fileSystem.5B0F823E.obj'
   08E290   Module 'obj\string.19AABD3B.obj'
   08ED70   Module 'obj\Shell_api.E8D4E14B.obj'
   08FA70   Module 'obj\hash_api.96B8CAEE.obj'
   08FB20   Module 'obj\main.789E136F.obj'
   090860   Module 'obj\queueM_fact.744E8FC1.obj'
   090930   Module 'obj\exceptionHandling.2B4136FF.obj'
   09B1E0   Module 'obj\com_api.B45865D0.obj'
   09B590   Module 'obj\iStream_api.935D2F36.obj'
   09B650   Module 'obj\safeArray_api.9604C1AC.obj'
   09BB80   Module 'obj\boolean.DE5055E8.obj'
   09BC10   Module 'obj\math.5D7D6037.obj'
   09BF60   Module 'obj\weakReference.0A1AF11C.obj'
   09C010   Module 'obj\list.A75CEA31.obj'
   09C580   Module 'obj\time.6AFD2988.obj'
   09D060   Module 'obj\uncollectable.CD38F31A.obj'
   09D110   Module 'obj\exceptionDump.2B9C9E40.obj'
   09D540   Module 'obj\srwLock.8CC714FD.obj'
   09D660   Module 'obj\redBlackSet.DC1C3622.obj'
   09D8C0   Module 'obj\collectionMsupport.3A44ED4E.obj'
   09D9A0   Module 'obj\guid_api.488B7439.obj'
   09DA60   Module 'obj\outputStreamSupport.6F229CFB.obj'
   09DF60   Module 'obj\segmentedSupport.2BAFE67D.obj'
   09E3F0   Module 'obj\iterator.60C55021.obj'
   09E4B0   Module 'obj\string8_api.53D65538.obj'
076000:0286D0 00B590   VIPInter::VIPInter::.rdata F=4
   09E6D0   Module 'obj\random.27B461AB.obj'
   09E790   Module 'obj\comSupport.C599FD18.obj'
   09E8B0   Module 'obj\setM_redBlack.16EF8DC5.obj'
   09EBC0   Module 'obj\multiThread.32507C62.obj'
   09EE30   Module 'obj\commandLineParser.67E728BA.obj'
   09F840   Module 'obj\varM.B882E173.obj'
   09F930   Module 'obj\console.E8EB4F3C.obj'
   0A00E0   Module 'obj\core.5D9B9483.obj'
   0A0780   Module 'obj\exception.B6F320E8.obj'
   0A0E50   Module 'obj\mapM_redBlack.875A0474.obj'
   0A1950   Module 'obj\fileSystem.5B0F823E.obj'
   0A1B70   Module 'obj\Shell_api.E8D4E14B.obj'
   0A68F0   Module 'obj\main.789E136F.obj'
   0A9A00   Module 'obj\iStream_api.935D2F36.obj'
   0A9AE0   Module 'obj\math.5D7D6037.obj'
   0A9B80   Module 'obj\time.6AFD2988.obj'
076000:033C60 000090   VIPBrow::VIPBrow::.rdata F=4
   0A9C60   Module 'obj\binary.248EF86D.obj'
   0A9C70   Module 'obj\string8.355639C6.obj'
   0A9C80   Module 'obj\memory.568C55F8.obj'
   0A9CB0   Module 'obj\gui_api.9FE53D0D.obj'
076000:033CF0 003CB0   VIPTypeL::VIPTypeL::.rdata F=4
   0A9CF0   Module 'obj\random.27B461AB.obj'
   0A9D50   Module 'obj\comSupport.C599FD18.obj'
   0A9E20   Module 'obj\guid.EF75E950.obj'
   0A9E30   Module 'obj\setM_redBlack.16EF8DC5.obj'
   0A9E50   Module 'obj\iso8601Parser.F0F6BC83.obj'
   0A9E60   Module 'obj\criticalSectionSupport.6958A988.obj'
   0A9E70   Module 'obj\binary.248EF86D.obj'
   0A9E90   Module 'obj\multiThread.32507C62.obj'
   0A9F20   Module 'obj\arrayM_inline.F665267A.obj'
   0A9F50   Module 'obj\memory_api.EF10D306.obj'
   0A9F90   Module 'obj\string_api.2E13EA53.obj'
   0A9FB0   Module 'obj\registry.917E8C91.obj'
   0A9FD0   Module 'obj\redBlackTreeRep.E6A269FA.obj'
   0A9FF0   Module 'obj\mapMSupport.8CD6C048.obj'
   0AA010   Module 'obj\mapSupport.C7248B7B.obj'
   0AA030   Module 'obj\collectionSupport.A039CC0D.obj'
   0AA050   Module 'obj\modifiableSupport.5D48FFF1.obj'
   0AA070   Module 'obj\segmented_binary.C16992E7.obj'
   0AA090   Module 'obj\segmented_utf16.76E668A2.obj'
   0AA0B0   Module 'obj\inputSupport_mode.ADC075EF.obj'
   0AA0C0   Module 'obj\systemInformation_api.809129C1.obj'
   0AA110   Module 'obj\commandLineParser.67E728BA.obj'
   0AA1E0   Module 'obj\varM.B882E173.obj'
   0AA250   Module 'obj\console.E8EB4F3C.obj'
   0AA2C0   Module 'obj\core.5D9B9483.obj'
   0AA980   Module 'obj\event.D92D3A63.obj'
   0AAB00   Module 'obj\presenter.E6E77556.obj'
   0AABF0   Module 'obj\exception.B6F320E8.obj'
   0AAD30   Module 'obj\programControl.2B27F1CB.obj'
   0AAD50   Module 'obj\reflection.ACE59E5C.obj'
   0AAE90   Module 'obj\stream.8B55AAA7.obj'
   0AAED0   Module 'obj\segmented.E9C86B20.obj'
   0AAEF0   Module 'obj\inputStreamSupport.7AF62102.obj'
   0AAF00   Module 'obj\console_api.1787DB80.obj'
   0AAF70   Module 'obj\exe_api.026B8342.obj'
   0AAFA0   Module 'obj\fileSystem_api.C5B8AF1A.obj'
   0AB0C0   Module 'obj\memory.568C55F8.obj'
   0AB2C0   Module 'obj\multiThread_api.57E3A62D.obj'
   0AB360   Module 'obj\time_api.32F5932A.obj'
   0AB400   Module 'obj\locale_api.2E000328.obj'
   0AB450   Module 'obj\gui_api.9FE53D0D.obj'
   0AC290   Module 'obj\vpiDomains.E7102A6D.obj'
   0AC420   Module 'obj\comDomains.234349D9.obj'
   0AC8D0   Module 'obj\registry_api.CF388C66.obj'
   0AC8E0   Module 'obj\windowsAPI.FC171F8F.obj'
   0AC910   Module 'obj\exe.D80FC844.obj'
   0AC930   Module 'obj\mapM_redBlack.875A0474.obj'
   0AC950   Module 'obj\fileSystem.5B0F823E.obj'
   0ACAC0   Module 'obj\string.19AABD3B.obj'
   0ACB20   Module 'obj\Shell_api.E8D4E14B.obj'
   0ACFF0   Module 'obj\main.789E136F.obj'
   0AD670   Module 'obj\queueM_fact.744E8FC1.obj'
   0AD690   Module 'obj\exceptionHandling.2B4136FF.obj'
   0AD6C0   Module 'obj\com_api.B45865D0.obj'
   0AD6E0   Module 'obj\iStream_api.935D2F36.obj'
   0AD710   Module 'obj\safeArray_api.9604C1AC.obj'
   0AD720   Module 'obj\math.5D7D6037.obj'
   0AD770   Module 'obj\weakReference.0A1AF11C.obj'
   0AD790   Module 'obj\list.A75CEA31.obj'
   0AD7A0   Module 'obj\time.6AFD2988.obj'
   0AD890   Module 'obj\uncollectable.CD38F31A.obj'
   0AD8A0   Module 'obj\exceptionDump.2B9C9E40.obj'
   0AD8C0   Module 'obj\srwLock.8CC714FD.obj'
   0AD8D0   Module 'obj\collectionMsupport.3A44ED4E.obj'
   0AD8E0   Module 'obj\outputStreamSupport.6F229CFB.obj'
   0AD930   Module 'obj\segmentedSupport.2BAFE67D.obj'
   0AD970   Module 'obj\iterator.60C55021.obj'
076000:0379A0 02F8D0   VIPClass::VIPClass::.rdata F=4
   0AD9A0   Module 'obj\random.27B461AB.obj'
   0ADD70   Module 'obj\comSupport.C599FD18.obj'
   0AF0C0   Module 'obj\guid.EF75E950.obj'
   0AF190   Module 'obj\setM_redBlack.16EF8DC5.obj'
   0AF880   Module 'obj\iso8601Parser.F0F6BC83.obj'
   0AFA10   Module 'obj\criticalSectionSupport.6958A988.obj'
   0AFBE0   Module 'obj\binary.248EF86D.obj'
   0B0AA0   Module 'obj\multiThread.32507C62.obj'
   0B1E00   Module 'obj\arrayM_inline.F665267A.obj'
   0B29C0   Module 'obj\namedValue.6D52B2A6.obj'
   0B2A40   Module 'obj\std.2DE0EC97.obj'
   0B2B30   Module 'obj\memory_api.EF10D306.obj'
   0B2F60   Module 'obj\runTime_api.B1A642EC.obj'
   0B3000   Module 'obj\string_api.2E13EA53.obj'
   0B3180   Module 'obj\registry.917E8C91.obj'
   0B3490   Module 'obj\string8.355639C6.obj'
   0B3500   Module 'obj\redBlackTree.401E21A0.obj'
   0B3700   Module 'obj\redBlackTreeRep.E6A269FA.obj'
   0B3AE0   Module 'obj\mapMSupport.8CD6C048.obj'
   0B4170   Module 'obj\mapSupport.C7248B7B.obj'
   0B44F0   Module 'obj\collectionSupport.A039CC0D.obj'
   0B4760   Module 'obj\modifiableSupport.5D48FFF1.obj'
   0B49E0   Module 'obj\segmented_binary.C16992E7.obj'
   0B4B90   Module 'obj\segmented_utf16.76E668A2.obj'
   0B4D40   Module 'obj\inputSupport_mode.ADC075EF.obj'
   0B54F0   Module 'obj\systemInformation_api.809129C1.obj'
   0B5BA0   Module 'obj\commandLineParser.67E728BA.obj'
   0B6460   Module 'obj\varM.B882E173.obj'
   0B76F0   Module 'obj\console.E8EB4F3C.obj'
   0B86E0   Module 'obj\core.5D9B9483.obj'
   0BA3D0   Module 'obj\event.D92D3A63.obj'
   0BF530   Module 'obj\presenter.E6E77556.obj'
   0BFFC0   Module 'obj\exception.B6F320E8.obj'
   0C08E0   Module 'obj\programControl.2B27F1CB.obj'
   0C0A00   Module 'obj\reflection.ACE59E5C.obj'
   0C19A0   Module 'obj\stream.8B55AAA7.obj'
   0C2100   Module 'obj\segmented.E9C86B20.obj'
   0C23A0   Module 'obj\inputStreamSupport.7AF62102.obj'
   0C2600   Module 'obj\console_api.1787DB80.obj'
   0C2B00   Module 'obj\exe_api.026B8342.obj'
   0C2E10   Module 'obj\fileSystem_api.C5B8AF1A.obj'
   0C41B0   Module 'obj\memory.568C55F8.obj'
   0C4DF0   Module 'obj\multiThread_api.57E3A62D.obj'
   0C5420   Module 'obj\time_api.32F5932A.obj'
   0C5AC0   Module 'obj\locale_api.2E000328.obj'
   0C5D10   Module 'obj\gui_api.9FE53D0D.obj'
   0CDA10   Module 'obj\vpiDomains.E7102A6D.obj'
   0CF840   Module 'obj\comDomains.234349D9.obj'
   0D2460   Module 'obj\registry_api.CF388C66.obj'
   0D2630   Module 'obj\windowsAPI.FC171F8F.obj'
   0D2860   Module 'obj\winErrors.9B153E38.obj'
   0D28F0   Module 'obj\exe.D80FC844.obj'
   0D2A60   Module 'obj\mapM_redBlack.875A0474.obj'
   0D3490   Module 'obj\fileSystem.5B0F823E.obj'
   0D4FC0   Module 'obj\string.19AABD3B.obj'
   0D66D0   Module 'obj\Shell_api.E8D4E14B.obj'
   0D7090   Module 'obj\hash_api.96B8CAEE.obj'
   0D7130   Module 'obj\main.789E136F.obj'
   0D8290   Module 'obj\queueM_fact.744E8FC1.obj'
   0D8910   Module 'obj\exceptionHandling.2B4136FF.obj'
   0D8D40   Module 'obj\com_api.B45865D0.obj'
   0D8F80   Module 'obj\iStream_api.935D2F36.obj'
   0D9330   Module 'obj\safeArray_api.9604C1AC.obj'
   0D94C0   Module 'obj\boolean.DE5055E8.obj'
   0D9530   Module 'obj\math.5D7D6037.obj'
   0D9740   Module 'obj\weakReference.0A1AF11C.obj'
   0D9980   Module 'obj\list.A75CEA31.obj'
   0DA0C0   Module 'obj\time.6AFD2988.obj'
   0DAE90   Module 'obj\uncollectable.CD38F31A.obj'
   0DAFF0   Module 'obj\exceptionDump.2B9C9E40.obj'
   0DB130   Module 'obj\srwLock.8CC714FD.obj'
   0DB400   Module 'obj\redBlackSet.DC1C3622.obj'
   0DB710   Module 'obj\collectionMsupport.3A44ED4E.obj'
   0DBB70   Module 'obj\guid_api.488B7439.obj'
   0DBCA0   Module 'obj\outputStreamSupport.6F229CFB.obj'
   0DC840   Module 'obj\segmentedSupport.2BAFE67D.obj'
   0DCDF0   Module 'obj\iterator.60C55021.obj'
   0DD120   Module 'obj\string8_api.53D65538.obj'
076000:067270 017530   VIPConst::VIPConst::.rdata F=4
   0DD270   Module 'obj\comSupport.C599FD18.obj'
   0DDFB0   Module 'obj\guid.EF75E950.obj'
   0DE050   Module 'obj\binary.248EF86D.obj'
   0DE210   Module 'obj\multiThread.32507C62.obj'
   0DE290   Module 'obj\arrayM_inline.F665267A.obj'
   0DE2B0   Module 'obj\namedValue.6D52B2A6.obj'
   0DE340   Module 'obj\registry.917E8C91.obj'
   0DE4E0   Module 'obj\inputSupport_mode.ADC075EF.obj'
   0DE4F0   Module 'obj\exception.B6F320E8.obj'
   0E1950   Module 'obj\stream.8B55AAA7.obj'
   0E1C50   Module 'obj\fileSystem_api.C5B8AF1A.obj'
   0E1E00   Module 'obj\time_api.32F5932A.obj'
   0E1F50   Module 'obj\gui_api.9FE53D0D.obj'
   0E4130   Module 'obj\fileSystem.5B0F823E.obj'
   0E4320   Module 'obj\string.19AABD3B.obj'
   0E4520   Module 'obj\exceptionHandling.2B4136FF.obj'
   0F4210   Module 'obj\math.5D7D6037.obj'
   0F4570   Module 'obj\time.6AFD2988.obj'
   0F4730   Module 'obj\guid_api.488B7439.obj'

Frame 0F5000   Size 000550.  Name=<  VIPini>, 	Chars=40000040h. [IR]
0F5000:000000 000004   VIPini$A::VIPini$A::VIPini F=4
   0F5000   Module 'obj\main.789E136F.obj'
0F5000:000004 000540   VIPini$C::VIPini$C::VIPini F=4
   0F5004   Module 'obj\random.27B461AB.obj'
   0F500C   Module 'obj\comSupport.C599FD18.obj'
   0F5048   Module 'obj\guid.EF75E950.obj'
   0F504C   Module 'obj\standardInterfaces.E508E9F3.obj'
   0F504C   Module 'obj\iEnumXXXX.DED4A0C0.obj'
   0F504C   Module 'obj\setM_redBlack.16EF8DC5.obj'
   0F5058   Module 'obj\iso8601Parser.F0F6BC83.obj'
   0F505C   Module 'obj\criticalSectionSupport.6958A988.obj'
   0F5060   Module 'obj\binary.248EF86D.obj'
   0F5070   Module 'obj\multiThread.32507C62.obj'
   0F5098   Module 'obj\arrayM_inline.F665267A.obj'
   0F509C   Module 'obj\namedValue.6D52B2A6.obj'
   0F50A0   Module 'obj\std.2DE0EC97.obj'
   0F50A4   Module 'obj\memory_api.EF10D306.obj'
   0F50AC   Module 'obj\runTime_api.B1A642EC.obj'
   0F50B0   Module 'obj\string_api.2E13EA53.obj'
   0F50B8   Module 'obj\registry.917E8C91.obj'
   0F50C0   Module 'obj\string8.355639C6.obj'
   0F50C4   Module 'obj\redBlackTree.401E21A0.obj'
   0F50C8   Module 'obj\redBlackTreeRep.E6A269FA.obj'
   0F50CC   Module 'obj\mapMSupport.8CD6C048.obj'
   0F50D0   Module 'obj\mapSupport.C7248B7B.obj'
   0F50D4   Module 'obj\collectionSupport.A039CC0D.obj'
   0F50D8   Module 'obj\modifiableSupport.5D48FFF1.obj'
   0F50DC   Module 'obj\segmented_binary.C16992E7.obj'
   0F50E0   Module 'obj\segmented_utf16.76E668A2.obj'
   0F50E4   Module 'obj\inputSupport_mode.ADC075EF.obj'
   0F50E8   Module 'obj\systemInformation_api.809129C1.obj'
   0F50F0   Module 'obj\commandLineParser.67E728BA.obj'
   0F512C   Module 'obj\varM.B882E173.obj'
   0F514C   Module 'obj\console.E8EB4F3C.obj'
   0F5174   Module 'obj\core.5D9B9483.obj'
   0F5198   Module 'obj\event.D92D3A63.obj'
   0F51B8   Module 'obj\presenter.E6E77556.obj'
   0F51BC   Module 'obj\exception.B6F320E8.obj'
   0F51F0   Module 'obj\programControl.2B27F1CB.obj'
   0F51F4   Module 'obj\typeLibrary.6EC19AA0.obj'
   0F51F4   Module 'obj\reflection.ACE59E5C.obj'
   0F51FC   Module 'obj\stream.8B55AAA7.obj'
   0F5214   Module 'obj\segmented.E9C86B20.obj'
   0F5218   Module 'obj\inputStreamSupport.7AF62102.obj'
   0F521C   Module 'obj\console_api.1787DB80.obj'
   0F5224   Module 'obj\exe_api.026B8342.obj'
   0F522C   Module 'obj\fileSystem_api.C5B8AF1A.obj'
   0F5238   Module 'obj\memory.568C55F8.obj'
   0F5240   Module 'obj\multiThread_api.57E3A62D.obj'
   0F5248   Module 'obj\time_api.32F5932A.obj'
   0F5250   Module 'obj\locale_api.2E000328.obj'
   0F5258   Module 'obj\gui_api.9FE53D0D.obj'
   0F5260   Module 'obj\vpiDomains.E7102A6D.obj'
   0F5268   Module 'obj\basicInterfaces.63D9152F.obj'
   0F5268   Module 'obj\comDomains.234349D9.obj'
   0F526C   Module 'obj\registry_api.CF388C66.obj'
   0F5274   Module 'obj\windowsAPI.FC171F8F.obj'
   0F5278   Module 'obj\winErrors.9B153E38.obj'
   0F527C   Module 'obj\exe.D80FC844.obj'
   0F5280   Module 'obj\collection.A520841C.obj'
   0F5280   Module 'obj\mapM_redBlack.875A0474.obj'
   0F52A4   Module 'obj\fileSystem.5B0F823E.obj'
   0F52CC   Module 'obj\string.19AABD3B.obj'
   0F52DC   Module 'obj\Shell_api.E8D4E14B.obj'
   0F53EC   Module 'obj\hash_api.96B8CAEE.obj'
   0F53F0   Module 'obj\main.789E136F.obj'
   0F54B0   Module 'obj\queueM_fact.744E8FC1.obj'
   0F54B4   Module 'obj\exceptionHandling.2B4136FF.obj'
   0F54C0   Module 'obj\com_api.B45865D0.obj'
   0F54C8   Module 'obj\iStream_api.935D2F36.obj'
   0F54D4   Module 'obj\safeArray_api.9604C1AC.obj'
   0F54DC   Module 'obj\boolean.DE5055E8.obj'
   0F54E0   Module 'obj\math.5D7D6037.obj'
   0F54EC   Module 'obj\weakReference.0A1AF11C.obj'
   0F54F0   Module 'obj\list.A75CEA31.obj'
   0F54F4   Module 'obj\time.6AFD2988.obj'
   0F550C   Module 'obj\uncollectable.CD38F31A.obj'
   0F5510   Module 'obj\exceptionDump.2B9C9E40.obj'
   0F5514   Module 'obj\srwLock.8CC714FD.obj'
   0F5518   Module 'obj\redBlackSet.DC1C3622.obj'
   0F551C   Module 'obj\collectionMsupport.3A44ED4E.obj'
   0F5520   Module 'obj\guid_api.488B7439.obj'
   0F5528   Module 'obj\outputStreamSupport.6F229CFB.obj'
   0F5530   Module 'obj\segmentedSupport.2BAFE67D.obj'
   0F5538   Module 'obj\iterator.60C55021.obj'
   0F553C   Module 'obj\string8_api.53D65538.obj'
0F5000:000544 000008   VIPini$E::VIPini$E::VIPini F=4
   0F5544   Module 'obj\main.789E136F.obj'

Frame 0F6000   Size 000010.  Name=<  VIPsym>, 	Chars=40000040h. [IR]
0F6000:000000 000004   VIPsym$A::VIPsym$A::VIPsym F=4
   0F6000   Module 'obj\main.789E136F.obj'
0F6000:000004 000000   VIPsym$C::VIPsym$C::VIPsym F=4
   0F6004   Module 'obj\random.27B461AB.obj'
   0F6004   Module 'obj\comSupport.C599FD18.obj'
   0F6004   Module 'obj\guid.EF75E950.obj'
   0F6004   Module 'obj\standardInterfaces.E508E9F3.obj'
   0F6004   Module 'obj\iEnumXXXX.DED4A0C0.obj'
   0F6004   Module 'obj\setM_redBlack.16EF8DC5.obj'
   0F6004   Module 'obj\iso8601Parser.F0F6BC83.obj'
   0F6004   Module 'obj\criticalSectionSupport.6958A988.obj'
   0F6004   Module 'obj\binary.248EF86D.obj'
   0F6004   Module 'obj\multiThread.32507C62.obj'
   0F6004   Module 'obj\arrayM_inline.F665267A.obj'
   0F6004   Module 'obj\namedValue.6D52B2A6.obj'
   0F6004   Module 'obj\std.2DE0EC97.obj'
   0F6004   Module 'obj\memory_api.EF10D306.obj'
   0F6004   Module 'obj\runTime_api.B1A642EC.obj'
   0F6004   Module 'obj\string_api.2E13EA53.obj'
   0F6004   Module 'obj\registry.917E8C91.obj'
   0F6004   Module 'obj\string8.355639C6.obj'
   0F6004   Module 'obj\redBlackTree.401E21A0.obj'
   0F6004   Module 'obj\redBlackTreeRep.E6A269FA.obj'
   0F6004   Module 'obj\mapMSupport.8CD6C048.obj'
   0F6004   Module 'obj\mapSupport.C7248B7B.obj'
   0F6004   Module 'obj\collectionSupport.A039CC0D.obj'
   0F6004   Module 'obj\modifiableSupport.5D48FFF1.obj'
   0F6004   Module 'obj\segmented_binary.C16992E7.obj'
   0F6004   Module 'obj\segmented_utf16.76E668A2.obj'
   0F6004   Module 'obj\inputSupport_mode.ADC075EF.obj'
   0F6004   Module 'obj\systemInformation_api.809129C1.obj'
   0F6004   Module 'obj\commandLineParser.67E728BA.obj'
   0F6004   Module 'obj\varM.B882E173.obj'
   0F6004   Module 'obj\console.E8EB4F3C.obj'
   0F6004   Module 'obj\core.5D9B9483.obj'
   0F6004   Module 'obj\event.D92D3A63.obj'
   0F6004   Module 'obj\presenter.E6E77556.obj'
   0F6004   Module 'obj\exception.B6F320E8.obj'
   0F6004   Module 'obj\programControl.2B27F1CB.obj'
   0F6004   Module 'obj\typeLibrary.6EC19AA0.obj'
   0F6004   Module 'obj\reflection.ACE59E5C.obj'
   0F6004   Module 'obj\stream.8B55AAA7.obj'
   0F6004   Module 'obj\segmented.E9C86B20.obj'
   0F6004   Module 'obj\inputStreamSupport.7AF62102.obj'
   0F6004   Module 'obj\console_api.1787DB80.obj'
   0F6004   Module 'obj\exe_api.026B8342.obj'
   0F6004   Module 'obj\fileSystem_api.C5B8AF1A.obj'
   0F6004   Module 'obj\memory.568C55F8.obj'
   0F6004   Module 'obj\multiThread_api.57E3A62D.obj'
   0F6004   Module 'obj\time_api.32F5932A.obj'
   0F6004   Module 'obj\locale_api.2E000328.obj'
   0F6004   Module 'obj\gui_api.9FE53D0D.obj'
   0F6004   Module 'obj\vpiDomains.E7102A6D.obj'
   0F6004   Module 'obj\basicInterfaces.63D9152F.obj'
   0F6004   Module 'obj\comDomains.234349D9.obj'
   0F6004   Module 'obj\registry_api.CF388C66.obj'
   0F6004   Module 'obj\windowsAPI.FC171F8F.obj'
   0F6004   Module 'obj\winErrors.9B153E38.obj'
   0F6004   Module 'obj\exe.D80FC844.obj'
   0F6004   Module 'obj\collection.A520841C.obj'
   0F6004   Module 'obj\mapM_redBlack.875A0474.obj'
   0F6004   Module 'obj\fileSystem.5B0F823E.obj'
   0F6004   Module 'obj\string.19AABD3B.obj'
   0F6004   Module 'obj\Shell_api.E8D4E14B.obj'
   0F6004   Module 'obj\hash_api.96B8CAEE.obj'
   0F6004   Module 'obj\main.789E136F.obj'
   0F6004   Module 'obj\queueM_fact.744E8FC1.obj'
   0F6004   Module 'obj\exceptionHandling.2B4136FF.obj'
   0F6004   Module 'obj\com_api.B45865D0.obj'
   0F6004   Module 'obj\iStream_api.935D2F36.obj'
   0F6004   Module 'obj\safeArray_api.9604C1AC.obj'
   0F6004   Module 'obj\boolean.DE5055E8.obj'
   0F6004   Module 'obj\math.5D7D6037.obj'
   0F6004   Module 'obj\weakReference.0A1AF11C.obj'
   0F6004   Module 'obj\list.A75CEA31.obj'
   0F6004   Module 'obj\time.6AFD2988.obj'
   0F6004   Module 'obj\uncollectable.CD38F31A.obj'
   0F6004   Module 'obj\exceptionDump.2B9C9E40.obj'
   0F6004   Module 'obj\srwLock.8CC714FD.obj'
   0F6004   Module 'obj\redBlackSet.DC1C3622.obj'
   0F6004   Module 'obj\collectionMsupport.3A44ED4E.obj'
   0F6004   Module 'obj\guid_api.488B7439.obj'
   0F6004   Module 'obj\outputStreamSupport.6F229CFB.obj'
   0F6004   Module 'obj\segmentedSupport.2BAFE67D.obj'
   0F6004   Module 'obj\iterator.60C55021.obj'
   0F6004   Module 'obj\string8_api.53D65538.obj'
0F6000:000004 000008   VIPsym$E::VIPsym$E::VIPsym F=4
   0F6004   Module 'obj\main.789E136F.obj'

Frame 0F7000   Size 001190.  Name=<  VIPtpd>, 	Chars=40000040h. [IR]
0F7000:000000 000004   VIPtpd$A::VIPtpd$A::VIPtpd F=4
   0F7000   Module 'obj\main.789E136F.obj'
0F7000:000004 001184   VIPtpd$C::VIPtpd$C::VIPtpd F=4
   0F7004   Module 'obj\random.27B461AB.obj'
   0F7020   Module 'obj\comSupport.C599FD18.obj'
   0F704C   Module 'obj\guid.EF75E950.obj'
   0F7050   Module 'obj\standardInterfaces.E508E9F3.obj'
   0F7050   Module 'obj\iEnumXXXX.DED4A0C0.obj'
   0F7050   Module 'obj\setM_redBlack.16EF8DC5.obj'
   0F7060   Module 'obj\iso8601Parser.F0F6BC83.obj'
   0F7064   Module 'obj\criticalSectionSupport.6958A988.obj'
   0F7068   Module 'obj\binary.248EF86D.obj'
   0F7070   Module 'obj\multiThread.32507C62.obj'
   0F7090   Module 'obj\arrayM_inline.F665267A.obj'
   0F709C   Module 'obj\namedValue.6D52B2A6.obj'
   0F709C   Module 'obj\std.2DE0EC97.obj'
   0F70A0   Module 'obj\memory_api.EF10D306.obj'
   0F70B0   Module 'obj\runTime_api.B1A642EC.obj'
   0F70B0   Module 'obj\string_api.2E13EA53.obj'
   0F70B4   Module 'obj\registry.917E8C91.obj'
   0F70BC   Module 'obj\string8.355639C6.obj'
   0F70BC   Module 'obj\redBlackTree.401E21A0.obj'
   0F70C8   Module 'obj\redBlackTreeRep.E6A269FA.obj'
   0F70DC   Module 'obj\mapMSupport.8CD6C048.obj'
   0F70E4   Module 'obj\mapSupport.C7248B7B.obj'
   0F70EC   Module 'obj\collectionSupport.A039CC0D.obj'
   0F70F4   Module 'obj\modifiableSupport.5D48FFF1.obj'
   0F70FC   Module 'obj\segmented_binary.C16992E7.obj'
   0F7100   Module 'obj\segmented_utf16.76E668A2.obj'
   0F7104   Module 'obj\inputSupport_mode.ADC075EF.obj'
   0F7108   Module 'obj\systemInformation_api.809129C1.obj'
   0F7120   Module 'obj\commandLineParser.67E728BA.obj'
   0F7178   Module 'obj\varM.B882E173.obj'
   0F71A8   Module 'obj\console.E8EB4F3C.obj'
   0F71D4   Module 'obj\core.5D9B9483.obj'
   0F73C0   Module 'obj\event.D92D3A63.obj'
   0F7520   Module 'obj\presenter.E6E77556.obj'
   0F7560   Module 'obj\exception.B6F320E8.obj'
   0F75A8   Module 'obj\programControl.2B27F1CB.obj'
   0F75B0   Module 'obj\typeLibrary.6EC19AA0.obj'
   0F75B0   Module 'obj\reflection.ACE59E5C.obj'
   0F75EC   Module 'obj\stream.8B55AAA7.obj'
   0F75FC   Module 'obj\segmented.E9C86B20.obj'
   0F7608   Module 'obj\inputStreamSupport.7AF62102.obj'
   0F760C   Module 'obj\console_api.1787DB80.obj'
   0F7628   Module 'obj\exe_api.026B8342.obj'
   0F7634   Module 'obj\fileSystem_api.C5B8AF1A.obj'
   0F7684   Module 'obj\memory.568C55F8.obj'
   0F7708   Module 'obj\multiThread_api.57E3A62D.obj'
   0F7730   Module 'obj\time_api.32F5932A.obj'
   0F7758   Module 'obj\locale_api.2E000328.obj'
   0F776C   Module 'obj\gui_api.9FE53D0D.obj'
   0F7B08   Module 'obj\vpiDomains.E7102A6D.obj'
   0F7B68   Module 'obj\basicInterfaces.63D9152F.obj'
   0F7B68   Module 'obj\comDomains.234349D9.obj'
   0F7C98   Module 'obj\registry_api.CF388C66.obj'
   0F7C9C   Module 'obj\windowsAPI.FC171F8F.obj'
   0F7CA8   Module 'obj\winErrors.9B153E38.obj'
   0F7CA8   Module 'obj\exe.D80FC844.obj'
   0F7CB0   Module 'obj\collection.A520841C.obj'
   0F7CB0   Module 'obj\mapM_redBlack.875A0474.obj'
   0F7CD8   Module 'obj\fileSystem.5B0F823E.obj'
   0F7D34   Module 'obj\string.19AABD3B.obj'
   0F7D68   Module 'obj\Shell_api.E8D4E14B.obj'
   0F7EB4   Module 'obj\hash_api.96B8CAEE.obj'
   0F7EB4   Module 'obj\main.789E136F.obj'
   0F808C   Module 'obj\queueM_fact.744E8FC1.obj'
   0F8094   Module 'obj\exceptionHandling.2B4136FF.obj'
   0F80A0   Module 'obj\com_api.B45865D0.obj'
   0F80A8   Module 'obj\iStream_api.935D2F36.obj'
   0F80B4   Module 'obj\safeArray_api.9604C1AC.obj'
   0F80B4   Module 'obj\boolean.DE5055E8.obj'
   0F80B4   Module 'obj\math.5D7D6037.obj'
   0F80C8   Module 'obj\weakReference.0A1AF11C.obj'
   0F80D0   Module 'obj\list.A75CEA31.obj'
   0F8100   Module 'obj\time.6AFD2988.obj'
   0F8134   Module 'obj\uncollectable.CD38F31A.obj'
   0F8138   Module 'obj\exceptionDump.2B9C9E40.obj'
   0F813C   Module 'obj\srwLock.8CC714FD.obj'
   0F8140   Module 'obj\redBlackSet.DC1C3622.obj'
   0F8150   Module 'obj\collectionMsupport.3A44ED4E.obj'
   0F8154   Module 'obj\guid_api.488B7439.obj'
   0F8154   Module 'obj\outputStreamSupport.6F229CFB.obj'
   0F8168   Module 'obj\segmentedSupport.2BAFE67D.obj'
   0F8178   Module 'obj\iterator.60C55021.obj'
   0F8188   Module 'obj\string8_api.53D65538.obj'
0F7000:001188 000008   VIPtpd$E::VIPtpd$E::VIPtpd F=4
   0F8188   Module 'obj\main.789E136F.obj'

Frame 0F9000   Size 000F30.  Name=<  VIPtpl>, 	Chars=40000040h. [IR]
0F9000:000000 000004   VIPtpl$A::VIPtpl$A::VIPtpl F=4
   0F9000   Module 'obj\main.789E136F.obj'
0F9000:000004 000F24   VIPtpl$C::VIPtpl$C::VIPtpl F=4
   0F9004   Module 'obj\random.27B461AB.obj'
   0F901C   Module 'obj\comSupport.C599FD18.obj'
   0F9050   Module 'obj\guid.EF75E950.obj'
   0F9054   Module 'obj\standardInterfaces.E508E9F3.obj'
   0F9054   Module 'obj\iEnumXXXX.DED4A0C0.obj'
   0F9054   Module 'obj\setM_redBlack.16EF8DC5.obj'
   0F905C   Module 'obj\iso8601Parser.F0F6BC83.obj'
   0F9060   Module 'obj\criticalSectionSupport.6958A988.obj'
   0F9064   Module 'obj\binary.248EF86D.obj'
   0F906C   Module 'obj\multiThread.32507C62.obj'
   0F9090   Module 'obj\arrayM_inline.F665267A.obj'
   0F909C   Module 'obj\namedValue.6D52B2A6.obj'
   0F909C   Module 'obj\std.2DE0EC97.obj'
   0F909C   Module 'obj\memory_api.EF10D306.obj'
   0F90AC   Module 'obj\runTime_api.B1A642EC.obj'
   0F90AC   Module 'obj\string_api.2E13EA53.obj'
   0F90B4   Module 'obj\registry.917E8C91.obj'
   0F90BC   Module 'obj\string8.355639C6.obj'
   0F90BC   Module 'obj\redBlackTree.401E21A0.obj'
   0F90BC   Module 'obj\redBlackTreeRep.E6A269FA.obj'
   0F90C4   Module 'obj\mapMSupport.8CD6C048.obj'
   0F90CC   Module 'obj\mapSupport.C7248B7B.obj'
   0F90D4   Module 'obj\collectionSupport.A039CC0D.obj'
   0F90DC   Module 'obj\modifiableSupport.5D48FFF1.obj'
   0F90E4   Module 'obj\segmented_binary.C16992E7.obj'
   0F90EC   Module 'obj\segmented_utf16.76E668A2.obj'
   0F90F4   Module 'obj\inputSupport_mode.ADC075EF.obj'
   0F90F8   Module 'obj\systemInformation_api.809129C1.obj'
   0F910C   Module 'obj\commandLineParser.67E728BA.obj'
   0F913C   Module 'obj\varM.B882E173.obj'
   0F9158   Module 'obj\console.E8EB4F3C.obj'
   0F9174   Module 'obj\core.5D9B9483.obj'
   0F9324   Module 'obj\event.D92D3A63.obj'
   0F9384   Module 'obj\presenter.E6E77556.obj'
   0F93C0   Module 'obj\exception.B6F320E8.obj'
   0F9410   Module 'obj\programControl.2B27F1CB.obj'
   0F9418   Module 'obj\typeLibrary.6EC19AA0.obj'
   0F9418   Module 'obj\reflection.ACE59E5C.obj'
   0F9468   Module 'obj\stream.8B55AAA7.obj'
   0F9478   Module 'obj\segmented.E9C86B20.obj'
   0F9480   Module 'obj\inputStreamSupport.7AF62102.obj'
   0F9484   Module 'obj\console_api.1787DB80.obj'
   0F94A0   Module 'obj\exe_api.026B8342.obj'
   0F94AC   Module 'obj\fileSystem_api.C5B8AF1A.obj'
   0F94F4   Module 'obj\memory.568C55F8.obj'
   0F9574   Module 'obj\multiThread_api.57E3A62D.obj'
   0F959C   Module 'obj\time_api.32F5932A.obj'
   0F95C4   Module 'obj\locale_api.2E000328.obj'
   0F95D8   Module 'obj\gui_api.9FE53D0D.obj'
   0F9964   Module 'obj\vpiDomains.E7102A6D.obj'
   0F99C8   Module 'obj\basicInterfaces.63D9152F.obj'
   0F99C8   Module 'obj\comDomains.234349D9.obj'
   0F9AF4   Module 'obj\registry_api.CF388C66.obj'
   0F9AF8   Module 'obj\windowsAPI.FC171F8F.obj'
   0F9B04   Module 'obj\winErrors.9B153E38.obj'
   0F9B04   Module 'obj\exe.D80FC844.obj'
   0F9B0C   Module 'obj\collection.A520841C.obj'
   0F9B0C   Module 'obj\mapM_redBlack.875A0474.obj'
   0F9B14   Module 'obj\fileSystem.5B0F823E.obj'
   0F9B70   Module 'obj\string.19AABD3B.obj'
   0F9B88   Module 'obj\Shell_api.E8D4E14B.obj'
   0F9CBC   Module 'obj\hash_api.96B8CAEE.obj'
   0F9CBC   Module 'obj\main.789E136F.obj'
   0F9E5C   Module 'obj\queueM_fact.744E8FC1.obj'
   0F9E64   Module 'obj\exceptionHandling.2B4136FF.obj'
   0F9E70   Module 'obj\com_api.B45865D0.obj'
   0F9E78   Module 'obj\iStream_api.935D2F36.obj'
   0F9E84   Module 'obj\safeArray_api.9604C1AC.obj'
   0F9E88   Module 'obj\boolean.DE5055E8.obj'
   0F9E88   Module 'obj\math.5D7D6037.obj'
   0F9E9C   Module 'obj\weakReference.0A1AF11C.obj'
   0F9EA4   Module 'obj\list.A75CEA31.obj'
   0F9EA8   Module 'obj\time.6AFD2988.obj'
   0F9EE4   Module 'obj\uncollectable.CD38F31A.obj'
   0F9EE8   Module 'obj\exceptionDump.2B9C9E40.obj'
   0F9EF0   Module 'obj\srwLock.8CC714FD.obj'
   0F9EF4   Module 'obj\redBlackSet.DC1C3622.obj'
   0F9EF4   Module 'obj\collectionMsupport.3A44ED4E.obj'
   0F9EF8   Module 'obj\guid_api.488B7439.obj'
   0F9EF8   Module 'obj\outputStreamSupport.6F229CFB.obj'
   0F9F0C   Module 'obj\segmentedSupport.2BAFE67D.obj'
   0F9F1C   Module 'obj\iterator.60C55021.obj'
   0F9F28   Module 'obj\string8_api.53D65538.obj'
0F9000:000F28 000008   VIPtpl$E::VIPtpl$E::VIPtpl F=4
   0F9F28   Module 'obj\main.789E136F.obj'

Frame 0FA000   Size 004860.  Name=<   .data>, 	Chars=C0000040h. [IRW]
0FA000:000000 003C88   .data::DATA::DGROUP F=4
   0FA000   Module 'obj\random.27B461AB.obj'
   0FA068   Module 'obj\comSupport.C599FD18.obj'
   0FA120   Module 'obj\guid.EF75E950.obj'
   0FA130   Module 'obj\setM_redBlack.16EF8DC5.obj'
   0FA158   Module 'obj\iso8601Parser.F0F6BC83.obj'
   0FA170   Module 'obj\criticalSectionSupport.6958A988.obj'
   0FA188   Module 'obj\binary.248EF86D.obj'
   0FA1B8   Module 'obj\multiThread.32507C62.obj'
   0FA258   Module 'obj\arrayM_inline.F665267A.obj'
   0FA294   Module 'obj\std.2DE0EC97.obj'
   0FA2A4   Module 'obj\memory_api.EF10D306.obj'
   0FA2E4   Module 'obj\string_api.2E13EA53.obj'
   0FA2F4   Module 'obj\registry.917E8C91.obj'
   0FA314   Module 'obj\redBlackTree.401E21A0.obj'
   0FA344   Module 'obj\redBlackTreeRep.E6A269FA.obj'
   0FA394   Module 'obj\mapMSupport.8CD6C048.obj'
   0FA3BC   Module 'obj\mapSupport.C7248B7B.obj'
   0FA3E4   Module 'obj\collectionSupport.A039CC0D.obj'
   0FA40C   Module 'obj\modifiableSupport.5D48FFF1.obj'
   0FA434   Module 'obj\segmented_binary.C16992E7.obj'
   0FA44C   Module 'obj\segmented_utf16.76E668A2.obj'
   0FA464   Module 'obj\inputSupport_mode.ADC075EF.obj'
   0FA47C   Module 'obj\systemInformation_api.809129C1.obj'
   0FA4DC   Module 'obj\commandLineParser.67E728BA.obj'
   0FA564   Module 'obj\varM.B882E173.obj'
   0FA64C   Module 'obj\console.E8EB4F3C.obj'
   0FA69C   Module 'obj\core.5D9B9483.obj'
   0FADBC   Module 'obj\event.D92D3A63.obj'
   0FB37C   Module 'obj\presenter.E6E77556.obj'
   0FB47C   Module 'obj\exception.B6F320E8.obj'
   0FB514   Module 'obj\programControl.2B27F1CB.obj'
   0FB534   Module 'obj\reflection.ACE59E5C.obj'
   0FB624   Module 'obj\stream.8B55AAA7.obj'
   0FB67C   Module 'obj\segmented.E9C86B20.obj'
   0FB6AC   Module 'obj\inputStreamSupport.7AF62102.obj'
   0FB6C4   Module 'obj\console_api.1787DB80.obj'
   0FB734   Module 'obj\exe_api.026B8342.obj'
   0FB764   Module 'obj\fileSystem_api.C5B8AF1A.obj'
   0FB8AC   Module 'obj\memory.568C55F8.obj'
   0FBABC   Module 'obj\multiThread_api.57E3A62D.obj'
   0FBB6C   Module 'obj\time_api.32F5932A.obj'
   0FBC10   Module 'obj\locale_api.2E000328.obj'
   0FBC60   Module 'obj\gui_api.9FE53D0D.obj'
   0FCAD0   Module 'obj\vpiDomains.E7102A6D.obj'
   0FCC50   Module 'obj\comDomains.234349D9.obj'
   0FD110   Module 'obj\registry_api.CF388C66.obj'
   0FD120   Module 'obj\windowsAPI.FC171F8F.obj'
   0FD150   Module 'obj\exe.D80FC844.obj'
   0FD170   Module 'obj\mapM_redBlack.875A0474.obj'
   0FD198   Module 'obj\fileSystem.5B0F823E.obj'
   0FD300   Module 'obj\string.19AABD3B.obj'
   0FD3E0   Module 'obj\Shell_api.E8D4E14B.obj'
   0FD4D0   Module 'obj\main.789E136F.obj'
   0FD850   Module 'obj\queueM_fact.744E8FC1.obj'
   0FD878   Module 'obj\exceptionHandling.2B4136FF.obj'
   0FD8A8   Module 'obj\com_api.B45865D0.obj'
   0FD8C8   Module 'obj\iStream_api.935D2F36.obj'
   0FD8F0   Module 'obj\math.5D7D6037.obj'
   0FD930   Module 'obj\weakReference.0A1AF11C.obj'
   0FD958   Module 'obj\list.A75CEA31.obj'
   0FDA18   Module 'obj\time.6AFD2988.obj'
   0FDAF8   Module 'obj\uncollectable.CD38F31A.obj'
   0FDB10   Module 'obj\exceptionDump.2B9C9E40.obj'
   0FDB20   Module 'obj\srwLock.8CC714FD.obj'
   0FDB38   Module 'obj\redBlackSet.DC1C3622.obj'
   0FDB78   Module 'obj\collectionMsupport.3A44ED4E.obj'
   0FDB90   Module 'obj\outputStreamSupport.6F229CFB.obj'
   0FDBF0   Module 'obj\segmentedSupport.2BAFE67D.obj'
   0FDC40   Module 'obj\iterator.60C55021.obj'
0FA000:003C88 000BD0   VIPPresD::DATA::DGROUP F=4
   0FDC88   Module 'obj\random.27B461AB.obj'
   0FDC98   Module 'obj\comSupport.C599FD18.obj'
   0FDCA8   Module 'obj\setM_redBlack.16EF8DC5.obj'
   0FDCC8   Module 'obj\multiThread.32507C62.obj'
   0FDCE8   Module 'obj\commandLineParser.67E728BA.obj'
   0FDDC8   Module 'obj\varM.B882E173.obj'
   0FDDD8   Module 'obj\console.E8EB4F3C.obj'
   0FDE48   Module 'obj\core.5D9B9483.obj'
   0FDED8   Module 'obj\exception.B6F320E8.obj'
   0FDF68   Module 'obj\mapM_redBlack.875A0474.obj'
   0FDFE8   Module 'obj\fileSystem.5B0F823E.obj'
   0FE008   Module 'obj\Shell_api.E8D4E14B.obj'
   0FE448   Module 'obj\main.789E136F.obj'
   0FE828   Module 'obj\iStream_api.935D2F36.obj'
   0FE838   Module 'obj\math.5D7D6037.obj'
   0FE848   Module 'obj\time.6AFD2988.obj'
0FA000:004858 000004   .bss::BSS::DGROUP F=4
   0FE858   Module '..\..\..\_intermediate\sourceVS\vipInit\Win32\Release\VIPDll.obj'

Frame 0FF000   Size 000070.  Name=< .gcroot>, 	Chars=C0000040h. [IRW]
0FF000:000000 000070   .gcroot::.gcroot::.gcroot F=4
   0FF000   Module 'obj\multiThread.32507C62.obj'
   0FF008   Module 'obj\segmented_binary.C16992E7.obj'
   0FF00C   Module 'obj\segmented_utf16.76E668A2.obj'
   0FF010   Module 'obj\console.E8EB4F3C.obj'
   0FF01C   Module 'obj\presenter.E6E77556.obj'
   0FF020   Module 'obj\exception.B6F320E8.obj'
   0FF024   Module 'obj\stream.8B55AAA7.obj'
   0FF030   Module 'obj\exe_api.026B8342.obj'
   0FF038   Module 'obj\time_api.32F5932A.obj'
   0FF03C   Module 'obj\vpiDomains.E7102A6D.obj'
   0FF040   Module 'obj\exe.D80FC844.obj'
   0FF044   Module 'obj\exceptionHandling.2B4136FF.obj'
   0FF050   Module 'obj\math.5D7D6037.obj'
   0FF054   Module 'obj\time.6AFD2988.obj'
   0FF068   Module '..\..\..\_intermediate\sourceVS\vipInit\Win32\Release\VIPDll.obj'

Frame 100000   Size 000530.  Name=<  PRODBG>, 	Chars=40000040h. [IR]
100000:000000 000530   PRODBG::PRODBG::PRODBG F=4
   100000   Module 'obj\random.27B461AB.obj'
   100010   Module 'obj\comSupport.C599FD18.obj'
   100020   Module 'obj\guid.EF75E950.obj'
   100030   Module 'obj\standardInterfaces.E508E9F3.obj'
   100040   Module 'obj\iEnumXXXX.DED4A0C0.obj'
   100050   Module 'obj\setM_redBlack.16EF8DC5.obj'
   100060   Module 'obj\iso8601Parser.F0F6BC83.obj'
   100070   Module 'obj\criticalSectionSupport.6958A988.obj'
   100080   Module 'obj\binary.248EF86D.obj'
   100090   Module 'obj\multiThread.32507C62.obj'
   1000A0   Module 'obj\arrayM_inline.F665267A.obj'
   1000B0   Module 'obj\namedValue.6D52B2A6.obj'
   1000C0   Module 'obj\std.2DE0EC97.obj'
   1000D0   Module 'obj\memory_api.EF10D306.obj'
   1000E0   Module 'obj\runTime_api.B1A642EC.obj'
   1000F0   Module 'obj\string_api.2E13EA53.obj'
   100100   Module 'obj\registry.917E8C91.obj'
   100110   Module 'obj\string8.355639C6.obj'
   100120   Module 'obj\redBlackTree.401E21A0.obj'
   100130   Module 'obj\redBlackTreeRep.E6A269FA.obj'
   100140   Module 'obj\mapMSupport.8CD6C048.obj'
   100150   Module 'obj\mapSupport.C7248B7B.obj'
   100160   Module 'obj\collectionSupport.A039CC0D.obj'
   100170   Module 'obj\modifiableSupport.5D48FFF1.obj'
   100180   Module 'obj\segmented_binary.C16992E7.obj'
   100190   Module 'obj\segmented_utf16.76E668A2.obj'
   1001A0   Module 'obj\inputSupport_mode.ADC075EF.obj'
   1001B0   Module 'obj\systemInformation_api.809129C1.obj'
   1001C0   Module 'obj\commandLineParser.67E728BA.obj'
   1001D0   Module 'obj\varM.B882E173.obj'
   1001E0   Module 'obj\console.E8EB4F3C.obj'
   1001F0   Module 'obj\core.5D9B9483.obj'
   100200   Module 'obj\event.D92D3A63.obj'
   100210   Module 'obj\presenter.E6E77556.obj'
   100220   Module 'obj\exception.B6F320E8.obj'
   100230   Module 'obj\programControl.2B27F1CB.obj'
   100240   Module 'obj\typeLibrary.6EC19AA0.obj'
   100250   Module 'obj\reflection.ACE59E5C.obj'
   100260   Module 'obj\stream.8B55AAA7.obj'
   100270   Module 'obj\segmented.E9C86B20.obj'
   100280   Module 'obj\inputStreamSupport.7AF62102.obj'
   100290   Module 'obj\console_api.1787DB80.obj'
   1002A0   Module 'obj\exe_api.026B8342.obj'
   1002B0   Module 'obj\fileSystem_api.C5B8AF1A.obj'
   1002C0   Module 'obj\memory.568C55F8.obj'
   1002D0   Module 'obj\multiThread_api.57E3A62D.obj'
   1002E0   Module 'obj\time_api.32F5932A.obj'
   1002F0   Module 'obj\locale_api.2E000328.obj'
   100300   Module 'obj\gui_api.9FE53D0D.obj'
   100310   Module 'obj\vpiDomains.E7102A6D.obj'
   100320   Module 'obj\basicInterfaces.63D9152F.obj'
   100330   Module 'obj\comDomains.234349D9.obj'
   100340   Module 'obj\registry_api.CF388C66.obj'
   100350   Module 'obj\windowsAPI.FC171F8F.obj'
   100360   Module 'obj\winErrors.9B153E38.obj'
   100370   Module 'obj\exe.D80FC844.obj'
   100380   Module 'obj\collection.A520841C.obj'
   100390   Module 'obj\mapM_redBlack.875A0474.obj'
   1003A0   Module 'obj\fileSystem.5B0F823E.obj'
   1003B0   Module 'obj\string.19AABD3B.obj'
   1003C0   Module 'obj\Shell_api.E8D4E14B.obj'
   1003D0   Module 'obj\hash_api.96B8CAEE.obj'
   1003E0   Module 'obj\main.789E136F.obj'
   1003F0   Module 'obj\queueM_fact.744E8FC1.obj'
   100400   Module 'obj\exceptionHandling.2B4136FF.obj'
   100410   Module 'obj\com_api.B45865D0.obj'
   100420   Module 'obj\iStream_api.935D2F36.obj'
   100430   Module 'obj\safeArray_api.9604C1AC.obj'
   100440   Module 'obj\boolean.DE5055E8.obj'
   100450   Module 'obj\math.5D7D6037.obj'
   100460   Module 'obj\weakReference.0A1AF11C.obj'
   100470   Module 'obj\list.A75CEA31.obj'
   100480   Module 'obj\time.6AFD2988.obj'
   100490   Module 'obj\uncollectable.CD38F31A.obj'
   1004A0   Module 'obj\exceptionDump.2B9C9E40.obj'
   1004B0   Module 'obj\srwLock.8CC714FD.obj'
   1004C0   Module 'obj\redBlackSet.DC1C3622.obj'
   1004D0   Module 'obj\collectionMsupport.3A44ED4E.obj'
   1004E0   Module 'obj\guid_api.488B7439.obj'
   1004F0   Module 'obj\outputStreamSupport.6F229CFB.obj'
   100500   Module 'obj\segmentedSupport.2BAFE67D.obj'
   100510   Module 'obj\iterator.60C55021.obj'
   100520   Module 'obj\string8_api.53D65538.obj'

	     ------- Names by value Map ---------
Frame 001000   Size 074750.  Name=<   .text>, 	Chars=60000020h. [CER]
001000:000000 0745A0   .text::CODE::<no group> F=4
--- From 'obj\random.27B461AB.obj'
01:00001000 ?new$@random@@SAXQAV1@@IPAUboolean_struct@_builtIn@@@Z  (Idle)
01:00001058 ?_random32/0nf$1@random@@SAXPAUrandom32/0nf$1_struct@1@PAI@Z 
01:00001078 ?_random32$@random@@SAXQAV1@@PAI@Z 
01:000010C4 ?_random64/0nf$1@random@@SAXPAUrandom64/0nf$1_struct@1@PAPA_K@Z 
01:0000113C ?_random64$@random@@SAXQAV1@@PAPA_K@Z 
01:00001188 ?_sync$@random@@SAXQAV1@@QAVrTypeLibrary@TypeLibraries@RunTime@VIP@@PA$?_function$1@core@@SAXPAX@Z$PAX@Z 
01:000011D4 ?_random$@random@@SAXQAV1@@PAPAN@Z 
01:00001250 ?_random$@random@@SAXQAV1@@IPAI@Z 
01:00001278 vip$random$adjust 
01:000012E8 ?serializestate/1np$1@random@@SAXPAUserializestate/1np$1_struct@1@@Z 
01:0000135C ?serializeState$@random@@SAXQAV1@@QAVoutputStream@@@@Z 
01:000013C4 ?deserializeState$@random@@SAXQAV1@@QAVinputStream@@@PAUboolean_struct@_builtIn@@@Z  (Idle)
--- From 'obj\math.5D7D6037.obj'
01:000014D4 ?_randomSeed32@random@@SAXPAI@Z 
01:00001504 ?_new@random@@SAXIPAUboolean_struct@_builtIn@@PAPAV1@@@Z 
--- From 'obj\random.27B461AB.obj'
01:00001530 ?_deserializeState@random@@SAXQAVinputStream@@@PAUboolean_struct@_builtIn@@PAPAV1@@@Z  (Idle)
01:0000155C ?_random$@random@@SAXQAV1@@PBUpositive@core@@AAU34@@Z 
01:00001584 ?_object_facts_initializer$@random@@SGXQAV1@@@Z 
01:000015A4 random?_initObject@@@QAGXQAV1@H@Z 
01:000015C8 ?@create_object@random@@SGQAV1@@XZ 
01:000015E4 random?_InternalFinalizer@@@QAGXQAV1@@Z 
--- From 'obj\comSupport.C599FD18.obj'
01:000015F0 ?_toVariant@variant@@SAXPAUcomVariant_struct@comDomains@@PAPAUboolean_struct@_builtIn@@PAPAUvariant_struct@3@@Z  (Idle)
01:00001650 ?_toPrologVariant@variant@@SAXIPAUboolean_struct@_builtIn@@PAUcomVariantData_struct@comDomains@@PAPAUvariant_struct@5@@Z 
01:00001684 ?resolveVariantType@variant@@SAXIPAIPAPAUboolean_struct@_builtIn@@@Z 
01:000016FC ?_resolveComType@variant@@SAXIPAUcomVariantData_struct@comDomains@@PAPAUvariant_struct@3@@Z 
01:00001DD4 ?_resolveReferencedComType@variant@@SAXIPAUcomVariantData_struct@comDomains@@PAPAUvariant_struct@3@@Z 
01:0000247C ?_toCOMVariant@variant@@SAXPAUvariant_struct@comDomains@@PAPAUcomVariant_struct@3@@Z  (Idle)
01:00002498 ?_toCOMVariant@variant@@SAXPAUvariant_struct@comDomains@@PAUboolean_struct@_builtIn@@PAPAUcomVariant_struct@3@@Z 
01:0000253C ?_toCOMVariantOnHeap@variant@@SAXPAUvariant_struct@comDomains@@PAPAUcomVariant_struct@3@@Z  (Idle)
01:00002558 ?_toCOMVariantOnHeap@variant@@SAXPAUvariant_struct@comDomains@@PAUboolean_struct@_builtIn@@PAPAUcomVariant_struct@3@@Z 
01:00002580 ?fillCOMVariant@variant@@SGXPAUvariant_struct@comDomains@@PAUcomVariant_struct@3@@Z  (Idle)
01:000025D4 ?_resolveReferencedPrologType@variant@@SAXPAUvariant_struct@comDomains@@PAPAUcomVariant_struct@3@@Z 
01:0000264C ?resolveReferencedPrologType@variant@@SAXPAUvariant_struct@comDomains@@AAUvariantType@3@PAPAX@Z 
01:00002A88 ?_resolvePrologType@variant@@SAXPAUvariant_struct@comDomains@@PAPAUcomVariant_struct@3@@Z 
01:00002AE0 ?resolvePrologType@variant@@SAXPAUvariant_struct@comDomains@@AAUvariantType@3@PAPAUcomVariantData_struct@3@@Z 
01:00003030 ?clear@variant@@SAXPAUcomVariant_struct@comDomains@@@Z  (Idle)
01:00003048 ?clear@variant@@SAXPAUcomVariant_struct@comDomains@@PAUmemoryFlag_struct@comMemory@@@Z 
01:00003094 ?clear2@variant@@SAXPAUcomVariant_struct@comDomains@@PAUmemoryFlag_struct@comMemory@@@Z 
01:000030F8 ?_toVariantAndClear@variant@@SAXPAUcomVariant_struct@comDomains@@PAPAUvariant_struct@3@@Z  (Idle)
01:00003114 ?_toVariantAndClear@variant@@SAXPAUcomVariant_struct@comDomains@@PAUmemoryFlag_struct@comMemory@@PAPAUvariant_struct@3@@Z 
01:00003138 ?_allocateComVariant@variant@@SAXPAPAUcomVariant_struct@comDomains@@@Z 
01:0000315C ?_advise_releaseSink@eventSink@@SAXQAVcomInterface@@@PAUnativeGuid_struct@core@@QAViUnknown@@@PAI@Z  (Idle)
01:00003188 ?_advise@eventSink@@SAXQAVcomInterface@@@PAUnativeGuid_struct@core@@QAViUnknown@@@PAI@Z 
01:000031DC ?unadvise@eventSink@@SAXQAVcomInterface@@@PAUnativeGuid_struct@core@@I@Z  (Idle)
01:0000322C ?_getConnectionPoint@eventSink@@SAXQAVcomInterface@@@PAUnativeGuid_struct@core@@PAPAViConnectionPoint_native@@@@Z 
01:00003284 ?_retval_bstr_explicit@comSupport@@SAXPAUprogramPoint_struct@core@@PBUhResult@3@PBUbStr@comDomains@@PAPB_W@Z  (Idle)
01:000032B8 ?_retval_integer_explicit@comSupport@@SAXPAUprogramPoint_struct@core@@PBUhResult@3@HPAH@Z  (Idle)
01:000032CC ?_retval_iDispatch_explicit@comSupport@@SAXPAUprogramPoint_struct@core@@PBUhResult@3@QAViDispatch@@@PAPAV6@@@Z  (Idle)
01:000032E0 ?_retval_iUnknown_explicit@comSupport@@SAXPAUprogramPoint_struct@core@@PBUhResult@3@QAViUnknown@@@PAPAV6@@@Z  (Idle)
01:000032F4 ?_createILockBytes@compoundFile@@SAXPBUbyteCount@core@@PAPAViLockBytes_native@@@@Z  (Idle)
01:00003398 ?_createStream@compoundFile@@SAXPBUbyteCount@core@@PAPAViStream_native@@@@Z  (Idle)
01:0000343C ?_createDocFile@compoundFile@@SAXPAUstorageObject_struct@1@PAU?$__packedList_struct@PAUstgm_struct@1@@@PAPAViStorage_native@@@@Z  (Idle)
01:0000365C ?_createStorage@compoundFile@@SAXPB_WPAU?$__packedList_struct@PAUstgm_struct@1@@@PAUstgFormat_struct@1@PBUunsigned16@core@@IPAUnativeGuid_struct@7@PAPAViUnknown@@@@Z  (Idle)
01:000038F8 ?_openStorage@compoundFile@@SAXPAUstorageObject_struct@1@PAU?$__packedList_struct@PAUstgm_struct@1@@@PAU?$__packedList_struct@PB_W@@PAPAViStorage_native@@@@Z  (Idle)
01:00003BF4 ?_createIFillLockBytes@compoundFile@@SAXPAUstorageObject_struct@1@PAPAViFillLockBytes_native@@@@Z  (Idle)
01:00003D50 ?isStorageObject@compoundFile@@SAXPAUstorageObject_struct@1@@Z  (Idle)
01:00003EA4 ?_openAsyncDocFile@compoundFile@@SAXQAViFillLockBytes_native@@@PAU?$__packedList_struct@PAUstgm_struct@1@@@PAUasyncFlag_struct@1@PAPAViStorage_native@@@@Z  (Idle)
01:00003FFC ?_createFileMoniker@comMoniker@@SAXPB_WPAPAViMoniker_native@@@@Z  (Idle)
01:0000408C ?_createClassMoniker@comMoniker@@SAXPAUnativeGuid_struct@core@@PAPAViMoniker_native@@@@Z  (Idle)
01:0000412C ?_createItemMoniker@comMoniker@@SAXPB_W0PAPAViMoniker_native@@@@Z  (Idle)
01:00004208 ?_createGenericComposite@comMoniker@@SAXQAViMoniker_native@@@0PAPAV2@@@Z  (Idle)
01:000042E4 ?_createPointerMoniker@comMoniker@@SAXQAViUnknown@@@PAPAViMoniker_native@@@@Z  (Idle)
01:00004374 ?_createAntiMoniker@comMoniker@@SAXPAPAViMoniker_native@@@@Z  (Idle)
01:000043A8 ?_mkParseDisplayName@comMoniker@@SAXQAViBindCtx_native@@@PB_WPAPAViMoniker_native@@@@Z  (Idle)
01:00004488 ?_monikerCommonPrefixWith@comMoniker@@SAXQAViMoniker_native@@@0PAPAV2@@@Z  (Idle)
01:00004564 ?_monikerRelativePathTo@comMoniker@@SAXQAViMoniker_native@@@0PAPAV2@@@Z  (Idle)
01:00004640 ?_bindMoniker@comMoniker@@SAXQAViMoniker_native@@@PAUnativeGuid_struct@core@@PAPAViUnknown@@@@Z  (Idle)
01:00004730 ?_createBindCtx@comMoniker@@SAXPAPAViBindCtx_native@@@@Z  (Idle)
01:00004768 ?newAlloc$@comMemoryArray@@SAXQAV1@@XQAVrTypeLibrary@TypeLibraries@RunTime@VIP@@I@Z  (Idle)
01:000047F4 ?newExisting$@comMemoryArray@@SAXQAV1@@XQAVrTypeLibrary@TypeLibraries@RunTime@VIP@@X@Z 
01:00004808 ?_getRef$@comMemoryArray@@SAXQAV1@@XIPAX@Z 
01:0000488C ?set$@comMemoryArray@@SAXQAV1@@XIX@Z 
01:000048C0 ?_newAlloc@comMemoryArray@@SAXQAVrTypeLibrary@TypeLibraries@RunTime@VIP@@IPAPAV1@@PAX@Z  (Idle)
01:000048F0 ?_newExisting@comMemoryArray@@SAXQAVrTypeLibrary@TypeLibraries@RunTime@VIP@@XPAPAV1@@PAX@Z  (Idle)
01:00004920 ?_object_typelib_initializer$@comMemoryArray@@SGXQAV1@@XQAVrTypeLibrary@TypeLibraries@RunTime@VIP@@@Z 
01:00004938 ?_array@comMemoryArray@@SAXQAV1@@XPAX@Z 
01:0000494C ?freeUnusedLibraries@comMemory@@SAXXZ  (Idle)
01:00004958 ?_getMalloc@comMemory@@SAXPAPAViMalloc_native@@@@Z  (Idle)
01:00004988 ?_taskMemAlloc@comMemory@@SAXPBUbyteCount@core@@PAPAX@Z 
01:00004A14 ?_taskMemAlloc@comMemory@@SAXQAVrTypeLibrary@TypeLibraries@RunTime@VIP@@PAX@Z  (Idle)
01:00004A98 ?taskMemFree@comMemory@@SAXQAVrTypeLibrary@TypeLibraries@RunTime@VIP@@XPAUmemoryFlag_struct@1@@Z 
01:00004B14 ?_copyAndFree@comMemory@@SAXQAVrTypeLibrary@TypeLibraries@RunTime@VIP@@XPAUmemoryFlag_struct@1@PAX@Z  (Idle)
01:00004BC0 ?_taskMemRealloc@comMemory@@SAXQAVrTypeLibrary@TypeLibraries@RunTime@VIP@@XIPAPAX@Z  (Idle)
01:00004BD8 ?registerMallocSpy@comMemory@@SAXQAViMallocSpy_native@@@@Z  (Idle)
01:00004C64 ?revokeMallocSpy@comMemory@@SAXXZ  (Idle)
01:00004C8C ?_returnBoolean@comMemory@@SAXPAUboolean_struct@_builtIn@@PAI@Z  (Idle)
01:00004CB0 ?lockObjectExternal@comMemory@@SAXQAViUnknown@@@PAUboolean_struct@_builtIn@@1@Z  (Idle)
01:00004DE4 ?_allocString@comMemory@@SAXPB_WPAPB_W@Z  (Idle)
--- From 'obj\Shell_api.E8D4E14B.obj'
01:00004E90 ?_freeString@comMemory@@SAXPB_WPAUmemoryFlag_struct@1@PAPB_W@Z 
--- From 'obj\comSupport.C599FD18.obj'
01:00004F10 ?_allocString8@comMemory@@SAXPADPAPAD@Z  (Idle)
01:00004FB0 ?_freeString8@comMemory@@SAXPADPAUmemoryFlag_struct@1@PAPAD@Z  (Idle)
01:00005030 ?_subTerms2Release@comMemory@@SAXPAUmemoryFlag_struct@1@PAPAU21@@Z  (Idle)
01:00005050 ?_release2SubTerms@comMemory@@SAXPAUmemoryFlag_struct@1@PAPAU21@@Z  (Idle)
01:00005070 ?copy@comMemory@@SAXQAVrTypeLibrary@TypeLibraries@RunTime@VIP@@0XXPBUbyteCount@core@@@Z 
01:000050E8 ?_copyToTaskMem@comMemory@@SAXQAVrTypeLibrary@TypeLibraries@RunTime@VIP@@XPAX@Z  (Idle)
01:00005168 ?_binaryCopy@comMemory@@SAXPAXPBUbyteCount@core@@QAPAE@Z  (Idle)
01:000051CC ?_comToProlog_binary@comMemory@@SAXPAXIPAUmemoryFlag_struct@1@QAPAE@Z  (Idle)
01:00005240 ?prologToCom_binary@comMemory@@SAXQAEPAPAXPAI@Z  (Idle)
01:000052FC ?_allocAtomicZero@comMemory@@SAXPBUbyteCount@core@@PAPAX@Z  (Idle)
01:00005318 ?_allocAtomicZero@comMemory@@SAXQAVrTypeLibrary@TypeLibraries@RunTime@VIP@@PAX@Z  (Idle)
01:00005334 ?_comArrayToList@comMemory@@SAXQAVrTypeLibrary@TypeLibraries@RunTime@VIP@@0PA$?_function$3@core@@SAXXPAUmemoryFlag_struct@1@PAX@Z$XIPAU21@PAPAU?$__packedList_struct@PAX@@@Z  (Idle)
01:000053FC ?listToComArray@comMemory@@SAXQAVrTypeLibrary@TypeLibraries@RunTime@VIP@@0PA$?_function$2@core@@SAXXPAX@Z$PAU?$__packedList_struct@X@@PAXPAI@Z  (Idle)
01:00005494 ?listToComArray2@comMemory@@SAXQAVrTypeLibrary@TypeLibraries@RunTime@VIP@@0PA$?_function$2@core@@SAXXPAX@Z$PAU?$__packedList_struct@X@@QAVcomMemoryArray@@@XI@Z 
01:00005528 ?new$@comInterface@@SAXQAV1@@QAViUnknown@@@PAUmemoryFlag_struct@comMemory@@@Z 
01:0000554C ?new$@comInterface@@SAXQAV1@@QAViUnknown@@@@Z  (Idle)
01:00005560 ?_getIUnknown$@comInterface@@SAXQAV1@@PAPAViUnknown@@@@Z 
01:00005578 ?_getIUnknownUnref$@comInterface@@SAXQAV1@@PAPAViUnknown@@@@Z 
01:0000558C ?_queryInterface$@comInterface@@SAXQAV1@@PAUnativeGuid_struct@core@@PAPAViUnknown@@@@Z 
01:00005638 ?_getInterface_explicit$@comInterface@@SAXQAV1@@QAVrTypeLibrary@TypeLibraries@RunTime@VIP@@PAUprogramPoint_struct@core@@PAUinterfaceId_struct@comDomains@@XPAX@Z 
01:00005664 ?_tryGetInterface_explicit$@comInterface@@SAXQAV1@@QAVrTypeLibrary@TypeLibraries@RunTime@VIP@@PAUprogramPoint_struct@core@@PAUinterfaceId_struct@comDomains@@XPAX@Z 
01:00005690 ?_getFromUnknown_explicit@comInterface@@SAXQAVrTypeLibrary@TypeLibraries@RunTime@VIP@@PAUprogramPoint_struct@core@@PAUinterfaceId_struct@comDomains@@XQAViUnknown@@@PAX@Z 
01:000056D4 ?_tryGetFromUnknown_explicit@comInterface@@SAXQAVrTypeLibrary@TypeLibraries@RunTime@VIP@@PAUprogramPoint_struct@core@@PAUinterfaceId_struct@comDomains@@XQAViUnknown@@@PAX@Z 
01:00005724 ?_mkObject_hResult_explicit@comInterface@@SAXQAVrTypeLibrary@TypeLibraries@RunTime@VIP@@PAUprogramPoint_struct@core@@PAUinterfaceId_struct@comDomains@@XQAViUnknown@@@PBUhResult@3@PAX@Z 
01:0000582C ?_mkObject@comInterface@@SAXQAVrTypeLibrary@TypeLibraries@RunTime@VIP@@PAUinterfaceId_struct@comDomains@@XQAViUnknown@@@PAX@Z 
01:000058B4 ?_mkObject_keep@comInterface@@SAXQAVrTypeLibrary@TypeLibraries@RunTime@VIP@@PAUinterfaceId_struct@comDomains@@XQAViUnknown@@@PAX@Z  (Idle)
01:000058DC ?finalize$@comInterface@@SGXQAV1@@@Z 
01:000058F8 ?release$@comInterface@@SAXQAV1@@@Z 
01:00005918 ?safeAddRef@comInterface@@SAXQAViUnknown@@@@Z 
01:00005934 ?_safeAddRef@comInterface@@SAXQAViUnknown@@@PAPAV2@@@Z 
01:0000598C ?safeRelease@comInterface@@SAXQAViUnknown@@@@Z 
01:00005A20 ?safeRelease@comInterface@@SAXQAViUnknown@@@PAUmemoryFlag_struct@comMemory@@@Z  (Idle)
01:00005A38 ?_uncheckedGetIUnknown@comInterface@@SAXQAVrTypeLibrary@TypeLibraries@RunTime@VIP@@QAV1@@PAX@Z  (Idle)
01:00005AA4 ?_uncheckedGetIUnknownUnref@comInterface@@SAXQAVrTypeLibrary@TypeLibraries@RunTime@VIP@@QAV1@@PAX@Z  (Idle)
01:00005B10 ?_new@comInterface@@SAXQAViUnknown@@@PAPAV1@@@Z  (Idle)
01:00005B38 ?_new@comInterface@@SAXQAViUnknown@@@PAUmemoryFlag_struct@comMemory@@PAPAV1@@@Z  (Idle)
01:00005B64 ?_get_bstr_explicit@comImportSupport@@SAXPAUprogramPoint_struct@core@@PBUhResult@3@PBUbStr@comDomains@@PAPB_W@Z  (Idle)
01:00005B98 ?_get_integer_explicit@comImportSupport@@SAXPAUprogramPoint_struct@core@@PBUhResult@3@HPAH@Z  (Idle)
01:00005BAC ?new$@comDispInterface@@SAXQAV1@@QAViDispatch@@@@Z  (Idle)
01:00005BC4 ?iDispatchAddRef@comDispInterface@@SGQAViDispatch@@@QAV1@@@Z 
01:00005BE8 ?new$@comDispInterface@@SAXQAV1@@QAViDispatch@@@PAUmemoryFlag_struct@comMemory@@@Z 
01:00005C20 ?newQueryAndRelease$@comDispInterface@@SAXQAV1@@QAViUnknown@@@@Z  (Idle)
01:00005C70 ?_getProperty$@comDispInterface@@SAXQAV1@@PB_WPAPAUvariant_struct@comDomains@@@Z 
01:00005C8C ?_getProperty$@comDispInterface@@SAXQAV1@@PB_WPAUvariant_struct@comDomains@@PAPAU34@@Z 
01:00005CB0 ?_getProperty_indexList$@comDispInterface@@SAXQAV1@@PB_WPAU?$__packedList_struct@PAUvariant_struct@comDomains@@@@PAPAU34@@Z 
01:00005CF0 ?setProperty$@comDispInterface@@SAXQAV1@@PB_WPAUvariant_struct@comDomains@@@Z 
01:00005D0C ?setProperty$@comDispInterface@@SAXQAV1@@PB_WPAUvariant_struct@comDomains@@2@Z 
01:00005D30 ?setProperty_indexList$@comDispInterface@@SAXQAV1@@PB_WPAU?$__packedList_struct@PAUvariant_struct@comDomains@@@@PAU34@@Z 
01:00005D70 ?setPropertyByReference$@comDispInterface@@SAXQAV1@@PB_WPAUvariant_struct@comDomains@@@Z 
01:00005D8C ?setPropertyByReference$@comDispInterface@@SAXQAV1@@PB_WPAUvariant_struct@comDomains@@2@Z 
01:00005DB0 ?setPropertyByReference_indexList$@comDispInterface@@SAXQAV1@@PB_WPAU?$__packedList_struct@PAUvariant_struct@comDomains@@@@PAU34@@Z 
01:00005DF0 ?invokeMethod$@comDispInterface@@SAXQAV1@@PB_WPAU?$__packedList_struct@PAUvariant_struct@comDomains@@@@@Z 
01:00005E18 ?_invokeMethodWithOutput$@comDispInterface@@SAXQAV1@@PB_WPAU?$__packedList_struct@PAUdispParameter_struct@comDomains@@@@PAPAU?$__packedList_struct@PAPAUvariant_struct@4@@@@Z 
01:00005E58 ?_getProperty_dispId$@comDispInterface@@SAXQAV1@@PBUdispId@comDomains@@PAPAUvariant_struct@4@@Z 
01:00005E74 ?_getProperty_dispId$@comDispInterface@@SAXQAV1@@PBUdispId@comDomains@@PAUvariant_struct@4@PAPAU54@@Z 
01:00005E98 ?setProperty_dispId$@comDispInterface@@SAXQAV1@@PBUdispId@comDomains@@PAUvariant_struct@4@@Z 
01:00005EB4 ?setProperty_dispId$@comDispInterface@@SAXQAV1@@PBUdispId@comDomains@@PAUvariant_struct@4@2@Z 
01:00005ED8 ?setPropertyByReference_dispId$@comDispInterface@@SAXQAV1@@PBUdispId@comDomains@@PAUvariant_struct@4@@Z 
01:00005EF4 ?setPropertyByReference_dispId$@comDispInterface@@SAXQAV1@@PBUdispId@comDomains@@PAUvariant_struct@4@2@Z 
01:00005F18 ?_getProperty_indexList_dispId$@comDispInterface@@SAXQAV1@@PBUdispId@comDomains@@PAU?$__packedList_struct@PAUvariant_struct@4@@@PAPAU54@@Z 
01:00005F4C ?setProperty_indexList_dispId$@comDispInterface@@SAXQAV1@@PBUdispId@comDomains@@PAU?$__packedList_struct@PAUvariant_struct@4@@@PAU54@@Z 
01:00005F80 ?setPropertyByReference_indexList_dispId$@comDispInterface@@SAXQAV1@@PBUdispId@comDomains@@PAU?$__packedList_struct@PAUvariant_struct@4@@@PAU54@@Z 
01:00005FB4 ?invokeMethod_dispId$@comDispInterface@@SAXQAV1@@PBUdispId@comDomains@@PAU?$__packedList_struct@PAUvariant_struct@4@@@@Z 
01:00005FE0 ?_invokeMethodWithOutput_dispId$@comDispInterface@@SAXQAV1@@PBUdispId@comDomains@@PAU?$__packedList_struct@PAUdispParameter_struct@4@@@PAPAU?$__packedList_struct@PAPAUvariant_struct@4@@@@Z 
01:00006014 ?_getProperty_indexList_2$@comDispInterface@@SAXQAV1@@PB_WPBUdispId@comDomains@@PAU?$__packedList_struct@PAUvariant_struct@4@@@PAPAU54@@Z 
01:00006054 ?setProperty_indexList_2$@comDispInterface@@SAXQAV1@@PB_WPBUdispId@comDomains@@PAU?$__packedList_struct@PAUvariant_struct@4@@@PAU54@@Z 
01:00006098 ?setPropertyByReference_indexList_2$@comDispInterface@@SAXQAV1@@PB_WPBUdispId@comDomains@@PAU?$__packedList_struct@PAUvariant_struct@4@@@PAU54@@Z 
01:000060DC ?invokeMethod_2$@comDispInterface@@SAXQAV1@@PB_WPBUdispId@comDomains@@PAU?$__packedList_struct@PAUvariant_struct@4@@@@Z 
01:0000611C ?_invokeMethodWithOutput_2$@comDispInterface@@SAXQAV1@@PB_WPBUdispId@comDomains@@PAU?$__packedList_struct@PAUdispParameter_struct@4@@@PAPAU?$__packedList_struct@PAPAUvariant_struct@4@@@@Z 
01:00006178 ?invoke$@comDispInterface@@SAXQAV1@@PB_WPBUdispId@comDomains@@PBUunsigned16@core@@PAU?$__packedList_struct@PAUdispParameter_struct@4@@@PAPAU?$__packedList_struct@PAPAUvariant_struct@4@@@PAPAU94@@Z 
01:000062E0 ?_removeOptionalFront@comDispInterface@@SAXPAU?$__packedList_struct@PAUdispParameter_struct@comDomains@@@@PAPAU?$__packedList_struct@PAPAU23@@@@Z 
01:00006358 ?_fillArray_dispParameter@comDispInterface@@SAXPAXPAU?$__packedList_struct@PAUdispParameter_struct@comDomains@@@@PAPAX@Z 
01:000063E0 ?_getComVariant@comDispInterface@@SAXPAUdispParameter_struct@comDomains@@PAPAUcomVariant_struct@3@@Z 
01:00006478 ?_getReverseOutputParams@comDispInterface@@SAXPAXPAU?$__packedList_struct@PAUdispParameter_struct@comDomains@@@@PAU?$__packedList_struct@PAUvariant_struct@3@@@PAPAU?$__packedList_struct@PAPAU43@@@@Z 
01:00006514 ?_getIndexedProperty$@comDispInterface@@SAXQAV1@@PB_WHPAPAUvariant_struct@comDomains@@@Z 
01:00006548 ?invoke2$@comDispInterface@@SAXQAV1@@PB_WPBUdispId@comDomains@@PBUunsigned16@core@@PAUcomDispParams_struct@4@PAUcomVariant_struct@4@@Z 
01:000069E0 ?_getDispId$@comDispInterface@@SAXQAV1@@PB_WAAUdispId@comDomains@@@Z 
01:00006ABC ?dispose@comDispInterface@@SAXPAUcomVariant_struct@comDomains@@PBUpositive@core@@@Z 
01:00006B2C ?_allocOrNull@comDispInterface@@SAXPBUbyteCount@core@@PAPAX@Z 
01:00006B5C ?_allIn@comDispInterface@@SAXPAU?$__packedList_struct@PAUvariant_struct@comDomains@@@@PAPAU?$__packedList_struct@PAPAUdispParameter_struct@3@@@@Z 
01:00006BD4 ?_allIn@comDispInterface@@SAXPAU?$__packedList_struct@PAUvariant_struct@comDomains@@@@PAU23@PAPAU?$__packedList_struct@PAPAUdispParameter_struct@3@@@@Z 
01:00006C5C ?_new@comDispInterface@@SAXQAViDispatch@@@PAPAV1@@@Z  (Idle)
01:00006C84 ?_new@comDispInterface@@SAXQAViDispatch@@@PAUmemoryFlag_struct@comMemory@@PAPAV1@@@Z  (Idle)
01:00006CB0 ?_newQueryAndRelease@comDispInterface@@SAXQAViUnknown@@@PAPAV1@@@Z  (Idle)
01:00006CD8 ?iDispatch@comDispInterface@@SGQAV0@@QAV1@@@Z 
01:00006CE4 ?_createInstance2@comCreation@@SAXQAVrTypeLibrary@TypeLibraries@RunTime@VIP@@PAUnativeGuid_struct@core@@PAUinterfaceId_struct@comDomains@@XPAX@Z  (Idle)
01:00006D3C ?_createInstance@comCreation@@SAXPAUnativeGuid_struct@core@@QAViUnknown@@@PAU?$__packedList_struct@PAUclassContext_struct@1@@@0PAPAV4@@@Z  (Idle)
01:00006EFC ?_createInstance@comCreation@@SAXPAUnativeGuid_struct@core@@0PAPAViUnknown@@@@Z 
01:00006F30 ?_getInstanceFromFile@comCreation@@SAXPAUcoServerInfo_struct@comDomains@@PAUnativeGuid_struct@core@@QAViUnknown@@@PAU?$__packedList_struct@PAUclassContext_struct@1@@@PAU?$__packedList_struct@PAUstgm_struct@compoundFile@@@@PB_WPAU?$__packedList_struct@PAUmultiQI_struct@3@@@PAPAU?$__packedList_struct@PAPAU113@@@@Z  (Idle)
01:00007234 ?_getInstanceFromIStorage@comCreation@@SAXPAUcoServerInfo_struct@comDomains@@PAUnativeGuid_struct@core@@QAViUnknown@@@PAU?$__packedList_struct@PAUclassContext_struct@1@@@QAViStorage_native@@@PAU?$__packedList_struct@PAUmultiQI_struct@3@@@PAPAU?$__packedList_struct@PAPAU103@@@@Z  (Idle)
01:000074BC ?_getClassObject@comCreation@@SAXPAUnativeGuid_struct@core@@PAU?$__packedList_struct@PAUclassContext_struct@1@@@PAUcoServerInfo_struct@comDomains@@0PAPAViClassFactory_native@@@@Z  (Idle)
01:0000767C ?_progIDFromClassID@comConversion@@SAXPAUnativeGuid_struct@core@@PAPAUprogId_struct@comDomains@@@Z  (Idle)
01:00007730 ?_createUniqueGuid@comConversion@@SAXPAPAUnativeGuid_struct@core@@@Z  (Idle)
01:00007784 ?_getTreatAsClass@comConversion@@SAXPAUnativeGuid_struct@core@@PAPAU23@@Z  (Idle)
01:00007824 ?treatAsClass@comConversion@@SAXPAUnativeGuid_struct@core@@0@Z  (Idle)
01:0000792C ?_getClassFile@comConversion@@SAXPB_WPAPAUnativeGuid_struct@core@@@Z  (Idle)
01:000079BC ?asyncFlagConversion@comConversion@@SAXPAUasyncFlag_struct@compoundFile@@PAI@Z 
01:000079E0 ?stgFormatConversion@comConversion@@SAXPAUstgFormat_struct@compoundFile@@PAI@Z 
01:00007A1C ?classContextMap@comConversion@@SAXPAUclassContext_struct@comCreation@@PAI@Z  (Idle)
01:00007A64 ?classContextFlagConversionEx@comConversion@@SAXPAU?$__packedList_struct@PAUclassContext_struct@comCreation@@@@PAPAU?$__packedList_struct@PAI@@@Z  (Idle)
01:00007AC4 ?classContextFlagConversion@comConversion@@SAXPAU?$__packedList_struct@PAUclassContext_struct@comCreation@@@@PAI@Z 
01:00007AE8 ?stgmMap@comConversion@@SAXPAUstgm_struct@compoundFile@@PAI@Z  (Idle)
01:00007BD8 ?stgmFlagConversionEx@comConversion@@SAXPAU?$__packedList_struct@PAUstgm_struct@compoundFile@@@@PAPAU?$__packedList_struct@PAI@@@Z  (Idle)
01:00007C3C ?stgmFlagConversion@comConversion@@SAXPAU?$__packedList_struct@PAUstgm_struct@compoundFile@@@@PAI@Z 
01:00007C90 ?_stringFromVersion@comConversion@@SAXPAUversion_struct@comDomains@@PAPB_W@Z  (Idle)
01:00007D18 ?_toReal32@comConversion@@SAXPANPAM@Z  (Idle)
01:00007D4C ?_toReal@comConversion@@SAXMPAPAN@Z  (Idle)
01:00007D98 ?_toComBoolean@comConversion@@SAXPAUboolean_struct@_builtIn@@AAUcomBoolean@comDomains@@@Z 
01:00007DB8 ?_toBoolean@comConversion@@SAXPBUcomBoolean@comDomains@@PAPAUboolean_struct@_builtIn@@@Z 
01:00007DE0 ?fillMultiQIArray@comConversion@@SAXPAXPAU?$__packedList_struct@PAUmultiQI_struct@comDomains@@@@@Z  (Idle)
01:00007E34 ?_fillMultiQIList@comConversion@@SAXPAXIPAPAU?$__packedList_struct@PAPAUmultiQI_struct@comDomains@@@@@Z  (Idle)
01:00007EA8 ?multiQIConverter@comConversion@@SAXPAU?$__packedList_struct@PAUmultiQI_struct@comDomains@@@@PAPAXPAI@Z 
01:00007F4C ?_viProgIDFromString@comConversion@@SAXPB_WPAPAUversionIndependentProgId_struct@comDomains@@@Z  (Idle)
01:00007F84 ?_versionFromString@comConversion@@SAXPB_WPAPAUversion_struct@comDomains@@@Z  (Idle)
01:00007FB0 ?_getVersion@comConversion@@SAXPAU?$__packedList_struct@PB_W@@PAPAUversion_struct@comDomains@@@Z 
01:0000806C ?_toUnsigned16@comConversion@@SAXPB_WAAUunsigned16@core@@@Z 
01:000080F0 ?_stringFromVIProgID@comConversion@@SAXPAUversionIndependentProgId_struct@comDomains@@PAPB_W@Z  (Idle)
01:00008124 ?_concatWithDot@comConversion@@SAXPB_W0PAPB_W@Z 
--- From 'obj\exceptionHandling.2B4136FF.obj'
01:0000817C ?_stringFromProgID@comConversion@@SAXPAUprogId_struct@comDomains@@PAPB_W@Z 
--- From 'obj\comSupport.C599FD18.obj'
01:000081D8 ?_checkMajorVersion@comConversion@@SAXPB_WIPAPB_W@Z 
--- From 'obj\exceptionHandling.2B4136FF.obj'
01:00008220 ?_progIDFromString@comConversion@@SAXPB_WPAPAUprogId_struct@comDomains@@@Z 
--- From 'obj\comSupport.C599FD18.obj'
01:0000827C ?getElemets@comConversion@@SAXPB_WPAPB_W1PAPAU?$__packedList_struct@PAPB_W@@@Z 
01:000082FC ?getComponentName@comConversion@@SAXPAU?$__packedList_struct@PB_W@@PAPAU?$__packedList_struct@PAPB_W@@1@Z 
01:000083D4 ?_comToProlog_guid@comConversion@@SAXPAUnativeGuid_struct@core@@PAUmemoryFlag_struct@comMemory@@PAPAU23@@Z  (Idle)
01:0000843C ?_prologToCom_guid@comConversion@@SAXPAUnativeGuid_struct@core@@PAPAU23@@Z  (Idle)
01:000084A4 ?_comToProlog_string@comConversion@@SAXPB_WPAUmemoryFlag_struct@comMemory@@PAPB_W@Z  (Idle)
01:000084AC ?_prologToCom_string@comConversion@@SAXPB_WPAPB_W@Z  (Idle)
01:000084B4 ?_comToProlog_string8@comConversion@@SAXPADPAUmemoryFlag_struct@comMemory@@PAPAD@Z  (Idle)
01:000084BC ?_prologToCom_string8@comConversion@@SAXPADPAPAD@Z  (Idle)
01:000084C4 ?asyncFlagConversion@comConversion@@SAXPAPAUasyncFlag_struct@compoundFile@@I@Z  (Idle)
01:000084F4 ?stgFormatConversion@comConversion@@SAXPAPAUstgFormat_struct@compoundFile@@I@Z  (Idle)
01:00008544 ?classContextMap@comConversion@@SAXPAPAUclassContext_struct@comCreation@@I@Z  (Idle)
01:000085B0 ?classContextFlagConversionEx@comConversion@@SAXPAPAU?$__packedList_struct@PAPAUclassContext_struct@comCreation@@@@PAU?$__packedList_struct@I@@@Z  (Idle)
01:00008614 ?classContextFlagConversion@comConversion@@SAXPAPAU?$__packedList_struct@PAPAUclassContext_struct@comCreation@@@@I@Z  (Idle)
01:0000863C ?stgmMap@comConversion@@SAXPAPAUstgm_struct@compoundFile@@I@Z  (Idle)
01:000087C4 ?stgmFlagConversionEx@comConversion@@SAXPAPAU?$__packedList_struct@PAPAUstgm_struct@compoundFile@@@@PAU?$__packedList_struct@I@@@Z  (Idle)
01:00008828 ?stgmFlagConversion@comConversion@@SAXPAPAU?$__packedList_struct@PAPAUstgm_struct@compoundFile@@@@I@Z  (Idle)
01:0000887C ?multiQIConverter@comConversion@@SAXPAPAU?$__packedList_struct@PAPAUmultiQI_struct@comDomains@@@@PAXI@Z 
01:000088A0 ?raise_classIDNotRegistered_explicit@com_exception@@SAXPAUprogramPoint_struct@core@@PAUnativeGuid_struct@3@@Z  (Idle)
01:0000893C ?raise_emptyVersionIndependentProgID_explicit@com_exception@@SAXPAUprogramPoint_struct@core@@@Z  (Idle)
01:00008974 ?continue_ExtensionNotRegistered_explicit@com_exception@@SAXPAUprogramPoint_struct@core@@PBUtraceId@5@PB_W@Z  (Idle)
01:000089E8 ?raise_interfaceIDNotRegistered_explicit@com_exception@@SAXPAUprogramPoint_struct@core@@PAUnativeGuid_struct@3@@Z  (Idle)
01:00008A84 ?raise_localeIDNotRegistered_explicit@com_exception@@SAXPAUprogramPoint_struct@core@@PAUnativeGuid_struct@3@PBUlocaleID@comDomains@@@Z  (Idle)
01:00008B74 ?raise_noTypeLibForGuid_explicit@com_exception@@SAXPAUprogramPoint_struct@core@@PAUnativeGuid_struct@3@@Z  (Idle)
01:00008C10 ?raise_notName_explicit@com_exception@@SAXPAUprogramPoint_struct@core@@PB_W@Z  (Idle)
01:00008C9C ?continue_ProgIDNotRegistered_explicit@com_exception@@SAXPAUprogramPoint_struct@core@@PBUtraceId@5@PAUprogId_struct@comDomains@@@Z  (Idle)
01:00008E34 ?raise_selfAggregation_explicit@com_exception@@SAXPAUprogramPoint_struct@core@@PAUnativeGuid_struct@3@PAX@Z  (Idle)
01:00008F24 ?raise_typeLibraryIDNotRegistered_explicit@com_exception@@SAXPAUprogramPoint_struct@core@@PAUnativeGuid_struct@3@@Z  (Idle)
01:00008FC0 ?continue_VersionIndependentProgIDNotRegistered_explicit@com_exception@@SAXPAUprogramPoint_struct@core@@PBUtraceId@5@PAUversionIndependentProgId_struct@comDomains@@@Z  (Idle)
01:00009098 ?raise_versionNotRegistered_explicit@com_exception@@SAXPAUprogramPoint_struct@core@@PAUnativeGuid_struct@3@PBUlocaleID@comDomains@@PBUunsigned16@3@3@Z  (Idle)
01:00009244 ?raise_wrongProgID_explicit@com_exception@@SAXPAUprogramPoint_struct@core@@@Z  (Idle)
01:0000927C ?raise_obligatoryEntryNotExist_explicit@com_exception@@SAXPAUprogramPoint_struct@core@@PB_W1@Z  (Idle)
01:0000935C ?continue_ObligatoryEntryNotExist_explicit@com_exception@@SAXPAUprogramPoint_struct@core@@PBUtraceId@5@PB_W2@Z  (Idle)
01:00009424 ?raise_interfaceNotExposed_explicit@com_exception@@SAXPAUprogramPoint_struct@core@@PAUnativeGuid_struct@3@@Z  (Idle)
01:000094C0 ?raise_cannotResolveTypeDescription_explicit@com_exception@@SAXPAUprogramPoint_struct@core@@PB_W@Z  (Idle)
01:0000954C ?raise_wrongNumberOfOutputVariables_explicit@com_exception@@SAXPAUprogramPoint_struct@core@@PB_W@Z  (Idle)
01:000095D8 ?raise_outputArgumentMismatch_explicit@com_exception@@SAXPAUprogramPoint_struct@core@@PB_WPAU?$__packedList_struct@PAUvariant_struct@comDomains@@@@@Z  (Idle)
01:0000961C ?_toString@basicString@@SAXPBUbStr@comDomains@@PAPB_W@Z 
01:0000967C ?_toBstr@basicString@@SAXPB_WAAUbStr@comDomains@@@Z 
01:00009694 ?release@basicString@@SAXPBUbStr@comDomains@@@Z 
--- From 'obj\exceptionHandling.2B4136FF.obj'
01:000096A4 ?_toStringAndRelease@basicString@@SAXPBUbStr@comDomains@@PAPB_W@Z 
--- From 'obj\comSupport.C599FD18.obj'
01:000096D0 comMemoryArray{@Type}?_initObject@@@QAGXQAV1@H@Z 
01:000096F8 ?@create_object@comMemoryArray@@SGQAV1@@XQAVrTypeLibrary@TypeLibraries@RunTime@VIP@@@Z 
01:0000971C comMemoryArray{@Type}?_InternalFinalizer@@@QAGXQAV1@@Z 
01:00009730 comInterface?_initObject@@@QAGXQAV1@H@Z 
01:00009748 ?@create_object@comInterface@@SGQAV1@@XZ 
01:00009764 comInterface?_InternalFinalizer@@@QAGXQAV1@@Z 
01:0000987C comDispInterface?_initObject@@@QAGXQAV1@H@Z 
01:000098B0 ?@create_object@comDispInterface@@SGQAV1@@XZ 
01:000098CC comDispInterface?_InternalFinalizer@@@QAGXQAV1@@Z 
--- From 'obj\guid.EF75E950.obj'
01:000098E0 ?_toNativeGuid@guid@@SAXPBU1core@@PAPAUnativeGuid_struct@3@@Z  (Idle)
01:00009978 ?_tryToNativeGuid@guid@@SAXPBU1core@@PAPAUnativeGuid_struct@3@@Z  (Idle)
01:000099A4 ?_toNativeGuid2@guid@@SAXPBU1core@@PAPAUnativeGuid_struct@3@AAUhResult@3@@Z 
--- From 'obj\exceptionHandling.2B4136FF.obj'
01:000099DC ?_fromNativeGuid@guid@@SAXPAUnativeGuid_struct@core@@AAU13@@Z 
--- From 'obj\guid.EF75E950.obj'
01:00009AC4 ?_create@guid@@SAXPAPAUnativeGuid_struct@core@@@Z  (Idle)
01:00009AF4 ?toNativeGuidStruct@guid@@SAXPAUnativeGuid_struct@core@@PAIPAIPAIPAI@Z  (Idle)
01:00009B24 ?_fromNativeGuidStruct@guid@@SAXIIIIPAPAUnativeGuid_struct@core@@@Z  (Idle)
01:00009B5C ?_copy@guid@@SAXPAUnativeGuid_struct@core@@PAPAU23@@Z  (Idle)
--- From 'obj\setM_redBlack.16EF8DC5.obj'
01:00009C10 ?new$@setM_redBlack@@SAXQAV1@@XQAVrTypeLibrary@TypeLibraries@RunTime@VIP@@@Z  (Idle)
01:00009C38 ?new$@setM_redBlack@@SAXQAV1@@XQAVrTypeLibrary@TypeLibraries@RunTime@VIP@@PAU?$__packedList_struct@X@@@Z  (Idle)
01:00009C58 ?newSingleton$@setM_redBlack@@SAXQAV1@@XQAVrTypeLibrary@TypeLibraries@RunTime@VIP@@X@Z  (Idle)
01:00009C78 ?newCustom$@setM_redBlack@@SAXQAV1@@XQAVrTypeLibrary@TypeLibraries@RunTime@VIP@@PA$?_comparator$1@core@@SAXXXPAPAUcompareResult_struct@_builtIn@@@Z$@Z  (Idle)
01:00009CA0 ?newInternal$@setM_redBlack@@SAXQAV1@@XQAVrTypeLibrary@TypeLibraries@RunTime@VIP@@PAUset_struct@redBlackSet@@X@Z 
01:00009CBC ?_clone$@setM_redBlack@@SAXQAVsetM@@@XPAPAV2@@PAX@Z 
01:00009CEC ?contains$@setM_redBlack@@SAXQAVcollection@@@XX@Z 
01:00009D1C ?_getAll_nd_site$@setM_redBlack@@SAXQAVcollectionSupportSite@@collectionSupport@@XPAX@Z 
01:00009D4C ?_upFrom_nd$@setM_redBlack@@SAXQAVset@@@XXPAX@Z 
01:00009D88 ?_downFrom_nd$@setM_redBlack@@SAXQAVset@@@XXPAX@Z 
01:00009DC4 ?clear$@setM_redBlack@@SAXQAVmodifiable@@@X@Z 
01:00009DF4 ?insert_site$@setM_redBlack@@SAXQAVmodifiableSupportSite@@collectionSupport@@XX@Z 
01:00009E28 ?remove_site$@setM_redBlack@@SAXQAVmodifiableSupportSite@@collectionSupport@@XX@Z 
--- From 'obj\list.A75CEA31.obj'
01:00009E5C ?_new@setM_redBlack@@SAXQAVrTypeLibrary@TypeLibraries@RunTime@VIP@@PAPAVsetM@@@PAX@Z 
--- From 'obj\setM_redBlack.16EF8DC5.obj'
01:00009E88 ?_new@setM_redBlack@@SAXQAVrTypeLibrary@TypeLibraries@RunTime@VIP@@PAU?$__packedList_struct@X@@PAPAVsetM@@@PAX@Z  (Idle)
01:00009EB8 ?_newSingleton@setM_redBlack@@SAXQAVrTypeLibrary@TypeLibraries@RunTime@VIP@@XPAPAVsetM@@@PAX@Z  (Idle)
--- From 'obj\list.A75CEA31.obj'
01:00009EE8 ?_newCustom@setM_redBlack@@SAXQAVrTypeLibrary@TypeLibraries@RunTime@VIP@@PA$?_comparator$1@core@@SAXXXPAPAUcompareResult_struct@_builtIn@@@Z$PAPAVsetM@@@PAX@Z 
--- From 'obj\setM_redBlack.16EF8DC5.obj'
01:00009F18 ?_newInternal@setM_redBlack@@SAXQAVrTypeLibrary@TypeLibraries@RunTime@VIP@@PAUset_struct@redBlackSet@@XPAPAVsetM@@@PAX@Z 
01:00009F48 ?_object_typelib_initializer$@setM_redBlack@@SGXQAV1@@XQAVrTypeLibrary@TypeLibraries@RunTime@VIP@@@Z 
01:0000A2A0 setM_redBlack{@Type}?_initObject@@@QAGXQAV1@H@Z 
01:0000A2E0 ?@create_object@setM_redBlack@@SGQAV1@@XQAVrTypeLibrary@TypeLibraries@RunTime@VIP@@@Z 
01:0000A304 setM_redBlack{@Type}?_InternalFinalizer@@@QAGXQAV1@@Z 
--- From 'obj\time.6AFD2988.obj'
01:0000A320 ?_parseTime@iso8601Parser@@SAXPB_WPAPAVtime@@@@Z 
--- From 'obj\iso8601Parser.F0F6BC83.obj'
01:0000A39C ?_tryParse@iso8601Parser@@SAXPB_WPAPAVtime@@@@Z 
01:0000A3C4 ?new$@iso8601Parser@@SAXQAV1@@PB_W@Z  (Idle)
01:0000A3DC ?_tryParse$@iso8601Parser@@SAXQAV1@@PAPAVtime@@@@Z 
01:0000A520 ?_tryDigits$@iso8601Parser@@SAXQAV1@@PBUpositive@core@@PAH@Z 
01:0000A53C ?_tryDigits2$@iso8601Parser@@SAXQAV1@@PBUpositive@core@@HPAH@Z 
01:0000A618 ?_second$@iso8601Parser@@SAXQAV1@@PAPAN@Z 
01:0000A738 ?_timezoneOffset$@iso8601Parser@@SAXQAV1@@PAH@Z 
01:0000A7FC ?_timezoneOffset2$@iso8601Parser@@SAXQAV1@@PAH@Z 
01:0000A87C ?optional$@iso8601Parser@@SAXQAV1@@_W@Z 
01:0000A8CC ?match$@iso8601Parser@@SAXQAV1@@_W@Z 
01:0000A8F0 ?next$@iso8601Parser@@SAXQAV1@@@Z 
01:0000A958 ?_new@iso8601Parser@@SAXPB_WPAPAV1@@@Z 
01:0000A988 iso8601Parser?_initObject@@@QAGXQAV1@H@Z 
01:0000A9A0 ?@create_object@iso8601Parser@@SGQAV1@@XZ 
01:0000A9BC iso8601Parser?_InternalFinalizer@@@QAGXQAV1@@Z 
--- From 'obj\srwLock.8CC714FD.obj'
01:0000A9D0 ?new$@criticalSectionSupport@@SAXQAV1@@QAVcriticalSectionSupportSite@@@@Z 
--- From 'obj\criticalSectionSupport.6958A988.obj'
01:0000A9E4 ?synchronize$@criticalSectionSupport@@SAXQAV1@@X@Z 
01:0000AA6C ?_synchronize$@criticalSectionSupport@@SAXQAV1@@QAVrTypeLibrary@TypeLibraries@RunTime@VIP@@PA$?_function$1@core@@SAXPAX@Z$PAX@Z 
01:0000AAF8 ?synchronize_dt$@criticalSectionSupport@@SAXQAV1@@X@Z 
01:0000ABAC ?_synchronize_dt$@criticalSectionSupport@@SAXQAV1@@QAVrTypeLibrary@TypeLibraries@RunTime@VIP@@PA$?_function_dt$1@core@@SAXPAX@Z$PAX@Z 
01:0000AC64 ?trySynchronize$@criticalSectionSupport@@SAXQAV1@@X@Z 
01:0000ACEC ?_new@criticalSectionSupport@@SAXQAVcriticalSectionSupportSite@@@PAPAV1@@@Z  (Idle)
--- From 'obj\srwLock.8CC714FD.obj'
01:0000AD1C criticalSectionSupport?_initObject@@@QAGXQAV1@H@Z 
--- From 'obj\criticalSectionSupport.6958A988.obj'
01:0000AD34 ?@create_object@criticalSectionSupport@@SGQAV1@@XZ 
--- From 'obj\srwLock.8CC714FD.obj'
01:0000AD50 criticalSectionSupport?_InternalFinalizer@@@QAGXQAV1@@Z 
--- From 'obj\binary.248EF86D.obj'
01:0000AD60 ?new$@outputStream_binary@@SAXQAV1@@@Z  (Idle)
01:0000AD88 ?setMode$@outputStream_binary@@SGXQAVstream@@@PAUmode_struct@2@@Z 
01:0000ADC0 ?_getInputStream$@outputStream_binary@@SAXQAVoutputStreamSegmented@@@XPAPAVinputStream@@@@Z 
01:0000ADE8 ?_getBinary$@outputStream_binary@@SAXQAV1@@QAPAE@Z 
01:0000AE40 ?_getMemory$@outputStream_binary@@SAXQAV1@@PAPAX@Z 
--- From 'obj\fileSystem.5B0F823E.obj'
01:0000AE64 ?_new@outputStream_binary@@SAXPAPAV1@@@Z 
--- From 'obj\binary.248EF86D.obj'
01:0000AE8C ?new$@inputStream_binary@@SAXQAV1@@QAE@Z  (Idle)
01:0000AEB4 ?new_pointer$@inputStream_binary@@SAXQAV1@@PAXPBUbyteCount@core@@@Z  (Idle)
01:0000AEDC ?new_segmented$@inputStream_binary@@SAXQAV1@@PAUsegmented_struct@segmented@@QAE@Z 
01:0000AF4C ?setMode$@inputStream_binary@@SGXQAVstream@@@PAUmode_struct@2@@Z 
01:0000AF84 ?close$@inputStream_binary@@SGXQAVstream@@@@Z 
01:0000AF94 ?getPosition$@inputStream_binary@@SGPBUfileSize@fileSystem_api@@QAVstream@@@@Z 
01:0000AFEC ?setPosition$@inputStream_binary@@SGXQAVstream@@@PBUfileSize@fileSystem_api@@@Z 
01:0000B05C ?getBuffer$@inputStream_binary@@SGXQAVbufferSupport@@@PAPAXAAUbyteCount@core@@@Z 
01:0000B078 ?getBufferLocked$@inputStream_binary@@SGXQAVbufferSupport@@@PAPAXAAUbyteCount@core@@@Z 
01:0000B0F4 ?getCRLFconversion$@inputStream_binary@@SGPAUboolean_struct@_builtIn@@QAVstream@@@@Z 
01:0000B0FC ?setCRLFconversion$@inputStream_binary@@SGXQAVstream@@@PAUboolean_struct@_builtIn@@@Z 
01:0000B124 ?_new@inputStream_binary@@SAXQAEPAPAVinputStream@@@@Z  (Idle)
01:0000B14C ?_new_pointer@inputStream_binary@@SAXPAXPBUbyteCount@core@@PAPAVinputStream@@@@Z  (Idle)
--- From 'obj\segmented_binary.C16992E7.obj'
01:0000B178 ?_new_segmented@inputStream_binary@@SAXPAUsegmented_struct@3@QAEPAPAVinputStream@@@@Z 
--- From 'obj\binary.248EF86D.obj'
01:0000B1A0 ?_object_facts_initializer$@inputStream_binary@@SGXQAV1@@@Z 
01:0000B1B4 ?raise_invalidCompressionFormat_explicit@binary_exception@@SAXPAUprogramPoint_struct@core@@QAE@Z  (Idle)
01:0000B228 ?raise_internalDecodeError_explicit@binary_exception@@SAXPAUprogramPoint_struct@core@@QAE@Z  (Idle)
01:0000B29C ?raise_wrongBinaryFormat_explicit@binary_exception@@SAXPAUprogramPoint_struct@core@@QAE@Z  (Idle)
01:0000B310 ?raise_wrongBinaryFormatNonAtomic_explicit@binary_exception@@SAXPAUprogramPoint_struct@core@@PBUbinaryNonAtomic@_builtIn@@@Z  (Idle)
--- From 'obj\registry_api.CF388C66.obj'
01:0000B384 binary$mkBinary2 
--- From 'obj\binary.248EF86D.obj'
01:0000B3F0 binary$mkBinary_string  (Idle)
01:0000B434 binary$mkBinary_string8  (Idle)
01:0000B468 ?_mkBinary_utf8@binary@@SAXPB_WQAPAE@Z  (Idle)
01:0000B48C binary$fromBinary_string  (Idle)
01:0000B4C0 binary$fromBinary_string8  (Idle)
01:0000B4F4 ?_fromBinary_utf8@binary@@SAXQAEPAPB_W@Z  (Idle)
01:0000B4FC ?_createNonAtomic@binary@@SAXPBUbyteCount@core@@AAUbinaryNonAtomic@_builtIn@@@Z  (Idle)
--- From 'obj\fileSystem.5B0F823E.obj'
01:0000B528 ?_createAtomic@binary@@SAXPBUbyteCount@core@@QAPAE@Z 
--- From 'obj\binary.248EF86D.obj'
01:0000B554 ?_createBinary@binary@@SAXPBUbyteCount@core@@PA$?_function$3@3@SAXPBU21@PBUcontext@memory@@PAPAX@Z$PBU45@PAPAX@Z 
01:0000B5E8 ?_createNonAtomic@binary@@SAXPBUpositive@core@@PBUbyteCount@3@AAUbinaryNonAtomic@_builtIn@@@Z  (Idle)
01:0000B608 ?_createAtomic@binary@@SAXPBUpositive@core@@PBUbyteCount@3@QAPAE@Z  (Idle)
01:0000B628 ?_createCopyNonAtomic@binary@@SAXPBUbinaryNonAtomic@_builtIn@@AAU23@@Z  (Idle)
01:0000B65C ?_createCopyAtomic@binary@@SAXQAEQAPAE@Z  (Idle)
01:0000B690 ?_createNonAtomicFromPointer@binary@@SAXPAXPBUbyteCount@core@@AAUbinaryNonAtomic@_builtIn@@@Z 
--- From 'obj\vpiDomains.E7102A6D.obj'
01:0000B6C0 ?_createAtomicFromPointer@binary@@SAXPAXPBUbyteCount@core@@QAPAE@Z 
--- From 'obj\binary.248EF86D.obj'
01:0000B6F0 ?_createAtomicFromIntegerList@binary@@SAXPAU?$__packedList_struct@H@@QAPAE@Z  (Idle)
01:0000B744 ?_getSize@binary@@SAXQAEAAUbyteCount@core@@@Z  (Idle)
01:0000B758 ?_resizeNonAtomic@binary@@SAXPBUbinaryNonAtomic@_builtIn@@PBUbyteCount@core@@AAU23@@Z  (Idle)
01:0000B7AC ?_resizeAtomic@binary@@SAXQAEPBUbyteCount@core@@QAPAE@Z  (Idle)
01:0000B800 ?fillResized@binary@@SAXPAXPBUbyteCount@core@@PAX1@Z 
01:0000B834 ?_concatNonAtomic@binary@@SAXPBUbinaryNonAtomic@_builtIn@@0AAU23@@Z  (Idle)
--- From 'obj\segmented_binary.C16992E7.obj'
01:0000B8B4 ?_concatAtomic@binary@@SAXQAEQAEQAPAE@Z 
--- From 'obj\binary.248EF86D.obj'
01:0000B934 ?fillConcat@binary@@SAXPAXPAXPBUbyteCount@core@@PAX2@Z 
01:0000B964 ?_insertAtomic@binary@@SAXQAEPBUbyteCount@core@@QAEQAPAE@Z  (Idle)
01:0000BA10 ?_insertNonAtomic@binary@@SAXPBUbinaryNonAtomic@_builtIn@@PBUbyteCount@core@@QAEAAU23@@Z  (Idle)
01:0000BABC ?_deleteAtomic@binary@@SAXQAEPBUbyteCount@core@@1QAPAE@Z  (Idle)
01:0000BB30 ?_deleteNonAtomic@binary@@SAXPBUbinaryNonAtomic@_builtIn@@PBUbyteCount@core@@1AAU23@@Z  (Idle)
01:0000BBA4 ?_getIndexed_unsigned8@binary@@SAXQAEPBUpositive@core@@AAU43@@Z  (Idle)
--- From 'obj\fileSystem.5B0F823E.obj'
01:0000BBD0 ?_getIndexed_unsigned16@binary@@SAXQAEPBUpositive@core@@AAU43@@Z 
--- From 'obj\binary.248EF86D.obj'
01:0000BC00 ?_getIndexed_unsigned64@binary@@SAXQAEPBUpositive@core@@PAPA_K@Z  (Idle)
01:0000BC38 ?_getIndexed_integer8@binary@@SAXQAEPBUpositive@core@@AAU43@@Z  (Idle)
01:0000BC64 ?_getIndexed_integer16@binary@@SAXQAEPBUpositive@core@@AAU43@@Z  (Idle)
01:0000BC94 ?_getIndexed_integer64@binary@@SAXQAEPBUpositive@core@@PAPA_J@Z  (Idle)
--- From 'obj\exception.B6F320E8.obj'
01:0000BCCC ?_getIndexed_unsignedNative@binary@@SAXQAEPBUpositive@core@@AAU4_builtIn@@@Z 
--- From 'obj\binary.248EF86D.obj'
01:0000BCF8 ?_getIndexed_unsigned@binary@@SAXQAEPBUpositive@core@@PAI@Z  (Idle)
01:0000BD24 ?_getIndexed_integerNative@binary@@SAXQAEPBUpositive@core@@AAU4_builtIn@@@Z  (Idle)
01:0000BD50 ?_getIndexed_integer@binary@@SAXQAEPBUpositive@core@@PAH@Z  (Idle)
01:0000BD7C ?_getIndexed_real32@binary@@SAXQAEPBUpositive@core@@PAM@Z  (Idle)
01:0000BDAC ?_getIndexed_real@binary@@SAXQAEPBUpositive@core@@PAPAN@Z  (Idle)
01:0000BDE4 ?_getIndexed_pointer@binary@@SAXPBUbinaryNonAtomic@_builtIn@@PBUpositive@core@@PAPAX@Z  (Idle)
01:0000BE10 ?_getIndexed_object@binary@@SAXPBUbinaryNonAtomic@_builtIn@@PBUpositive@core@@PAPAV6@@@Z  (Idle)
01:0000BE34 ?_getIndexed_string@binary@@SAXPBUbinaryNonAtomic@_builtIn@@PBUpositive@core@@PAPB_W@Z  (Idle)
01:0000BE58 ?setIndexed_unsigned8@binary@@SAXQAEPBUpositive@core@@PBU43@@Z  (Idle)
01:0000BE84 ?setIndexed_unsigned16@binary@@SAXQAEPBUpositive@core@@PBU43@@Z  (Idle)
01:0000BEB4 ?setIndexed_unsigned64@binary@@SAXQAEPBUpositive@core@@PA_K@Z  (Idle)
01:0000BEE4 ?setIndexed_integer8@binary@@SAXQAEPBUpositive@core@@PBU43@@Z  (Idle)
01:0000BF10 ?setIndexed_integer16@binary@@SAXQAEPBUpositive@core@@PBU43@@Z  (Idle)
01:0000BF40 ?setIndexed_integer64@binary@@SAXQAEPBUpositive@core@@PA_J@Z  (Idle)
01:0000BF70 ?setIndexed_integerNative@binary@@SAXQAEPBUpositive@core@@PBU4_builtIn@@@Z  (Idle)
01:0000BF9C ?setIndexed_integer@binary@@SAXQAEPBUpositive@core@@H@Z  (Idle)
01:0000BFC8 ?setIndexed_unsignedNative@binary@@SAXQAEPBUpositive@core@@PBU4_builtIn@@@Z  (Idle)
01:0000BFF4 ?setIndexed_unsigned@binary@@SAXQAEPBUpositive@core@@I@Z  (Idle)
01:0000C020 ?setIndexed_real32@binary@@SAXQAEPBUpositive@core@@M@Z  (Idle)
01:0000C064 ?setIndexed_real@binary@@SAXQAEPBUpositive@core@@PAN@Z  (Idle)
01:0000C09C ?setIndexed_pointer@binary@@SAXPBUbinaryNonAtomic@_builtIn@@PBUpositive@core@@PAX@Z  (Idle)
01:0000C0C8 ?setIndexed_object@binary@@SAXPBUbinaryNonAtomic@_builtIn@@PBUpositive@core@@QAV6@@@Z  (Idle)
01:0000C0D8 ?setIndexed_string@binary@@SAXPBUbinaryNonAtomic@_builtIn@@PBUpositive@core@@PB_W@Z  (Idle)
01:0000C0E8 ?_getIndexPointer@binary@@SAXQAEPBUpositive@core@@PBUbyteCount@3@PAPAX@Z 
01:0000C128 ?_getBinaryNonAtomic@binary@@SAXPBUbinaryNonAtomic@_builtIn@@PBUbyteCount@core@@1AAU23@@Z  (Idle)
--- From 'obj\segmented_binary.C16992E7.obj'
01:0000C19C ?_getBinaryAtomic@binary@@SAXQAEPBUbyteCount@core@@1QAPAE@Z 
--- From 'obj\binary.248EF86D.obj'
01:0000C210 ?setBinary@binary@@SAXQAEPBUbyteCount@core@@QAE@Z  (Idle)
01:0000C278 ?setValue@binary@@SAXQAEPBUbyteCount@core@@PAUvalue_struct@3@@Z  (Idle)
01:0000C7FC $getValue$binary_class$predicate$(i,i,unsigned64(o))$b$_c99  (Idle)
01:0000C854 ?_getString@binary@@SAXPAXPBUcharCount@core@@PAPB_W@Z  (Idle)
01:0000C94C ?checkOffsetForSetGetValue@binary@@SAXQAEPBUbyteCount@core@@1@Z 
01:0000C97C ?fillFromIntegerList@binary@@SAXPAXPAU?$__packedList_struct@H@@@Z 
01:0000C9CC ?copyTailIfNeeded@binary@@SAXQAEPBUbyteCount@core@@1QAE1@Z 
01:0000CA30 ?splitBinaryNonAtomic@binary@@SAXPBUbinaryNonAtomic@_builtIn@@PBUbyteCount@core@@AAU23@2@Z  (Idle)
01:0000CA68 ?splitBinaryAtomic@binary@@SAXQAEPBUbyteCount@core@@QAPAE2@Z  (Idle)
01:0000CAA0 ?_binaryToStringList@binary@@SAXQAEPAPAU?$__packedList_struct@PAPB_W@@@Z  (Idle)
01:0000CAD0 ?_getStringList@binary@@SAXPAXPBUbyteCount@core@@PAPAU?$__packedList_struct@PAPB_W@@@Z 
01:0000CC2C ?_search@binary@@SAXQAEQAEAAUbyteCount@core@@@Z  (Idle)
01:0000CC60 ?_binary8ToStringList@binary@@SAXQAEPBUcodePage@core@@PAPAU?$__packedList_struct@PAPB_W@@@Z  (Idle)
01:0000CC98 ?_getStringListForBinary8@binary@@SAXPAXPBUbyteCount@core@@PBUcodePage@3@PAPAU?$__packedList_struct@PAPB_W@@@Z 
01:0000CDD8 binaryIsAtomicExpectedNonAtomic 
01:0000CE04 doNothing 
01:0000CE0C ?_getSize@binary@@SAXPBUbinaryNonAtomic@_builtIn@@AAUbyteCount@core@@@Z  (Idle)
01:0000CE20 ?_insertNonAtomic@binary@@SAXPBUbinaryNonAtomic@_builtIn@@PBUbyteCount@core@@0AAU23@@Z  (Idle)
01:0000CECC ?_getIndexed_unsigned8@binary@@SAXPBUbinaryNonAtomic@_builtIn@@PBUpositive@core@@AAU65@@Z  (Idle)
01:0000CEF8 ?_getIndexed_unsigned16@binary@@SAXPBUbinaryNonAtomic@_builtIn@@PBUpositive@core@@AAU65@@Z  (Idle)
01:0000CF28 ?_getIndexed_unsigned64@binary@@SAXPBUbinaryNonAtomic@_builtIn@@PBUpositive@core@@PAPA_K@Z  (Idle)
01:0000CF60 ?_getIndexed_integer8@binary@@SAXPBUbinaryNonAtomic@_builtIn@@PBUpositive@core@@AAU65@@Z  (Idle)
01:0000CF8C ?_getIndexed_integer16@binary@@SAXPBUbinaryNonAtomic@_builtIn@@PBUpositive@core@@AAU65@@Z  (Idle)
01:0000CFBC ?_getIndexed_integer64@binary@@SAXPBUbinaryNonAtomic@_builtIn@@PBUpositive@core@@PAPA_J@Z  (Idle)
01:0000CFF4 ?_getIndexed_unsignedNative@binary@@SAXPBUbinaryNonAtomic@_builtIn@@PBUpositive@core@@AAU63@@Z  (Idle)
01:0000D020 ?_getIndexed_unsigned@binary@@SAXPBUbinaryNonAtomic@_builtIn@@PBUpositive@core@@PAI@Z  (Idle)
01:0000D04C ?_getIndexed_integerNative@binary@@SAXPBUbinaryNonAtomic@_builtIn@@PBUpositive@core@@AAU63@@Z  (Idle)
01:0000D078 ?_getIndexed_integer@binary@@SAXPBUbinaryNonAtomic@_builtIn@@PBUpositive@core@@PAH@Z  (Idle)
01:0000D0A4 ?_getIndexed_real32@binary@@SAXPBUbinaryNonAtomic@_builtIn@@PBUpositive@core@@PAM@Z  (Idle)
01:0000D0D4 ?_getIndexed_real@binary@@SAXPBUbinaryNonAtomic@_builtIn@@PBUpositive@core@@PAPAN@Z  (Idle)
01:0000D10C ?setIndexed_unsigned8@binary@@SAXPBUbinaryNonAtomic@_builtIn@@PBUpositive@core@@PBU65@@Z  (Idle)
01:0000D138 ?setIndexed_unsigned16@binary@@SAXPBUbinaryNonAtomic@_builtIn@@PBUpositive@core@@PBU65@@Z  (Idle)
01:0000D168 ?setIndexed_unsigned64@binary@@SAXPBUbinaryNonAtomic@_builtIn@@PBUpositive@core@@PA_K@Z  (Idle)
01:0000D198 ?setIndexed_integer8@binary@@SAXPBUbinaryNonAtomic@_builtIn@@PBUpositive@core@@PBU65@@Z  (Idle)
01:0000D1C4 ?setIndexed_integer16@binary@@SAXPBUbinaryNonAtomic@_builtIn@@PBUpositive@core@@PBU65@@Z  (Idle)
01:0000D1F4 ?setIndexed_integer64@binary@@SAXPBUbinaryNonAtomic@_builtIn@@PBUpositive@core@@PA_J@Z  (Idle)
01:0000D224 ?setIndexed_integerNative@binary@@SAXPBUbinaryNonAtomic@_builtIn@@PBUpositive@core@@PBU63@@Z  (Idle)
01:0000D250 ?setIndexed_integer@binary@@SAXPBUbinaryNonAtomic@_builtIn@@PBUpositive@core@@H@Z  (Idle)
01:0000D27C ?setIndexed_unsignedNative@binary@@SAXPBUbinaryNonAtomic@_builtIn@@PBUpositive@core@@PBU63@@Z  (Idle)
01:0000D2A8 ?setIndexed_unsigned@binary@@SAXPBUbinaryNonAtomic@_builtIn@@PBUpositive@core@@I@Z  (Idle)
01:0000D2D4 ?setIndexed_real32@binary@@SAXPBUbinaryNonAtomic@_builtIn@@PBUpositive@core@@M@Z  (Idle)
01:0000D318 ?setIndexed_real@binary@@SAXPBUbinaryNonAtomic@_builtIn@@PBUpositive@core@@PAN@Z  (Idle)
01:0000D350 ?_getIndexPointer@binary@@SAXPBUbinaryNonAtomic@_builtIn@@PBUpositive@core@@PBUbyteCount@5@PAPAX@Z 
01:0000D390 ?setBinary@binary@@SAXPBUbinaryNonAtomic@_builtIn@@PBUbyteCount@core@@QAE@Z  (Idle)
01:0000D3F8 ?setBinary@binary@@SAXPBUbinaryNonAtomic@_builtIn@@PBUbyteCount@core@@0@Z  (Idle)
01:0000D460 ?setValue@binary@@SAXPBUbinaryNonAtomic@_builtIn@@PBUbyteCount@core@@PAUvalue_struct@5@@Z  (Idle)
01:0000D9E4 $getValue$binary_class$predicate$(i,i,unsigned(o))$b$_c100  (Idle)
01:0000DA28 $getValue$binary_class$predicate$(i,i,integer64(o))$b$_c101  (Idle)
01:0000DA80 $getValue$binary_class$predicate$(i,i,integer(o))$b$_c102  (Idle)
01:0000DAC4 $getValue$binary_class$predicate$(i,i,real(o))$b$_c103  (Idle)
01:0000DB1C $getValue$binary_class$predicate$(i,i,char(o))$b$_c104  (Idle)
01:0000DB64 $getValue$binary_class$predicate$(i,i,string(o))$b$_c105  (Idle)
01:0000DBC8 $getValue$binary_class$predicate$(i,i,localtimevalue(o))$b$_c106  (Idle)
01:0000DC20 $getValue$binary_class$predicate$(i,i,gmttimevalue(o))$b$_c107  (Idle)
01:0000DC78 $getValue$binary_class$predicate$(i,i,unsigned64(o))$b$_c108  (Idle)
01:0000DCD0 $getValue$binary_class$predicate$(i,i,unsigned(o))$b$_c109  (Idle)
01:0000DD14 $getValue$binary_class$predicate$(i,i,integer64(o))$b$_c110  (Idle)
01:0000DD6C $getValue$binary_class$predicate$(i,i,integer(o))$b$_c111  (Idle)
01:0000DDB0 $getValue$binary_class$predicate$(i,i,real(o))$b$_c112  (Idle)
01:0000DE08 $getValue$binary_class$predicate$(i,i,pointer(o))$b$_c113  (Idle)
01:0000DE4C $getValue$binary_class$predicate$(i,i,object(o))$b$_c114  (Idle)
01:0000DE90 $getValue$binary_class$predicate$(i,i,char(o))$b$_c115  (Idle)
01:0000DED8 $getValue$binary_class$predicate$(i,i,string(o))$b$_c116  (Idle)
01:0000DF3C $getValue$binary_class$predicate$(i,i,localtimevalue(o))$b$_c117  (Idle)
01:0000DF94 $getValue$binary_class$predicate$(i,i,gmttimevalue(o))$b$_c118  (Idle)
01:0000DFEC ?checkOffsetForSetGetValue@binary@@SAXPBUbinaryNonAtomic@_builtIn@@PBUbyteCount@core@@1@Z 
01:0000E01C ?copyTailIfNeeded@binary@@SAXPBUbinaryNonAtomic@_builtIn@@PBUbyteCount@core@@101@Z 
01:0000E4C4 outputStream_binary?_initObject@@@QAGXQAV1@H@Z 
01:0000E4F4 ?@create_object@outputStream_binary@@SGQAV1@@XZ 
01:0000E510 outputStream_binary?_InternalFinalizer@@@QAGXQAV1@@Z 
01:0000E7BC inputStream_binary?_initObject@@@QAGXQAV1@H@Z 
01:0000E7F4 ?@create_object@inputStream_binary@@SGQAV1@@XZ 
01:0000E810 inputStream_binary?_InternalFinalizer@@@QAGXQAV1@@Z 
--- From 'obj\multiThread.32507C62.obj'
01:0000E820 ?create$@waitableTimer@@SAXQAV1@@PAUboolean_struct@_builtIn@@@Z  (Idle)
01:0000E83C ?createNamed$@waitableTimer@@SAXQAV1@@PB_WPAUboolean_struct@_builtIn@@@Z 
01:0000E86C ?openTimer$@waitableTimer@@SAXQAV1@@PB_W@Z  (Idle)
01:0000E89C ?setTimer$@waitableTimer@@SAXQAV1@@PAPBUdurationValue@core@@HPAUboolean_struct@_builtIn@@@Z 
01:0000E8B4 ?setTimer$@waitableTimer@@SAXQAV1@@PAPBUdurationValue@core@@HXPAXPAUboolean_struct@_builtIn@@@Z 
01:0000E8CC ?freeze$@waitableTimer@@SAXQAV1@@@Z 
01:0000E8E4 ?_create@waitableTimer@@SAXPAUboolean_struct@_builtIn@@PAPAV1@@@Z  (Idle)
01:0000E90C ?_createNamed@waitableTimer@@SAXPB_WPAUboolean_struct@_builtIn@@PAPAV1@@@Z  (Idle)
01:0000E938 ?_openTimer@waitableTimer@@SAXPB_WPAPAV1@@@Z  (Idle)
01:0000E960 ?start_explicit$@thread@@SAXQAV1@@PAUprogramPoint_struct@core@@XPBUbyteCount@4@PAUrunMode_struct@exe_api@@@Z  (Idle)
01:0000E974 ?createSuspended_explicit$@thread@@SAXQAV1@@PAUprogramPoint_struct@core@@XPBUbyteCount@4@PAUrunMode_struct@exe_api@@@Z  (Idle)
01:0000E98C ?create$@thread@@SAXQAV1@@PAUprogramPoint_struct@core@@XPBUbyteCount@4@PAUrunMode_struct@exe_api@@I@Z 
01:0000EB78 ?threadEntry@thread@@SGIPAX@Z 
01:0000ED1C ?attach$@thread@@SAXQAV1@@PBUthreadHandle@multiThread_native@@PBUthreadId@4@@Z  (Idle)
01:0000ED38 ?priority@thread@@SGPBUthreadPriority@multiThread_native@@QAV1@@@Z 
01:0000ED78 ?priority@thread@@SGXQAV1@@PBUthreadPriority@multiThread_native@@@Z 
01:0000EDB8 ?_suspend$@thread@@SAXQAV1@@PAI@Z 
01:0000EDF0 ?_resume$@thread@@SAXQAV1@@PAI@Z 
01:0000EE28 ?isActive$@thread@@SAXQAV1@@@Z 
01:0000EE54 ?exitCode@thread@@SGIQAV1@@@Z 
01:0000EE98 ?terminate$@thread@@SAXQAV1@@I@Z 
01:0000EED0 ?getTimes$@thread@@SAXQAV1@@PAAAUgmtTimeValue@core@@111@Z 
01:0000EF64 ?assertKeepAlive@thread@@SAXPAUthreadEntryParam_struct@1@@Z 
01:0000EF84 ?retractKeepAlive@thread@@SAXPAUthreadEntryParam_struct@1@@Z 
01:0000F078 ?raise_$@thread@@SAXQAV1@@PB_W@Z 
01:0000F0F0 ?setThreadName@thread@@SAXPB_W@Z  (Idle)
01:0000F108 ?setThreadName@thread@@SAXPB_WPBUthreadID@multiThread_native@@@Z 
01:0000F190 ?threadName@thread@@SGXQAV1@@PB_W@Z 
01:0000F1D4 ?threadName@thread@@SGPB_WQAV1@@@Z 
01:0000F1E0 ?_start_explicit@thread@@SAXPAUprogramPoint_struct@core@@XPBUbyteCount@3@PAUrunMode_struct@exe_api@@PAPAV1@@@Z  (Idle)
01:0000F214 ?_createSuspended_explicit@thread@@SAXPAUprogramPoint_struct@core@@XPBUbyteCount@3@PAUrunMode_struct@exe_api@@PAPAV1@@@Z  (Idle)
01:0000F248 ?_attach@thread@@SAXPBUthreadHandle@multiThread_native@@PBUthreadId@3@PAPAV1@@@Z  (Idle)
01:0000F274 ?_object_facts_initializer$@thread@@SGXQAV1@@@Z 
01:0000F290 ?threadId@thread@@SGPBUthreadID@multiThread_native@@QAV1@@@Z 
01:0000F29C ?codeForExit@thread@@SGXQAV1@@I@Z 
01:0000F2AC ?codeForExit@thread@@SGIQAV1@@@Z 
01:0000F2B8 ?new$@syncObject@@SAXQAV1@@PBUsyncHandle@windowsAPI@@PAUboolean_struct@_builtIn@@@Z 
01:0000F2F4 ?wait$@syncObject@@SAXQAV1@@@Z 
01:0000F328 ?_wait$@syncObject@@SAXQAV1@@IPAI@Z 
01:0000F3F0 ?tryWait$@syncObject@@SAXQAV1@@I@Z 
01:0000F41C ?isSet$@syncObject@@SAXQAV1@@@Z 
01:0000F448 ?_waitAll@syncObject@@SAXPAU?$__packedList_struct@QAV1@@@@IPAI@Z  (Idle)
01:0000F470 ?_waitAny@syncObject@@SAXPAU?$__packedList_struct@QAV1@@@@IPAI@Z  (Idle)
01:0000F498 ?close$@syncObject@@SAXQAV1@@@Z 
01:0000F4B8 ?finalize$@syncObject@@SGXQAV1@@@Z 
01:0000F4E4 ?_waitArray_inner@syncObject@@SAXQAVarrayM_inline@@@PBUsyncHandle@windowsAPI@@PBUbooleanInt@core@@IPAI@Z  (Idle)
01:0000F6A0 ?_waitArray@syncObject@@SAXQAVarrayM_inline@@@PBUsyncHandle@windowsAPI@@PAUboolean_struct@_builtIn@@IPAI@Z  (Idle)
01:0000F6C8 ?_makeHandleArray@syncObject@@SAXPAU?$__packedList_struct@QAV1@@@@PAPAVarrayM_inline@@@AAUsyncHandle@windowsAPI@@@Z  (Idle)
01:0000F744 ?_waitList@syncObject@@SAXPAU?$__packedList_struct@QAV1@@@@PBUbooleanInt@core@@IPAI@Z 
01:0000F76C ?copyHandles@syncObject@@SAXPAU?$__packedList_struct@QAV1@@@@PAX@Z 
01:0000F7D8 ?_new@syncObject@@SAXPBUsyncHandle@windowsAPI@@PAUboolean_struct@_builtIn@@PAPAV1@@@Z  (Idle)
01:0000F804 ?handle@syncObject@@SGPBUsyncHandle@windowsAPI@@QAV1@@@Z 
01:0000F810 ?create$@semaphore@@SAXQAV1@@II@Z  (Idle)
01:0000F838 ?createNamed$@semaphore@@SAXQAV1@@PB_WII@Z 
01:0000F86C ?openSemaphore$@semaphore@@SAXQAV1@@PB_W@Z  (Idle)
01:0000F89C ?_release$@semaphore@@SAXQAV1@@IPAI@Z 
01:0000F8B4 ?_create@semaphore@@SAXIIPAPAV1@@@Z  (Idle)
01:0000F8E0 ?_createNamed@semaphore@@SAXPB_WIIPAPAV1@@@Z  (Idle)
01:0000F910 ?_openSemaphore@semaphore@@SAXPB_WPAPAV1@@@Z  (Idle)
01:0000F938 ?create$@mutex@@SAXQAV1@@PAUboolean_struct@_builtIn@@@Z  (Idle)
01:0000F980 ?createNamed$@mutex@@SAXQAV1@@PB_W@Z  (Idle)
01:0000F9C8 ?enter$@mutex@@SAXQAVcriticalSection@@@@Z 
01:0000F9D0 ?tryEnter$@mutex@@SAXQAVcriticalSection@@@@Z 
01:0000F9E4 ?leave$@mutex@@SAXQAVcriticalSection@@@@Z 
01:0000F9FC ?release$@mutex@@SAXQAV1@@@Z 
01:0000FA14 ?_create@mutex@@SAXPAUboolean_struct@_builtIn@@PAPAV1@@@Z  (Idle)
01:0000FA3C ?_createNamed@mutex@@SAXPB_WPAPAV1@@@Z  (Idle)
01:0000FA64 ?create$@event@@SAXQAV1@@PAUboolean_struct@_builtIn@@1@Z  (Idle)
01:0000FA8C ?createNamed$@event@@SAXQAV1@@PB_WPAUboolean_struct@_builtIn@@2@Z 
01:0000FAC0 ?createOrOpenNamed$@event@@SAXQAV1@@PB_WPAUboolean_struct@_builtIn@@2@Z  (Idle)
01:0000FAF4 ?openEvent$@event@@SAXQAV1@@PB_WI@Z  (Idle)
01:0000FB24 ?createByHandle$@event@@SAXQAV1@@PBUsyncHandle@windowsAPI@@@Z  (Idle)
01:0000FB3C ?setSignaled$@event@@SAXQAV1@@PAUboolean_struct@_builtIn@@@Z 
01:0000FB70 ?pulse$@event@@SAXQAV1@@@Z 
01:0000FB88 ?_tryOpenEvent@event@@SAXPB_WIPAPAV1@@@Z  (Idle)
01:0000FC54 ?_create@event@@SAXPAUboolean_struct@_builtIn@@0PAPAV1@@@Z  (Idle)
01:0000FC80 ?_createNamed@event@@SAXPB_WPAUboolean_struct@_builtIn@@1PAPAV1@@@Z  (Idle)
01:0000FCB0 ?_createOrOpenNamed@event@@SAXPB_WPAUboolean_struct@_builtIn@@1PAPAV1@@@Z  (Idle)
01:0000FCE0 ?_openEvent@event@@SAXPB_WIPAPAV1@@@Z  (Idle)
01:0000FD0C ?_createByHandle@event@@SAXPBUsyncHandle@windowsAPI@@PAPAV1@@@Z 
01:0000FD34 ?new$@criticalSection@@SAXQAV1@@I@Z  (Idle)
01:0000FD94 ?enter$@criticalSection@@SAXQAV1@@@Z 
01:0000FDA8 ?tryEnter$@criticalSection@@SAXQAV1@@@Z 
01:0000FDC8 ?leave$@criticalSection@@SAXQAV1@@@Z 
01:0000FDDC ?close$@criticalSection@@SAXQAV1@@@Z 
01:0000FE4C ?finalize$@criticalSection@@SGXQAV1@@@Z 
--- From 'obj\exception.B6F320E8.obj'
01:0000FE68 ?_new@criticalSection@@SAXIPAPAV1@@@Z 
--- From 'obj\multiThread.32507C62.obj'
01:0000FE90 ?create$@consoleSync@@SAXQAV1@@@Z  (Idle)
01:0000FEFC ?_create@consoleSync@@SAXPAPAVsyncObject@@@@Z  (Idle)
01:0000FFBC waitableTimer?_initObject@@@QAGXQAV1@H@Z 
01:0000FFEC ?@create_object@waitableTimer@@SGQAV1@@XZ 
01:00010008 waitableTimer?_InternalFinalizer@@@QAGXQAV1@@Z 
01:00010110 thread?_initObject@@@QAGXQAV1@H@Z 
01:00010150 ?@create_object@thread@@SGQAV1@@XZ 
01:0001016C thread?_InternalFinalizer@@@QAGXQAV1@@Z 
01:00010194 syncObject?_initObject@@@QAGXQAV1@H@Z 
01:000101AC ?@create_object@syncObject@@SGQAV1@@XZ 
01:000101C8 syncObject?_InternalFinalizer@@@QAGXQAV1@@Z 
01:000102B0 semaphore?_initObject@@@QAGXQAV1@H@Z 
01:000102E0 ?@create_object@semaphore@@SGQAV1@@XZ 
01:000102FC semaphore?_InternalFinalizer@@@QAGXQAV1@@Z 
01:00010528 mutex?_initObject@@@QAGXQAV1@H@Z 
01:0001056C ?@create_object@mutex@@SGQAV1@@XZ 
01:00010588 mutex?_InternalFinalizer@@@QAGXQAV1@@Z 
01:00010638 event?_initObject@@@QAGXQAV1@H@Z 
01:00010668 ?@create_object@event@@SGQAV1@@XZ 
01:00010684 event?_InternalFinalizer@@@QAGXQAV1@@Z 
01:00010790 criticalSection?_initObject@@@QAGXQAV1@H@Z 
01:000107BC ?@create_object@criticalSection@@SGQAV1@@XZ 
01:000107D8 criticalSection?_InternalFinalizer@@@QAGXQAV1@@Z 
01:000108B8 consoleSync?_initObject@@@QAGXQAV1@H@Z 
01:000108E8 ?@create_object@consoleSync@@SGQAV1@@XZ 
01:00010904 consoleSync?_InternalFinalizer@@@QAGXQAV1@@Z 
--- From 'obj\arrayM_inline.F665267A.obj'
01:00010920 ?newU$@arrayM_inline@@SAXQAV1@@XQAVrTypeLibrary@TypeLibraries@RunTime@VIP@@I@Z  (Idle)
01:00010934 ?new$@arrayM_inline@@SAXQAV1@@XQAVrTypeLibrary@TypeLibraries@RunTime@VIP@@PBUpositive@core@@@Z 
01:00010E68 ?isInlineAtomicFunctor@arrayM_inline@@SAXQAVtypeLibrary@@reflection@pfc@@@Z 
01:000110C8 ?_atLocation_explicit$@arrayM_inline@@SAXQAV1@@XPAUprogramPoint_struct@core@@PBUpositive@4@PAPAX@Z  (Idle)
01:0001111C ?_tryAtLocation$@arrayM_inline@@SAXQAV1@@XPBUpositive@core@@PAPAX@Z  (Idle)
01:00011160 ?setInline$@arrayM_inline@@SAXQAV1@@XPAXX@Z 
01:0001117C ?_getInline$@arrayM_inline@@SAXQAV1@@XPAXPAX@Z 
01:000111C0 ?_get1$@arrayM_inline@@SAXQAV1@@XPAXPAX@Z 
01:000111D8 ?_get2$@arrayM_inline@@SAXQAV1@@XPAXPAX@Z 
01:000111F4 ?_get4$@arrayM_inline@@SAXQAV1@@XPAXPAX@Z 
01:0001120C ?_get8$@arrayM_inline@@SAXQAV1@@XPAXPAX@Z 
01:00011238 ?set1$@arrayM_inline@@SAXQAV1@@XPAXX@Z 
01:00011268 ?set2$@arrayM_inline@@SAXQAV1@@XPAXX@Z 
01:00011298 ?set4$@arrayM_inline@@SAXQAV1@@XPAXX@Z 
01:000112C8 ?set8$@arrayM_inline@@SAXQAV1@@XPAXX@Z 
01:000112F8 ?newPointer$@arrayM_inline@@SAXQAV1@@XQAVrTypeLibrary@TypeLibraries@RunTime@VIP@@PAXPBUpositive@core@@@Z  (Idle)
01:00011320 ?newHead$@arrayM_inline@@SAXQAV1@@XQAVrTypeLibrary@TypeLibraries@RunTime@VIP@@XPBUpositive@core@@@Z  (Idle)
01:00011324 ?newFromList$@arrayM_inline@@SAXQAV1@@XQAVrTypeLibrary@TypeLibraries@RunTime@VIP@@PAU?$__packedList_struct@X@@@Z  (Idle)
01:00011394 ?_clone$@arrayM_inline@@SAXQAVmapM@@@XXPAPAV2@@PAXPAX@Z 
01:000113C0 ?_tryGet_site$@arrayM_inline@@SAXQAVmapSupportSite@@collectionSupport@@XXXPAX@Z 
01:0001140C ?set_site$@arrayM_inline@@SAXQAVmapMSupportSite@@collectionSupport@@XXXX@Z 
01:00011460 ?removeKey_site$@arrayM_inline@@SAXQAVmapMSupportSite@@collectionSupport@@XXX@Z 
01:0001147C ?clear$@arrayM_inline@@SAXQAVmodifiable@@@X@Z 
01:00011498 ?_getAll_nd_site$@arrayM_inline@@SAXQAVmapSupportSite@@collectionSupport@@XXPAPAUtuple_struct@core@@PAXPAX@Z 
01:000114B4 ?_upFrom_nd_site$@arrayM_inline@@SAXQAVmapSupportSite@@collectionSupport@@XXXPAPAUtuple_struct@core@@PAXPAX@Z 
01:00011538 ?_downFrom_nd$@arrayM_inline@@SAXQAVmap@@@XXXPAPAUtuple_struct@core@@PAXPAX@Z 
01:000115B4 ?_headPtr@arrayM_inline@@SAXQAV1@@XPAX@Z 
01:000115C8 ?headPtrPtr@arrayM_inline@@SGPAUpointerTo_struct@_builtIn@@XQAV1@@X@Z 
01:000115E0 ?_new@arrayM_inline@@SAXQAVrTypeLibrary@TypeLibraries@RunTime@VIP@@PBUpositive@core@@PAPAV1@@PAX@Z  (Idle)
01:00011610 ?_newU@arrayM_inline@@SAXQAVrTypeLibrary@TypeLibraries@RunTime@VIP@@IPAPAV1@@PAX@Z  (Idle)
01:00011640 ?_newHead@arrayM_inline@@SAXQAVrTypeLibrary@TypeLibraries@RunTime@VIP@@XPBUpositive@core@@PAPAV1@@PAX@Z  (Idle)
--- From 'obj\Shell_api.E8D4E14B.obj'
01:00011674 ?_newPointer@arrayM_inline@@SAXQAVrTypeLibrary@TypeLibraries@RunTime@VIP@@PAXPBUpositive@core@@PAPAV1@@PAX@Z 
--- From 'obj\gui_api.9FE53D0D.obj'
01:000116A8 ?_newFromList@arrayM_inline@@SAXQAVrTypeLibrary@TypeLibraries@RunTime@VIP@@PAU?$__packedList_struct@X@@PAPAV1@@PAX@Z 
--- From 'obj\arrayM_inline.F665267A.obj'
01:000116D8 ?_object_typelib_initializer$@arrayM_inline@@SGXQAV1@@XQAVrTypeLibrary@TypeLibraries@RunTime@VIP@@@Z 
01:000116F0 ?_object_facts_initializer$@arrayM_inline@@SGXQAV1@@X@Z 
01:00011714 ?data@arrayM_inline@@SGPAXQAV1@@X@Z 
01:00011720 ?size@arrayM_inline@@SGPBUpositive@core@@QAV1@@X@Z 
01:00011C8C arrayM_inline{@ItemType}?_initObject@@@QAGXQAV1@H@Z 
01:00011CDC ?@create_object@arrayM_inline@@SGQAV1@@XQAVrTypeLibrary@TypeLibraries@RunTime@VIP@@@Z 
01:00011D00 arrayM_inline{@ItemType}?_InternalFinalizer@@@QAGXQAV1@@Z 
--- From 'obj\exceptionDump.2B9C9E40.obj'
01:00011D10 ?_tryMapLookUp@namedValue@@SAXQAVrTypeLibrary@TypeLibraries@RunTime@VIP@@PAU?$__packedList_struct@PAUnamedValue_struct@core@@X@@PB_WPAX@Z 
--- From 'obj\exception.B6F320E8.obj'
01:00011D8C ?_tryMapLookUpIgnoreCase@namedValue@@SAXQAVrTypeLibrary@TypeLibraries@RunTime@VIP@@PAU?$__packedList_struct@PAUnamedValue_struct@core@@X@@PB_WPAX@Z 
--- From 'obj\namedValue.6D52B2A6.obj'
01:00011E10 ?_mapLookUp@namedValue@@SAXQAVrTypeLibrary@TypeLibraries@RunTime@VIP@@PAU?$__packedList_struct@PAUnamedValue_struct@core@@X@@PB_WPAX@Z  (Idle)
01:00011F70 ?_mapLookUp@namedValue@@SAXQAVrTypeLibrary@TypeLibraries@RunTime@VIP@@PAU?$__packedList_struct@PAUnamedValue_struct@core@@X@@PB_WXPAX@Z  (Idle)
01:00011FC8 ?_lookUp_nd@namedValue@@SAXQAVrTypeLibrary@TypeLibraries@RunTime@VIP@@PAU?$__packedList_struct@PAUnamedValue_struct@core@@X@@PB_WPAX@Z  (Idle)
01:0001203C ?_getNamed_integer@namedValue@@SAXPAU?$__packedList_struct@PAUnamedValue_struct@core@@PAUvalue_struct@3@@@PB_WPAH@Z  (Idle)
01:000120CC ?_tryGetNamed_integer@namedValue@@SAXPAU?$__packedList_struct@PAUnamedValue_struct@core@@PAUvalue_struct@3@@@PB_WPAH@Z  (Idle)
01:00012124 ?_getNamedDefault_integer@namedValue@@SAXPAU?$__packedList_struct@PAUnamedValue_struct@core@@PAUvalue_struct@3@@@PB_WHPAH@Z  (Idle)
01:000121AC ?_getNamed_unsigned@namedValue@@SAXPAU?$__packedList_struct@PAUnamedValue_struct@core@@PAUvalue_struct@3@@@PB_WPAI@Z  (Idle)
01:0001223C ?_tryGetNamed_unsigned@namedValue@@SAXPAU?$__packedList_struct@PAUnamedValue_struct@core@@PAUvalue_struct@3@@@PB_WPAI@Z  (Idle)
01:00012294 ?_getNamedDefault_unsigned@namedValue@@SAXPAU?$__packedList_struct@PAUnamedValue_struct@core@@PAUvalue_struct@3@@@PB_WIPAI@Z  (Idle)
01:0001231C ?_getNamed_real@namedValue@@SAXPAU?$__packedList_struct@PAUnamedValue_struct@core@@PAUvalue_struct@3@@@PB_WPAPAN@Z  (Idle)
01:000123AC ?_tryGetNamed_real@namedValue@@SAXPAU?$__packedList_struct@PAUnamedValue_struct@core@@PAUvalue_struct@3@@@PB_WPAPAN@Z  (Idle)
01:00012404 ?_getNamedDefault_real@namedValue@@SAXPAU?$__packedList_struct@PAUnamedValue_struct@core@@PAUvalue_struct@3@@@PB_WPANPAPAN@Z  (Idle)
01:0001248C ?_getNamed_char@namedValue@@SAXPAU?$__packedList_struct@PAUnamedValue_struct@core@@PAUvalue_struct@3@@@PB_WPA_W@Z  (Idle)
01:0001251C ?_tryGetNamed_char@namedValue@@SAXPAU?$__packedList_struct@PAUnamedValue_struct@core@@PAUvalue_struct@3@@@PB_WPA_W@Z  (Idle)
01:00012574 ?_getNamedDefault_char@namedValue@@SAXPAU?$__packedList_struct@PAUnamedValue_struct@core@@PAUvalue_struct@3@@@PB_W_WPA_W@Z  (Idle)
01:00012600 ?_getNamed_string@namedValue@@SAXPAU?$__packedList_struct@PAUnamedValue_struct@core@@PAUvalue_struct@3@@@PB_WPAPB_W@Z  (Idle)
--- From 'obj\exceptionDump.2B9C9E40.obj'
01:00012690 ?_tryGetNamed_string@namedValue@@SAXPAU?$__packedList_struct@PAUnamedValue_struct@core@@PAUvalue_struct@3@@@PB_WPAPB_W@Z 
--- From 'obj\namedValue.6D52B2A6.obj'
01:000126E8 ?_getNamedDefault_string@namedValue@@SAXPAU?$__packedList_struct@PAUnamedValue_struct@core@@PAUvalue_struct@3@@@PB_W1PAPB_W@Z  (Idle)
01:00012770 ?_getNamed_boolean@namedValue@@SAXPAU?$__packedList_struct@PAUnamedValue_struct@core@@PAUvalue_struct@3@@@PB_WPAPAUboolean_struct@_builtIn@@@Z  (Idle)
01:000127EC ?_tryGetNamed_boolean@namedValue@@SAXPAU?$__packedList_struct@PAUnamedValue_struct@core@@PAUvalue_struct@3@@@PB_WPAPAUboolean_struct@_builtIn@@@Z  (Idle)
01:00012830 ?_getNamedDefault_boolean@namedValue@@SAXPAU?$__packedList_struct@PAUnamedValue_struct@core@@PAUvalue_struct@3@@@PB_WPAUboolean_struct@_builtIn@@PAPAU67@@Z  (Idle)
01:000128A4 ?_getNamed_binary@namedValue@@SAXPAU?$__packedList_struct@PAUnamedValue_struct@core@@PAUvalue_struct@3@@@PB_WQAPAE@Z  (Idle)
01:00012958 ?_tryGetNamed_binary@namedValue@@SAXPAU?$__packedList_struct@PAUnamedValue_struct@core@@PAUvalue_struct@3@@@PB_WQAPAE@Z  (Idle)
01:000129B0 ?_getNamedDefault_binary@namedValue@@SAXPAU?$__packedList_struct@PAUnamedValue_struct@core@@PAUvalue_struct@3@@@PB_WQAEQAPAE@Z  (Idle)
01:00012A40 ?_getNamed_object@namedValue@@SAXPAU?$__packedList_struct@PAUnamedValue_struct@core@@PAUvalue_struct@3@@@PB_WPAPAV6@@@Z  (Idle)
01:00012AF4 ?_tryGetNamed_object@namedValue@@SAXPAU?$__packedList_struct@PAUnamedValue_struct@core@@PAUvalue_struct@3@@@PB_WPAPAV6@@@Z  (Idle)
01:00012B4C ?_getNamedDefault_object@namedValue@@SAXPAU?$__packedList_struct@PAUnamedValue_struct@core@@PAUvalue_struct@3@@@PB_WQAV6@@PAPAV6@@@Z  (Idle)
01:00012BDC ?_getNamed_pointer@namedValue@@SAXPAU?$__packedList_struct@PAUnamedValue_struct@core@@PAUvalue_struct@3@@@PB_WPAPAX@Z  (Idle)
01:00012C90 ?_tryGetNamed_pointer@namedValue@@SAXPAU?$__packedList_struct@PAUnamedValue_struct@core@@PAUvalue_struct@3@@@PB_WPAPAX@Z  (Idle)
01:00012CE8 ?_getNamedDefault_pointer@namedValue@@SAXPAU?$__packedList_struct@PAUnamedValue_struct@core@@PAUvalue_struct@3@@@PB_WPAXPAPAX@Z  (Idle)
01:00012D70 ?_getNamed_handle@namedValue@@SAXPAU?$__packedList_struct@PAUnamedValue_struct@core@@PAUvalue_struct@3@@@PB_WAAU6_builtIn@@@Z  (Idle)
01:00012E24 ?_tryGetNamed_handle@namedValue@@SAXPAU?$__packedList_struct@PAUnamedValue_struct@core@@PAUvalue_struct@3@@@PB_WAAU6_builtIn@@@Z  (Idle)
01:00012E7C ?_getNamedDefault_handle@namedValue@@SAXPAU?$__packedList_struct@PAUnamedValue_struct@core@@PAUvalue_struct@3@@@PB_WPBU6_builtIn@@AAU67@@Z  (Idle)
01:00012F04 ?_getNamed_gmtTimeValue@namedValue@@SAXPAU?$__packedList_struct@PAUnamedValue_struct@core@@PAUvalue_struct@3@@@PB_WPAAAU63@@Z  (Idle)
01:00012F94 ?_tryGetNamed_gmtTimeValue@namedValue@@SAXPAU?$__packedList_struct@PAUnamedValue_struct@core@@PAUvalue_struct@3@@@PB_WPAAAU63@@Z  (Idle)
01:00012FEC ?_getNamedDefault_gmtTimeValue@namedValue@@SAXPAU?$__packedList_struct@PAUnamedValue_struct@core@@PAUvalue_struct@3@@@PB_WPAPBU63@PAAAU63@@Z  (Idle)
01:00013074 ?_getNamed_localTimeValue@namedValue@@SAXPAU?$__packedList_struct@PAUnamedValue_struct@core@@PAUvalue_struct@3@@@PB_WPAAAU63@@Z  (Idle)
01:00013104 ?_tryGetNamed_localTimeValue@namedValue@@SAXPAU?$__packedList_struct@PAUnamedValue_struct@core@@PAUvalue_struct@3@@@PB_WPAAAU63@@Z  (Idle)
01:0001315C ?_getNamedDefault_localTimeValue@namedValue@@SAXPAU?$__packedList_struct@PAUnamedValue_struct@core@@PAUvalue_struct@3@@@PB_WPAPBU63@PAAAU63@@Z  (Idle)
01:000131E4 ?_getNamed_integer64@namedValue@@SAXPAU?$__packedList_struct@PAUnamedValue_struct@core@@PAUvalue_struct@3@@@PB_WPAPA_J@Z  (Idle)
01:00013284 ?_tryGetNamed_integer64@namedValue@@SAXPAU?$__packedList_struct@PAUnamedValue_struct@core@@PAUvalue_struct@3@@@PB_WPAPA_J@Z  (Idle)
01:000132CC ?_getNamedDefault_integer64@namedValue@@SAXPAU?$__packedList_struct@PAUnamedValue_struct@core@@PAUvalue_struct@3@@@PB_WPA_JPAPA_J@Z  (Idle)
01:0001334C ?_getNamed_unsigned64@namedValue@@SAXPAU?$__packedList_struct@PAUnamedValue_struct@core@@PAUvalue_struct@3@@@PB_WPAPA_K@Z  (Idle)
01:000133EC ?_tryGetNamed_unsigned64@namedValue@@SAXPAU?$__packedList_struct@PAUnamedValue_struct@core@@PAUvalue_struct@3@@@PB_WPAPA_K@Z  (Idle)
01:00013434 ?_getNamedDefault_unsigned64@namedValue@@SAXPAU?$__packedList_struct@PAUnamedValue_struct@core@@PAUvalue_struct@3@@@PB_WPA_KPAPA_K@Z  (Idle)
01:000134B4 ?_any2Value@namedValue@@SAXPBUany@_builtIn@@PAPAUvalue_struct@core@@@Z  (Idle)
01:00013760 ?pair@namedValue@@SAXPAU?$__packedList_struct@PBUany@_builtIn@@@@PAPB_WAAU23@@Z  (Idle)
01:000137C8 ?mkNamedValueList@namedValue@@SAPAU?$__packedList_struct@PAUnamedValue_struct@core@@PAUvalue_struct@3@@@XZ  (Idle)
--- From 'obj\segmented_binary.C16992E7.obj'
01:00013860 ?_fromTo@std@@SAXHHPAH@Z 
--- From 'obj\std.2DE0EC97.obj'
01:000138A4 ?_downTo@std@@SAXHHPAH@Z 
01:000138E8 ?_between@std@@SAXHHPAH@Z  (Idle)
01:00013984 ?_fromToInStep@std@@SAXHHPBUpositive@core@@PAH@Z  (Idle)
01:000139CC ?_downToInStep@std@@SAXHHPBUpositive@core@@PAH@Z  (Idle)
01:00013A14 ?_betweenInStep@std@@SAXHHPBUpositive@core@@PAH@Z  (Idle)
01:00013AC0 ?_countFrom@std@@SAXHPAH@Z  (Idle)
01:00013AEC ?_countFromInStep@std@@SAXHPBUpositive@core@@PAH@Z  (Idle)
01:00013B1C ?_countDownFrom@std@@SAXHPAH@Z  (Idle)
01:00013B48 ?_countDownFromInStep@std@@SAXHPBUpositive@core@@PAH@Z  (Idle)
--- From 'obj\string_api.2E13EA53.obj'
01:00013B78 ?repeat@std@@SAXXZ 
--- From 'obj\time.6AFD2988.obj'
01:00013B94 ?_cIterate@std@@SAXHPAH@Z 
--- From 'obj\std.2DE0EC97.obj'
01:00013BC8 ?_lazy/1nf$1@std@@SAXPAUlazy/1nf$1_struct@1@PAX@Z 
01:00013C4C ?_lazy@std@@SAXQAVrTypeLibrary@TypeLibraries@RunTime@VIP@@PA$?_function$1@core@@SAXPAX@Z$PAPA$?_function$1@core@@SAXPAX@Z$@Z  (Idle)
--- From 'obj\gui_api.9FE53D0D.obj'
01:00013CA0 ?_fromTo@std@@SAXPA_J0PAPA_J@Z 
--- From 'obj\std.2DE0EC97.obj'
01:00013D4C ?_fromTo@std@@SAXPBUintegerNative@_builtIn@@0AAU23@@Z  (Idle)
--- From 'obj\time.6AFD2988.obj'
01:00013D94 ?_fromTo@std@@SAXIIPAI@Z 
--- From 'obj\std.2DE0EC97.obj'
01:00013DD8 ?_fromTo@std@@SAXPA_K0PAPA_K@Z  (Idle)
01:00013E84 ?_fromTo@std@@SAXPBUunsignedNative@_builtIn@@0AAU23@@Z  (Idle)
01:00013ECC ?_downTo@std@@SAXPA_J0PAPA_J@Z  (Idle)
01:00013F78 ?_downTo@std@@SAXPBUintegerNative@_builtIn@@0AAU23@@Z  (Idle)
01:00013FC0 ?_downTo@std@@SAXIIPAI@Z  (Idle)
01:00014004 ?_downTo@std@@SAXPA_K0PAPA_K@Z  (Idle)
01:000140B0 ?_downTo@std@@SAXPBUunsignedNative@_builtIn@@0AAU23@@Z  (Idle)
01:000140F8 ?_between@std@@SAXIIPAI@Z  (Idle)
01:00014194 ?_cIterate@std@@SAXHPAI@Z  (Idle)
--- From 'obj\reflection.ACE59E5C.obj'
01:000141C8 ?_cIterate@std@@SAXIPAI@Z 
--- From 'obj\std.2DE0EC97.obj'
01:000141FC ?_cIterate@std@@SAXIPAH@Z  (Idle)
--- From 'obj\memory_api.EF10D306.obj'
01:00014230 ?globalMemoryStatusEx@memory_api@@SAXPAIPAPA_K111111@Z  (Idle)
01:0001438C ?_alloc_memoryStatusEx@memory_api@@SAXIPAPAUmemoryStatusEx_struct@memory_native@@@Z 
01:00014400 ?_globalAlloc@memory_api@@SAXIPBUbyteCount@core@@AAUhGlobal@windowsAPI@@@Z 
01:00014518 ?globalFree@memory_api@@SAXPBUhGlobal@windowsAPI@@@Z  (Idle)
01:0001455C ?_globalLock@memory_api@@SAXPBUhGlobal@windowsAPI@@PAPAX@Z  (Idle)
01:00014600 ?globalUnlock@memory_api@@SAXPBUhGlobal@windowsAPI@@@Z  (Idle)
01:0001461C ?_globalUnlock@memory_api@@SAXPBUhGlobal@windowsAPI@@PAPAUboolean_struct@_builtIn@@@Z 
01:00014674 ?_globalSize@memory_api@@SAXPBUhGlobal@windowsAPI@@AAUbyteCount@core@@@Z  (Idle)
01:000146D4 ?_mkGlobal_string@memory_api@@SAXPB_WAAUhGlobal@windowsAPI@@@Z  (Idle)
01:0001472C ?_getGlobal_string@memory_api@@SAXPBUhGlobal@windowsAPI@@PAPB_W@Z  (Idle)
01:00014818 ?_mkGlobal_string8@memory_api@@SAXPADAAUhGlobal@windowsAPI@@@Z  (Idle)
01:00014864 ?_getglobal_string8/1nf$1@memory_api@@SAXPAXPBUbyteCount@core@@PAPAD@Z 
01:00014878 ?_getGlobal_string8@memory_api@@SAXPBUhGlobal@windowsAPI@@PAPAD@Z  (Idle)
01:000148AC ?_mkGlobal_binary@memory_api@@SAXQAEAAUhGlobal@windowsAPI@@@Z  (Idle)
01:000148E0 ?_getGlobal_binary@memory_api@@SAXPBUhGlobal@windowsAPI@@QAPAE@Z  (Idle)
01:00014914 ?_mkGlobal_pointer@memory_api@@SAXPAXPBUbyteCount@core@@AAUhGlobal@windowsAPI@@@Z 
01:000149A8 ?_getGlobal_pointer@memory_api@@SAXQAVrTypeLibrary@TypeLibraries@RunTime@VIP@@PBUhGlobal@windowsAPI@@PA$?_function$3@core@@SAXPAXPBUbyteCount@1@PAX@Z$PAX@Z 
--- From 'obj\Shell_api.E8D4E14B.obj'
01:00014A44 ?localFree@memory_api@@SAXQAVrTypeLibrary@TypeLibraries@RunTime@VIP@@X@Z 
--- From 'obj\memory_api.EF10D306.obj'
01:00014A88 ?_getProcessMemoryInfo@memory_api@@SAXPBUprocessHandle@windowsAPI@@PAPAUprocess_memory_counters_struct@memory_native@@@Z  (Idle)
01:00014B04 ?_garbageCollectorStatistics@memory_api@@SAXPAPAUgarbageCollectorStatistics_struct@1@@Z  (Idle)
--- From 'obj\runTime_api.B1A642EC.obj'
01:00014B60 ?_getUnsigned@runtime_api@@SAXPBUhKey@registry_native@@PB_WPAI@Z  (Idle)
01:00014BE8 ?_getString@runtime_api@@SAXPBUhKey@registry_native@@PB_WPAPB_W@Z  (Idle)
--- From 'obj\exception.B6F320E8.obj'
01:00014C74 ?getOSVersionShort@runtime_api@@SAXQAVoutputStream@@@@Z 
--- From 'obj\runTime_api.B1A642EC.obj'
01:00014F04 ?getOSVersion@runtime_api@@SAXQAVoutputStream@@@@Z  (Idle)
01:00014FB8 ?_getSysInfoStr@runtime_api@@SAXPAPB_W@Z 
01:0001503C ?_getNativeSysInfo@runtime_api@@SAXPAPB_W@Z 
01:000150C0 ?_getRegInfo@runtime_api@@SAXPAPB_W@Z 
01:00015164 ?_getRegInfoK@runtime_api@@SAXPB_WPAPB_W@Z 
01:000151CC ?_printString@runtime_api@@SAXPAUvalue_struct@core@@PAPB_W@Z 
01:00015234 ?vip_checkStack@Kernel@VIP@@YAXXZ  (Idle)
--- From 'obj\string_api.2E13EA53.obj'
01:00015240 ?_normalizeString@string_api@@SAXPB_WPBUnorm_form@string_native@@PAPB_W@Z  (Idle)
--- From 'obj\registry.917E8C91.obj'
01:00015500 ?raise_wrongValue_explicit@registry_exception@@SAXPAUprogramPoint_struct@core@@PBUhResult@3@PAUrootKey_struct@registry@@PB_W3@Z  (Idle)
01:00015694 ?raise_noPath_explicit@registry_exception@@SAXPAUprogramPoint_struct@core@@PBUhResult@3@PAUrootKey_struct@registry@@PB_W3@Z  (Idle)
01:00015828 ?raise_cannotCreateKey_explicit@registry_exception@@SAXPAUprogramPoint_struct@core@@PBUhResult@3@PAUrootKey_struct@registry@@PB_W@Z  (Idle)
01:00015968 ?_getRootKeyName@registry_exception@@SAXPAUrootKey_struct@registry@@PAPB_W@Z 
01:000159CC ?createKey@registry@@SAXPAUrootKey_struct@1@PB_WPAUregistryView_struct@1@@Z  (Idle)
01:00015A28 ?existKey@registry@@SAXPAUrootKey_struct@1@PB_WPAUregistryView_struct@1@@Z  (Idle)
01:00015A7C ?deleteKey@registry@@SAXPAUrootKey_struct@1@PB_WPAUregistryView_struct@1@@Z  (Idle)
01:00015B70 ?is32on32@registry@@SAXI@Z 
01:00015BC4 ?deleteKeyList@registry@@SAXPAUrootKey_struct@1@PB_WPAU?$__packedList_struct@1@@PAUregistryView_struct@1@@Z 
01:00015C24 ?setValue@registry@@SAXPAUrootKey_struct@1@PB_WPAU?$__packedList_struct@PAUnamedValue_struct@core@@PAUvalue_struct@5@@@PAUregistryView_struct@1@@Z  (Idle)
01:00015D3C ?setValuesToKey@registry@@SAXPBUhkey@registry_native@@PAU?$__packedList_struct@PAUnamedValue_struct@core@@PAUvalue_struct@5@@@@Z 
--- From 'obj\time_api.32F5932A.obj'
01:00015D8C ?_getValue@registry@@SAXPAUrootKey_struct@1@PB_W1PAUregistryView_struct@1@PAPAUvalue_struct@core@@@Z 
--- From 'obj\registry.917E8C91.obj'
01:00015E38 ?_getValue@registry@@SAXPAUrootKey_struct@1@PB_W1PAUregistryView_struct@1@PAUvalue_struct@core@@PAPAU67@@Z  (Idle)
01:00015E94 ?_tryGetValue@registry@@SAXPAUrootKey_struct@1@PB_W1PAUregistryView_struct@1@PAPAUvalue_struct@core@@@Z 
01:00015F6C ?removeValue@registry@@SAXPAUrootKey_struct@1@PB_WPAU?$__packedList_struct@1@@PAUregistryView_struct@1@@Z  (Idle)
01:00016018 ?removeListValues@registry@@SAXPBUhkey@registry_native@@PAU?$__packedList_struct@PB_W@@@Z 
--- From 'obj\time_api.32F5932A.obj'
01:00016058 ?_getSubkeys@registry@@SAXPAUrootKey_struct@1@PB_WPAUregistryView_struct@1@PAPAU?$__packedList_struct@PAPB_W@@@Z 
--- From 'obj\registry.917E8C91.obj'
01:00016104 ?_getAllValues@registry@@SAXPAUrootKey_struct@1@PB_WPAUregistryView_struct@1@PAPAU?$__packedList_struct@PAPAUnamedValue_struct@core@@PAPAUvalue_struct@7@@@@Z  (Idle)
01:000161B0 ?_keyWrite@registry@@SAXPAUregistryView_struct@1@AAUregsAM@registry_native@@@Z 
01:000161CC ?_keyRead@registry@@SAXPAUregistryView_struct@1@AAUregsAM@registry_native@@@Z 
01:000161E8 ?_applyView@registry@@SAXPAUregistryView_struct@1@PBUregsAM@registry_native@@AAU45@@Z 
01:00016228 ?_getRootKeyHandle@registry@@SAXPAUrootKey_struct@1@AAUhkey@registry_native@@@Z 
--- From 'obj\string8.355639C6.obj'
01:00016290 ?isValidCodePage@string8@@SAXPBUcodePage@core@@@Z  (Idle)
01:000162AC ?isValidToRead@string8@@SAXPADPBUbyteCount@core@@@Z  (Idle)
01:000162CC ?_fromUtf8@string8@@SAXPADPBUbyteCountOptional@core@@PAPB_W@Z  (Idle)
01:000162F4 ?_toUtf8@string8@@SAXPB_WPAPAD@Z 
01:00016314 ?_toUtf8@string8@@SAXPB_WAAUbyteCount@core@@PAPAD@Z 
01:0001633C ?_mapFromString@string8@@SAXPB_WPBUcodePage@core@@AAUbyteCount@3@PAPAD@Z 
01:00016364 ?_toUtf8_buffer@string8@@SAXPAXPBUcharCount@core@@AAUbyteCount@3@PAPAD@Z  (Idle)
01:000163A0 ?_toUtf8_binary@string8@@SAXQAEAAUbyteCount@core@@PAPAD@Z  (Idle)
01:00016400 ?_fromUtf8_buffer@string8@@SAXPAXPBUbyteCount@core@@PAPB_W@Z  (Idle)
01:00016434 ?_fromUtf8_binary@string8@@SAXQAEPAPB_W@Z 
01:0001645C ?_fromUtf8_binary2@string8@@SAXQAEPAPB_W@Z 
01:000164B0 ?_skip_utf8Bom@string8@@SAXQAEQAPAE@Z 
01:00016568 ?_mapFromString@string8@@SAXPB_WPBUcodePage@core@@PBUcharCountOptional@3@AAUbyteCount@3@PAPAD@Z 
01:00016604 ?_mapToString@string8@@SAXPADPBUcodePage@core@@PBUbyteCountOptional@3@PAPB_W@Z 
01:000166C8 ?_mapFromChar@string8@@SAX_WPBUcodePage@core@@AAUchar8@3@@Z  (Idle)
01:0001673C ?_mapToChar@string8@@SAXPBUchar8@core@@PBUcodePage@3@PA_W@Z  (Idle)
01:000167B0 ?_concat@string8@@SAXPADPADPAPAD@Z  (Idle)
01:0001684C ?_fromPosition@string8@@SAXPADPBUbyteCount@core@@PAPAD@Z  (Idle)
01:00016884 ?checkPosition@string8@@SAXPBUbyteCount@core@@PAD@Z 
01:000168B4 ?_createCopy@string8@@SAXPADPAPAD@Z 
01:0001691C ?_createCopy@string8@@SAXPADPBUbyteCount@core@@PAPAD@Z 
01:0001695C ?_copyFromBuffer@string8@@SAXPAXPBUbyteCount@core@@PAPAD@Z 
01:000169D0 ?_tryLength@string8@@SAXPADAAUbyteCount@core@@@Z 
01:00016A10 ?_tryFrontChar@string8@@SAXPADPAPADPBUcodePage@core@@PA_W@Z  (Idle)
01:00016AD4 ?_tryFrontChar_utf8@string8@@SAXPADPAPADPA_W@Z 
01:00016B30 ?_tryFrontChar_utf82@string8@@SAXPBUchar8@core@@PADPAPADPAI@Z 
01:00016DF0 ?_tryGetIntermediateUtf8@string8@@SAXIPADPAPADPAI@Z 
01:00016EB8 ?_tryGetFirstByte@string8@@SAXPADPAPADAAUchar8@core@@@Z 
--- From 'obj\redBlackTree.401E21A0.obj'
01:00016EF0 ?_empty/0$1@redBlackTree@@SAXPAUempty/0$1_struct@1@XXPAPAUcompareResult_struct@_builtIn@@@Z 
01:00016F08 ?_empty@redBlackTree@@SAXQAVrTypeLibrary@TypeLibraries@RunTime@VIP@@0PAPAUtree_struct@1@PAXPAX@Z  (Idle)
01:00016F7C ?_emptyUnique/0$1@redBlackTree@@SAXPAUemptyUnique/0$1_struct@1@XXPAPAUcompareResult_struct@_builtIn@@@Z 
--- From 'obj\mapM_redBlack.875A0474.obj'
01:00016F94 ?_emptyUnique@redBlackTree@@SAXQAVrTypeLibrary@TypeLibraries@RunTime@VIP@@0PAPAUtree_struct@1@PAXPAX@Z 
--- From 'obj\redBlackTree.401E21A0.obj'
01:00017008 ?_emptyCustom@redBlackTree@@SAXQAVrTypeLibrary@TypeLibraries@RunTime@VIP@@0PA$?_comparator$1@core@@SAXXXPAPAUcompareResult_struct@_builtIn@@@Z$PAPAUtree_struct@1@PAXPAX@Z  (Idle)
--- From 'obj\mapM_redBlack.875A0474.obj'
01:00017054 ?_emptyCustomUnique@redBlackTree@@SAXQAVrTypeLibrary@TypeLibraries@RunTime@VIP@@0PA$?_comparator$1@core@@SAXXXPAPAUcompareResult_struct@_builtIn@@@Z$PAPAUtree_struct@1@PAXPAX@Z 
01:000170A0 ?_emptySameKind@redBlackTree@@SAXQAVrTypeLibrary@TypeLibraries@RunTime@VIP@@0PAUtree_struct@1@XXPAPAU21@PAXPAX@Z 
--- From 'obj\redBlackTree.401E21A0.obj'
01:000170D8 ?isEmpty@redBlackTree@@SAXQAVrTypeLibrary@TypeLibraries@RunTime@VIP@@0PAUtree_struct@1@XX@Z  (Idle)
--- From 'obj\mapM_redBlack.875A0474.obj'
01:000170F0 ?_insert@redBlackTree@@SAXQAVrTypeLibrary@TypeLibraries@RunTime@VIP@@0PAUtree_struct@1@XXXXPAPAU21@PAXPAX@Z 
--- From 'obj\redBlackTree.401E21A0.obj'
01:00017158 ?_delete@redBlackTree@@SAXQAVrTypeLibrary@TypeLibraries@RunTime@VIP@@0PAUtree_struct@1@XXXXPAPAU21@PAXPAX@Z  (Idle)
--- From 'obj\mapM_redBlack.875A0474.obj'
01:000171C0 ?_deleteAll@redBlackTree@@SAXQAVrTypeLibrary@TypeLibraries@RunTime@VIP@@0PAUtree_struct@1@XXXPAPAU21@PAXPAX@Z 
--- From 'obj\redBlackTree.401E21A0.obj'
01:00017238 ?_tryDeleteOne@redBlackTree@@SAXQAVrTypeLibrary@TypeLibraries@RunTime@VIP@@0PAUtree_struct@1@XXXPAXPAPAU21@PAXPAX@Z 
01:000172A0 ?_tryDeleteFirst@redBlackTree@@SAXQAVrTypeLibrary@TypeLibraries@RunTime@VIP@@0PAUtree_struct@1@XXPAXPAXPAPAU21@PAXPAX@Z  (Idle)
01:00017328 ?_lookUp_nd@redBlackTree@@SAXQAVrTypeLibrary@TypeLibraries@RunTime@VIP@@0PAUtree_struct@1@XXXPAX@Z  (Idle)
--- From 'obj\mapM_redBlack.875A0474.obj'
01:00017364 ?_tryLookUp@redBlackTree@@SAXQAVrTypeLibrary@TypeLibraries@RunTime@VIP@@0PAUtree_struct@1@XXXPAX@Z 
01:000173A0 ?_getAll_nd@redBlackTree@@SAXQAVrTypeLibrary@TypeLibraries@RunTime@VIP@@0PAUtree_struct@1@XXPAPAUtuple_struct@core@@PAXPAX@Z 
01:000173B8 ?_upFrom_nd@redBlackTree@@SAXQAVrTypeLibrary@TypeLibraries@RunTime@VIP@@0PAUtree_struct@1@XXXPAPAUtuple_struct@core@@PAXPAX@Z 
01:000173F4 ?_downFrom_nd@redBlackTree@@SAXQAVrTypeLibrary@TypeLibraries@RunTime@VIP@@0PAUtree_struct@1@XXXPAPAUtuple_struct@core@@PAXPAX@Z 
--- From 'obj\redBlackTree.401E21A0.obj'
01:00017430 ?present_tree@redBlackTree@@SGPAUpresentation_struct@presenter@@QAVrTypeLibrary@TypeLibraries@RunTime@VIP@@0PAUtree_struct@1@XX@Z 
--- From 'obj\redBlackTreeRep.E6A269FA.obj'
01:00017480 ?_comp@redBlackTreeRep@@SAXQAVrTypeLibrary@TypeLibraries@RunTime@VIP@@PAUtreeProperty_struct@1@XXXPAPAUcompareResult_struct@_builtIn@@@Z  (Idle)
01:000174C8 ?tryGetNode@redBlackTreeRep@@SAXQAVrTypeLibrary@TypeLibraries@RunTime@VIP@@0PAUtreeRep_struct@1@XXPAPAU21@PAXPAXPAXPAX3@Z  (Idle)
01:00017598 ?_lookUp_nd_rep@redBlackTreeRep@@SAXQAVrTypeLibrary@TypeLibraries@RunTime@VIP@@0PAUtreeProperty_struct@1@XPAUtreeRep_struct@1@XXXPAX@Z 
01:0001761C ?_tryLookUp_rep@redBlackTreeRep@@SAXQAVrTypeLibrary@TypeLibraries@RunTime@VIP@@0PAUtreeProperty_struct@1@XPAUtreeRep_struct@1@XXXPAX@Z 
01:00017658 ?_find_nd_rep1@redBlackTreeRep@@SAXQAVrTypeLibrary@TypeLibraries@RunTime@VIP@@0PAUtreeProperty_struct@1@XPAUcompareResult_struct@_builtIn@@XPAUtreeRep_struct@1@XXX5PAX@Z 
01:0001771C ?_getAll_nd_rep@redBlackTreeRep@@SAXQAVrTypeLibrary@TypeLibraries@RunTime@VIP@@0PAUtreeRep_struct@1@XXPAPAUtuple_struct@core@@PAXPAX@Z 
01:00017768 ?get_nd_rep@redBlackTreeRep@@SAXQAVrTypeLibrary@TypeLibraries@RunTime@VIP@@0PAUtreeRep_struct@1@XXPAXPAX@Z 
01:00017814 ?_upFrom_nd_rep@redBlackTreeRep@@SAXQAVrTypeLibrary@TypeLibraries@RunTime@VIP@@0PAUtreeProperty_struct@1@XPAUtreeRep_struct@1@XXXPAPAUtuple_struct@core@@PAXPAX@Z 
01:000178A8 ?_upFrom_nd_rep1@redBlackTreeRep@@SAXQAVrTypeLibrary@TypeLibraries@RunTime@VIP@@0PAUtreeProperty_struct@1@XPAUcompareResult_struct@_builtIn@@XPAUtreeRep_struct@1@XXXX5PAPAUtuple_struct@core@@PAXPAX@Z 
01:00017970 ?_upFrom_nd_rep@redBlackTreeRep@@SAXQAVrTypeLibrary@TypeLibraries@RunTime@VIP@@0PA$?_partialCompare$1@1@SAXXPAPAUcompareResult_struct@_builtIn@@@Z$PAUtreeRep_struct@1@XXPAPAUtuple_struct@core@@PAXPAX@Z  (Idle)
01:000179F4 ?_upFrom_nd_rep1@redBlackTreeRep@@SAXQAVrTypeLibrary@TypeLibraries@RunTime@VIP@@0PA$?_function$2@core@@SAXXPAPAUcompareResult_struct@_builtIn@@@Z$PAU23@PAUtreeRep_struct@1@XXXX4PAPAUtuple_struct@9@PAXPAX@Z 
01:00017AB0 ?_upTo_nd_rep@redBlackTreeRep@@SAXQAVrTypeLibrary@TypeLibraries@RunTime@VIP@@0PAUtreeProperty_struct@1@XPAUtreeRep_struct@1@XXXPAPAUtuple_struct@core@@PAXPAX@Z  (Idle)
01:00017B44 ?_upTo_nd_rep1@redBlackTreeRep@@SAXQAVrTypeLibrary@TypeLibraries@RunTime@VIP@@0PAUtreeProperty_struct@1@XPAUcompareResult_struct@_builtIn@@XPAUtreeRep_struct@1@XXXX5PAPAUtuple_struct@core@@PAXPAX@Z 
01:00017C90 ?_upTo_nd_rep@redBlackTreeRep@@SAXQAVrTypeLibrary@TypeLibraries@RunTime@VIP@@0PA$?_partialCompare$1@1@SAXXPAPAUcompareResult_struct@_builtIn@@@Z$PAUtreeRep_struct@1@XXPAPAUtuple_struct@core@@PAXPAX@Z  (Idle)
01:00017D14 ?_upTo_nd_rep1@redBlackTreeRep@@SAXQAVrTypeLibrary@TypeLibraries@RunTime@VIP@@0PA$?_function$2@core@@SAXXPAPAUcompareResult_struct@_builtIn@@@Z$PAU23@PAUtreeRep_struct@1@XXXX4PAPAUtuple_struct@9@PAXPAX@Z 
01:00017E60 ?_downFrom_nd_rep@redBlackTreeRep@@SAXQAVrTypeLibrary@TypeLibraries@RunTime@VIP@@0PAUtreeProperty_struct@1@XPAUtreeRep_struct@1@XXXPAPAUtuple_struct@core@@PAXPAX@Z 
01:00017EF4 ?_downFrom_nd_rep1@redBlackTreeRep@@SAXQAVrTypeLibrary@TypeLibraries@RunTime@VIP@@0PAUtreeProperty_struct@1@XPAUcompareResult_struct@_builtIn@@XPAUtreeRep_struct@1@XXXX5PAPAUtuple_struct@core@@PAXPAX@Z 
01:00017FFC ?_downFrom_nd_rep@redBlackTreeRep@@SAXQAVrTypeLibrary@TypeLibraries@RunTime@VIP@@0PA$?_partialCompare$1@1@SAXXPAPAUcompareResult_struct@_builtIn@@@Z$PAUtreeRep_struct@1@XXPAPAUtuple_struct@core@@PAXPAX@Z  (Idle)
01:00018080 ?_downFrom_nd_rep1@redBlackTreeRep@@SAXQAVrTypeLibrary@TypeLibraries@RunTime@VIP@@0PA$?_function$2@core@@SAXXPAPAUcompareResult_struct@_builtIn@@@Z$PAU23@PAUtreeRep_struct@1@XXXX4PAPAUtuple_struct@9@PAXPAX@Z 
01:0001817C ?_downTo_nd_rep@redBlackTreeRep@@SAXQAVrTypeLibrary@TypeLibraries@RunTime@VIP@@0PAUtreeProperty_struct@1@XPAUtreeRep_struct@1@XXXPAPAUtuple_struct@core@@PAXPAX@Z  (Idle)
01:00018210 ?_downTo_nd_rep1@redBlackTreeRep@@SAXQAVrTypeLibrary@TypeLibraries@RunTime@VIP@@0PAUtreeProperty_struct@1@XPAUcompareResult_struct@_builtIn@@XPAUtreeRep_struct@1@XXXX5PAPAUtuple_struct@core@@PAXPAX@Z 
01:00018358 ?_downTo_nd_rep@redBlackTreeRep@@SAXQAVrTypeLibrary@TypeLibraries@RunTime@VIP@@0PA$?_partialCompare$1@1@SAXXPAPAUcompareResult_struct@_builtIn@@@Z$PAUtreeRep_struct@1@XXPAPAUtuple_struct@core@@PAXPAX@Z  (Idle)
01:000183DC ?_downTo_nd_rep1@redBlackTreeRep@@SAXQAVrTypeLibrary@TypeLibraries@RunTime@VIP@@0PA$?_function$2@core@@SAXXPAPAUcompareResult_struct@_builtIn@@@Z$PAU23@PAUtreeRep_struct@1@XXXX4PAPAUtuple_struct@9@PAXPAX@Z 
01:00018524 ?_getAllDown_nd_rep@redBlackTreeRep@@SAXQAVrTypeLibrary@TypeLibraries@RunTime@VIP@@0PAUtreeRep_struct@1@XXPAPAUtuple_struct@core@@PAXPAX@Z 
01:000185D4 ?_findNext_dt@redBlackTreeRep@@SAXQAVrTypeLibrary@TypeLibraries@RunTime@VIP@@0PAUtreeProperty_struct@1@XXPAUtreeRep_struct@1@XXPAX@Z  (Idle)
01:0001866C ?_findNext_dt@redBlackTreeRep@@SAXQAVrTypeLibrary@TypeLibraries@RunTime@VIP@@0PAUtreeProperty_struct@1@XXXPAUtreeRep_struct@1@XXPAX@Z 
01:0001873C ?_getMinChild_dt@redBlackTreeRep@@SAXQAVrTypeLibrary@TypeLibraries@RunTime@VIP@@0PAUtreeRep_struct@1@XXPAX@Z 
01:000187E8 ?_findPrev_dt@redBlackTreeRep@@SAXQAVrTypeLibrary@TypeLibraries@RunTime@VIP@@0PAUtreeProperty_struct@1@XXPAUtreeRep_struct@1@XXPAX@Z  (Idle)
01:00018880 ?_findPrev_dt@redBlackTreeRep@@SAXQAVrTypeLibrary@TypeLibraries@RunTime@VIP@@0PAUtreeProperty_struct@1@XXXPAUtreeRep_struct@1@XXPAX@Z 
01:00018950 ?_getMaxChild_dt@redBlackTreeRep@@SAXQAVrTypeLibrary@TypeLibraries@RunTime@VIP@@0PAUtreeRep_struct@1@XXPAX@Z 
01:00018A00 ?_scan_nd_rep@redBlackTreeRep@@SAXQAVrTypeLibrary@TypeLibraries@RunTime@VIP@@0PAUtuple_struct@core@@PA$?_partialCompare$1@1@SAXXPAPAUcompareResult_struct@_builtIn@@@Z$PA$?_partialCompare$1@1@SAXXPAPAUcompareResult_struct@_builtIn@@@Z$PAUtreeRep_struct@1@XXPAPAU23@PAXPAX@Z  (Idle)
01:00018ABC ?_scan_nd_rep@redBlackTreeRep@@SAXQAVrTypeLibrary@TypeLibraries@RunTime@VIP@@0PAUtuple_struct@core@@PA$?_partialCompare$1@1@SAXXPAPAUcompareResult_struct@_builtIn@@@Z$PA$?_partialCompare$1@1@SAXXPAPAU45@@Z$PAU45@3PAUtreeRep_struct@1@XXXX5PAPAU23@PAXPAX@Z 
01:00018C28 ?_reverseScan_nd_rep@redBlackTreeRep@@SAXQAVrTypeLibrary@TypeLibraries@RunTime@VIP@@0PAUtuple_struct@core@@PA$?_partialCompare$1@1@SAXXPAPAUcompareResult_struct@_builtIn@@@Z$PA$?_partialCompare$1@1@SAXXPAPAUcompareResult_struct@_builtIn@@@Z$PAUtreeRep_struct@1@XXPAPAU23@PAXPAX@Z  (Idle)
01:00018CE4 ?_reverseScan_nd_rep@redBlackTreeRep@@SAXQAVrTypeLibrary@TypeLibraries@RunTime@VIP@@0PAUtuple_struct@core@@PA$?_partialCompare$1@1@SAXXPAPAUcompareResult_struct@_builtIn@@@Z$PA$?_partialCompare$1@1@SAXXPAPAU45@@Z$PAU45@3PAUtreeRep_struct@1@XXXX5PAPAU23@PAXPAX@Z 
01:00018E50 ?_insert_rep@redBlackTreeRep@@SAXQAVrTypeLibrary@TypeLibraries@RunTime@VIP@@0PAUtreeProperty_struct@1@XPAUtreeRep_struct@1@XXXXPAPAU41@PAXPAX@Z 
01:00018E8C ?_ins@redBlackTreeRep@@SAXQAVrTypeLibrary@TypeLibraries@RunTime@VIP@@0PAUtreeProperty_struct@1@XXXPAUtreeRep_struct@1@XXPAPAU41@PAXPAX@Z 
01:00019050 ?_ins_black@redBlackTreeRep@@SAXQAVrTypeLibrary@TypeLibraries@RunTime@VIP@@0PAUtreeProperty_struct@1@XPAUcompareResult_struct@_builtIn@@XXPAUtreeRep_struct@1@XXXX6PAPAU61@PAXPAX@Z 
01:000191D0 ?_ins_red@redBlackTreeRep@@SAXQAVrTypeLibrary@TypeLibraries@RunTime@VIP@@0PAUtreeProperty_struct@1@XPAUcompareResult_struct@_builtIn@@XXPAUtreeRep_struct@1@XXXX6PAPAU61@PAXPAX@Z 
01:00019360 ?_balance@redBlackTreeRep@@SAXQAVrTypeLibrary@TypeLibraries@RunTime@VIP@@0PAUtreeRep_struct@1@XXXX2PAPAU21@PAXPAX@Z 
01:00019944 ?_makeblack@redBlackTreeRep@@SAXQAVrTypeLibrary@TypeLibraries@RunTime@VIP@@0PAUtreeRep_struct@1@XXPAPAU21@PAXPAX@Z 
01:000199D0 ?_delete_rep@redBlackTreeRep@@SAXQAVrTypeLibrary@TypeLibraries@RunTime@VIP@@0PAUtreeProperty_struct@1@XPAUtreeRep_struct@1@XXXXPAPAU41@PAXPAX@Z 
01:00019A24 ?del@redBlackTreeRep@@SAXQAVrTypeLibrary@TypeLibraries@RunTime@VIP@@0PAUtreeProperty_struct@1@XXXPAUtreeRep_struct@1@XXPAPAU41@PAXPAXPAPAUboolean_struct@_builtIn@@@Z 
01:00019B04 ?del1@redBlackTreeRep@@SAXQAVrTypeLibrary@TypeLibraries@RunTime@VIP@@0PAUtreeProperty_struct@1@XPAUcompareResult_struct@_builtIn@@XXPAUtreeRep_struct@1@XXXX6PAPAU61@PAXPAXPAPAUboolean_struct@5@@Z 
01:00019C64 ?delLeft@redBlackTreeRep@@SAXQAVrTypeLibrary@TypeLibraries@RunTime@VIP@@0PAUtreeProperty_struct@1@XXXPAUtreeRep_struct@1@XXXX5PAPAU41@PAXPAXPAPAUboolean_struct@_builtIn@@@Z 
01:00019D14 ?delRight@redBlackTreeRep@@SAXQAVrTypeLibrary@TypeLibraries@RunTime@VIP@@0PAUtreeProperty_struct@1@XXXPAUtreeRep_struct@1@XXXX5PAPAU41@PAXPAXPAPAUboolean_struct@_builtIn@@@Z 
01:00019DCC ?_tryDeleteOne_rep@redBlackTreeRep@@SAXQAVrTypeLibrary@TypeLibraries@RunTime@VIP@@0PAUtreeProperty_struct@1@XPAUtreeRep_struct@1@XXXPAXPAPAU41@PAXPAX@Z 
01:00019E08 ?_tryDel@redBlackTreeRep@@SAXQAVrTypeLibrary@TypeLibraries@RunTime@VIP@@0PAUtreeProperty_struct@1@XXPAUtreeRep_struct@1@XXPAXPAPAU41@PAXPAX@Z 
01:00019EA8 ?_tryDel1@redBlackTreeRep@@SAXQAVrTypeLibrary@TypeLibraries@RunTime@VIP@@0PAUtreeProperty_struct@1@XPAUcompareResult_struct@_builtIn@@XPAUtreeRep_struct@1@XXXX5PAXPAPAU61@PAXPAX@Z 
01:00019F44 ?_tryDelLeft@redBlackTreeRep@@SAXQAVrTypeLibrary@TypeLibraries@RunTime@VIP@@0PAUtreeProperty_struct@1@XXPAUtreeRep_struct@1@XXXX4PAXPAPAU41@PAXPAX@Z 
01:00019FF0 ?_tryDelRight@redBlackTreeRep@@SAXQAVrTypeLibrary@TypeLibraries@RunTime@VIP@@0PAUtreeProperty_struct@1@XXPAUtreeRep_struct@1@XXXX4PAXPAPAU41@PAXPAX@Z 
01:0001A0A8 ?_balLeft@redBlackTreeRep@@SAXQAVrTypeLibrary@TypeLibraries@RunTime@VIP@@0PAUtreeRep_struct@1@XXXX2PAPAU21@PAXPAX@Z 
01:0001A35C ?_balRight@redBlackTreeRep@@SAXQAVrTypeLibrary@TypeLibraries@RunTime@VIP@@0PAUtreeRep_struct@1@XXXX2PAPAU21@PAXPAX@Z 
01:0001A610 ?_sub1@redBlackTreeRep@@SAXQAVrTypeLibrary@TypeLibraries@RunTime@VIP@@0PAUtreeRep_struct@1@XXPAPAU21@PAXPAX@Z 
01:0001A6C4 ?_mkNode@redBlackTreeRep@@SAXQAVrTypeLibrary@TypeLibraries@RunTime@VIP@@0PAUtreeRep_struct@1@XX2PAPAU21@PAXPAX@Z 
01:0001AA18 ?_mkNodeRR_BC@redBlackTreeRep@@SAXQAVrTypeLibrary@TypeLibraries@RunTime@VIP@@0PAUtreeRep_struct@1@XXXX2XX2PAPAU21@PAXPAX@Z 
01:0001AB48 ?_mkNodeBB_BC@redBlackTreeRep@@SAXQAVrTypeLibrary@TypeLibraries@RunTime@VIP@@0PAUtreeRep_struct@1@XXXX2XX2PAPAU21@PAXPAX@Z 
01:0001AC70 ?_present_treerep/1nf$1@redBlackTreeRep@@SAXPAUpresent_treerep/1nf$1_struct@1@PAPAUtuple_struct@core@@PAXPAX@Z 
01:0001ACB0 ?present_treeRep@redBlackTreeRep@@SGPAUpresentation_struct@presenter@@QAVrTypeLibrary@TypeLibraries@RunTime@VIP@@0PAUtreeRep_struct@1@XX@Z 
--- From 'obj\mapM_redBlack.875A0474.obj'
01:0001AD10 ?new$@mapMSupport@collectionSupport@@SAXQAV1@2@XXQAVrTypeLibrary@TypeLibraries@RunTime@VIP@@1QAVmapMSupportSite@@2@XX@Z 
--- From 'obj\mapMSupport.8CD6C048.obj'
01:0001AD88 ?insert_site$@mapMSupport@collectionSupport@@SAXQAVmodifiableSupportSite@@2@XX@Z 
01:0001ADE8 ?set_optional$@mapMSupport@collectionSupport@@SAXQAV1@2@XXXPAUoptional_struct@core@@X@Z 
01:0001AE40 ?remove_site$@mapMSupport@collectionSupport@@SAXQAVmodifiableSupportSite@@2@XX@Z 
01:0001AEFC ?removeKeyList$@mapMSupport@collectionSupport@@SAXQAV1@2@XXPAU?$__packedList_struct@X@@@Z 
01:0001AF4C ?removeKeyCollection$@mapMSupport@collectionSupport@@SAXQAV1@2@XXQAVcollection@@@X@Z 
01:0001AF94 ?_get_default$@mapMSupport@collectionSupport@@SAXQAVmapSupport@@2@XXXXPAX@Z 
01:0001B020 ?_get_defaultLazy$@mapMSupport@collectionSupport@@SAXQAVmapSupport@@2@XXXPA$?_function$1@core@@SAXPAX@Z$PAX@Z 
01:0001B0C0 ?set$@mapMSupport@collectionSupport@@SAXQAV1@2@XXXX@Z 
01:0001B0DC ?removeKey$@mapMSupport@collectionSupport@@SAXQAV1@2@XXX@Z 
01:0001B0F8 ?_new@mapMSupport@collectionSupport@@SAXQAVrTypeLibrary@TypeLibraries@RunTime@VIP@@0QAVmapMSupportSite@@2@XXPAPAV1@2@PAXPAX@Z  (Idle)
01:0001B12C ?_object_typelib_initializer$@mapMSupport@collectionSupport@@SGXQAV1@2@XXQAVrTypeLibrary@TypeLibraries@RunTime@VIP@@1@Z 
01:0001B148 ?_mk_tl_0_collectionSupport\modifiableSupport{@Type}$imp$$@mapMSupport@collectionSupport@@SGQAVrTypeLibrary@TypeLibraries@RunTime@VIP@@QAV1@2@XX@Z 
--- From 'obj\mapM_redBlack.875A0474.obj'
01:0001B3C8 collectionSupport\mapMSupport{@Key,@Data}?_initObject@@@QAGXQAV1@H@Z 
--- From 'obj\mapMSupport.8CD6C048.obj'
01:0001B444 ?@create_object@mapMSupport@collectionSupport@@SGQAV1@2@XXQAVrTypeLibrary@TypeLibraries@RunTime@VIP@@0@Z 
--- From 'obj\mapM_redBlack.875A0474.obj'
01:0001B46C collectionSupport\mapMSupport{@Key,@Data}?_InternalFinalizer@@@QAGXQAV1@@Z 
--- From 'obj\mapSupport.C7248B7B.obj'
01:0001B490 ?new$@mapSupport@collectionSupport@@SAXQAV1@2@XXQAVrTypeLibrary@TypeLibraries@RunTime@VIP@@1QAVmapSupportSite@@2@XX@Z 
01:0001B4E4 ?_get$@mapSupport@collectionSupport@@SAXQAV1@2@XXXPAX@Z 
01:0001B584 ?_get_default$@mapSupport@collectionSupport@@SAXQAV1@2@XXXXPAX@Z 
01:0001B5F0 ?_get_defaultLazy$@mapSupport@collectionSupport@@SAXQAV1@2@XXXPA$?_function$1@core@@SAXPAX@Z$PAX@Z 
01:0001B680 ?_get_optional$@mapSupport@collectionSupport@@SAXQAV1@2@XXXPAPAUoptional_struct@core@@PAX@Z 
01:0001B700 ?contains$@mapSupport@collectionSupport@@SAXQAV1@2@XXPAUtuple_struct@core@@XX@Z 
01:0001B780 ?_getKey_nd$@mapSupport@collectionSupport@@SAXQAV1@2@XXPAX@Z 
01:0001B7C8 ?_getValue_nd$@mapSupport@collectionSupport@@SAXQAV1@2@XXPAX@Z 
01:0001B810 ?keyList@mapSupport@collectionSupport@@SGPAU?$__packedList_struct@X@@QAV1@2@XX@Z 
01:0001B870 ?valueList@mapSupport@collectionSupport@@SGPAU?$__packedList_struct@X@@QAV1@2@XX@Z 
01:0001B8D0 ?_getFromTo_nd$@mapSupport@collectionSupport@@SAXQAV1@2@XXXXPAPAUtuple_struct@core@@PAXPAX@Z 
01:0001B948 ?presenter$@mapSupport@collectionSupport@@SGPAUpresentation_struct@presenter@@QAV2@2@X@Z 
01:0001B9A0 ?_tryGet$@mapSupport@collectionSupport@@SAXQAV1@2@XXXPAX@Z 
01:0001B9E4 ?_upFrom_nd$@mapSupport@collectionSupport@@SAXQAV1@2@XXXPAPAUtuple_struct@core@@PAXPAX@Z 
01:0001BA00 ?_getAll_nd_site$@mapSupport@collectionSupport@@SAXQAVcollectionSupportSite@@2@XPAX@Z 
01:0001BA1C ?_new@mapSupport@collectionSupport@@SAXQAVrTypeLibrary@TypeLibraries@RunTime@VIP@@0QAVmapSupportSite@@2@XXPAPAV1@2@PAXPAX@Z  (Idle)
01:0001BA50 ?_object_typelib_initializer$@mapSupport@collectionSupport@@SGXQAV1@2@XXQAVrTypeLibrary@TypeLibraries@RunTime@VIP@@1@Z 
01:0001BA6C ?_mk_tl_0_collectionSupport\collectionSupport{@Type}$imp$$@mapSupport@collectionSupport@@SGQAVrTypeLibrary@TypeLibraries@RunTime@VIP@@QAV1@2@XX@Z 
01:0001BB10 collectionSupport\mapSupport{@Key,@Data}?_initObject@@@QAGXQAV1@H@Z 
01:0001BB6C ?@create_object@mapSupport@collectionSupport@@SGQAV1@2@XXQAVrTypeLibrary@TypeLibraries@RunTime@VIP@@0@Z 
01:0001BB94 collectionSupport\mapSupport{@Key,@Data}?_InternalFinalizer@@@QAGXQAV1@@Z 
--- From 'obj\collectionMsupport.3A44ED4E.obj'
01:0001BBB0 ?new$@collectionSupport@1@SAXQAV1@1@XQAVrTypeLibrary@TypeLibraries@RunTime@VIP@@QAVcollectionSupportSite@@1@X@Z 
--- From 'obj\collectionSupport.A039CC0D.obj'
01:0001BBC4 ?isEmpty$@collectionSupport@1@SAXQAV1@1@X@Z 
01:0001BC24 ?_tryGetFirst$@collectionSupport@1@SAXQAV1@1@XPAX@Z 
01:0001BC7C ?asList@collectionSupport@1@SGPAU?$__packedList_struct@X@@QAV1@1@X@Z 
01:0001BCF8 ?presenter$@collectionSupport@1@SGPAUpresentation_struct@presenter@@QAV1@1@X@Z 
01:0001BD4C ?_getAll_nd$@collectionSupport@1@SAXQAV1@1@XPAX@Z 
01:0001BD68 ?_new@collectionSupport@1@SAXQAVrTypeLibrary@TypeLibraries@RunTime@VIP@@QAVcollectionSupportSite@@1@XPAPAV1@1@PAX@Z  (Idle)
01:0001BD98 ?_object_typelib_initializer$@collectionSupport@1@SGXQAV1@1@XQAVrTypeLibrary@TypeLibraries@RunTime@VIP@@@Z 
--- From 'obj\collectionMsupport.3A44ED4E.obj'
01:0001BDB8 collectionSupport\collectionSupport{@Type}?_initObject@@@QAGXQAV1@H@Z 
--- From 'obj\collectionSupport.A039CC0D.obj'
01:0001BDE0 ?@create_object@collectionSupport@1@SGQAV1@1@XQAVrTypeLibrary@TypeLibraries@RunTime@VIP@@@Z 
--- From 'obj\collectionMsupport.3A44ED4E.obj'
01:0001BE04 collectionSupport\collectionSupport{@Type}?_InternalFinalizer@@@QAGXQAV1@@Z 
01:0001BE10 ?new$@modifiableSupport@collectionSupport@@SAXQAV1@2@XQAVrTypeLibrary@TypeLibraries@RunTime@VIP@@QAVmodifiableSupportSite@@2@X@Z 
--- From 'obj\modifiableSupport.5D48FFF1.obj'
01:0001BE24 ?insertList$@modifiableSupport@collectionSupport@@SAXQAV1@2@XPAU?$__packedList_struct@X@@@Z 
01:0001BE74 ?insertCollection$@modifiableSupport@collectionSupport@@SAXQAV1@2@XQAVcollection@@@X@Z 
01:0001BEBC ?insertEnumerator$@modifiableSupport@collectionSupport@@SAXQAV1@2@XPA$?_function_nd$1@core@@SAXPAX@Z$@Z 
01:0001BF04 ?removeList$@modifiableSupport@collectionSupport@@SAXQAV1@2@XPAU?$__packedList_struct@X@@@Z 
01:0001BF54 ?removeCollection$@modifiableSupport@collectionSupport@@SAXQAV1@2@XQAVcollection@@@X@Z 
01:0001BF9C ?_tryRemoveFirst$@modifiableSupport@collectionSupport@@SAXQAV1@2@XPAX@Z 
01:0001BFD4 ?insert$@modifiableSupport@collectionSupport@@SAXQAV1@2@XX@Z 
01:0001BFF0 ?remove$@modifiableSupport@collectionSupport@@SAXQAV1@2@XX@Z 
01:0001C00C ?_new@modifiableSupport@collectionSupport@@SAXQAVrTypeLibrary@TypeLibraries@RunTime@VIP@@QAVmodifiableSupportSite@@2@XPAPAV1@2@PAX@Z  (Idle)
01:0001C03C ?_object_typelib_initializer$@modifiableSupport@collectionSupport@@SGXQAV1@2@XQAVrTypeLibrary@TypeLibraries@RunTime@VIP@@@Z 
--- From 'obj\collectionMsupport.3A44ED4E.obj'
01:0001C05C collectionSupport\modifiableSupport{@Type}?_initObject@@@QAGXQAV1@H@Z 
--- From 'obj\modifiableSupport.5D48FFF1.obj'
01:0001C084 ?@create_object@modifiableSupport@collectionSupport@@SGQAV1@2@XQAVrTypeLibrary@TypeLibraries@RunTime@VIP@@@Z 
--- From 'obj\collectionMsupport.3A44ED4E.obj'
01:0001C0A8 collectionSupport\modifiableSupport{@Type}?_InternalFinalizer@@@QAGXQAV1@@Z 
--- From 'obj\segmented_binary.C16992E7.obj'
01:0001C0C0 ?_mkSegment@segmented_binary@@SAXQAEPAPAUsegmented_struct@segmented@@QAPAE@Z 
01:0001C11C ?_getAsBinary@segmented_binary@@SAXPAUsegmented_struct@segmented@@QAEQAPAE@Z  (Idle)
01:0001C19C ?_mkSegment_site$@segmented_binary@@SAXQAVsegmentedSupportSite@@@XXPAPAUsegmented_struct@segmented@@PAX@Z 
01:0001C1B4 ?_mkSegmentFromBuffer_site$@segmented_binary@@SAXQAVsegmentedSupportSite@@@XPAXPBUbyteCount@core@@PAX@Z 
01:0001C1D4 ?_concat_site$@segmented_binary@@SAXQAVsegmentedSupportSite@@@XXXPAX@Z 
01:0001C1F4 ?_front_site$@segmented_binary@@SAXQAVsegmentedSupportSite@@@XXPBUbyteCount@core@@PAX@Z 
01:0001C20C ?_rear_site$@segmented_binary@@SAXQAVsegmentedSupportSite@@@XXPBUbyteCount@core@@PAX@Z 
01:0001C248 ?isReadable_site$@segmented_binary@@SAXQAVsegmentedSupportSite@@@XXPBUbyteCount@core@@@Z 
01:0001C264 ?new$@segmented_binary@@SAXQAV1@@@Z  (Idle)
01:0001C26C ?_getSize@segmented_binary@@SAXPAUsegmented_struct@segmented@@QAEAAUbyteCount@core@@@Z  (Idle)
01:0001C298 ?_concat@segmented_binary@@SAXPAUsegmented_struct@segmented@@QAE0PAPAU23@QAPAE@Z  (Idle)
01:0001C2F4 ?_front@segmented_binary@@SAXPAUsegmented_struct@segmented@@QAEPBUbyteCount@core@@PAPAU23@QAPAE@Z  (Idle)
01:0001C350 ?_rear@segmented_binary@@SAXPAUsegmented_struct@segmented@@QAEPBUbyteCount@core@@PAPAU23@QAPAE@Z  (Idle)
01:0001C3AC ?_subSegment@segmented_binary@@SAXPAUsegmented_struct@segmented@@QAEPBUbyteCount@core@@1PAPAU23@QAPAE@Z  (Idle)
01:0001C410 ?split@segmented_binary@@SAXPAUsegmented_struct@segmented@@QAEPBUbyteCount@core@@PAPAU23@QAPAE2@Z  (Idle)
01:0001C474 ?_insert@segmented_binary@@SAXPAUsegmented_struct@segmented@@QAEPBUbyteCount@core@@0PAPAU23@QAPAE@Z  (Idle)
--- From 'obj\fileSystem.5B0F823E.obj'
01:0001C4D8 ?_getAll_nd@segmented_binary@@SAXPAUsegmented_struct@segmented@@QAEQAPAE@Z 
--- From 'obj\segmented_binary.C16992E7.obj'
01:0001C52C ?_mkIterator@segmented_binary@@SAXPAUsegmented_struct@segmented@@QAEPBUbyteCount@core@@PAPAViterator@@@PAPAUtuple_struct@5@AAU45@QAPAE@Z 
01:0001C588 ?validate@segmented_binary@@SAXPAUsegmented_struct@segmented@@QAE@Z  (Idle)
01:0001C5D4 ?_toTerm@segmented_binary@@SAXQAVrTypeLibrary@TypeLibraries@RunTime@VIP@@PAUsegmented_struct@segmented@@QAEPAX@Z  (Idle)
01:0001C65C ?_fromTerm@segmented_binary@@SAXQAVrTypeLibrary@TypeLibraries@RunTime@VIP@@XPAPAUsegmented_struct@segmented@@QAPAE@Z  (Idle)
01:0001C6B4 ?_getAsBinary_nd@segmented_binary@@SAXPAUsegmented_struct@segmented@@QAEPBUbyteCount@core@@QAPAE@Z  (Idle)
01:0001C7E4 ?_getAsBinaryFrom@segmented_binary@@SAXQAViterator@@@PAUtuple_struct@core@@PBUbyteCount@4@QAEPBU54@1QAPAE@Z 
01:0001CA30 ?_new@segmented_binary@@SAXPAPAVsegmentedSupportSite@@@QAPAE@Z  (Idle)
01:0001CA58 ?__lateFactInit$support$0$segmented_binary@classDB@1@SAXPAPAVsegmentedSupport@@@QAPAE@Z 
01:0001CA90 ?support@segmented_binary@@SGQAVsegmentedSupport@@@QAEXZ 
01:0001CAD0 segmented_binary?_initObject@@@QAGXQAV1@H@Z 
01:0001CAE4 ?@create_object@segmented_binary@@SGQAV1@@XZ 
01:0001CB00 segmented_binary?_InternalFinalizer@@@QAGXQAV1@@Z 
--- From 'obj\string.19AABD3B.obj'
01:0001CB10 ?_mkSegment@segmented_utf16@@SAXPB_WPAPAUsegmented_utf16_struct@segmented@@@Z 
--- From 'obj\segmented_utf16.76E668A2.obj'
01:0001CB3C ?_mkSegment_pure@segmented_utf16@@SAXPB_WPAPAUsegmented_struct@segmented@@PAPB_W@Z 
01:0001CBB0 ?_stripBOM@segmented_utf16@@SAXPAUsegmented_utf16_struct@segmented@@PAPAU23@@Z  (Idle)
--- From 'obj\string.19AABD3B.obj'
01:0001CC4C ?_getAsString@segmented_utf16@@SAXPAUsegmented_utf16_struct@segmented@@PAPB_W@Z 
--- From 'obj\segmented_utf16.76E668A2.obj'
01:0001CCE8 ?_mkSegment_site$@segmented_utf16@@SAXQAVsegmentedSupportSite@@@XXPAPAUsegmented_struct@segmented@@PAX@Z 
01:0001CD00 ?_mkSegmentFromBuffer_site$@segmented_utf16@@SAXQAVsegmentedSupportSite@@@XPAXPBUbyteCount@core@@PAX@Z 
01:0001CD20 ?_concat_site$@segmented_utf16@@SAXQAVsegmentedSupportSite@@@XXXPAX@Z 
01:0001CD40 ?_front_site$@segmented_utf16@@SAXQAVsegmentedSupportSite@@@XXPBUbyteCount@core@@PAX@Z 
01:0001CD78 ?_rear_site$@segmented_utf16@@SAXQAVsegmentedSupportSite@@@XXPBUbyteCount@core@@PAX@Z 
01:0001CDAC ?isReadable_site$@segmented_utf16@@SAXQAVsegmentedSupportSite@@@XXPBUbyteCount@core@@@Z 
01:0001CDD8 ?new$@segmented_utf16@@SAXQAV1@@@Z  (Idle)
01:0001CDE0 ?_getSize@segmented_utf16@@SAXPAUsegmented_utf16_struct@segmented@@AAUcharCount@core@@@Z  (Idle)
01:0001CE14 ?_concat@segmented_utf16@@SAXPAUsegmented_utf16_struct@segmented@@0PAPAU23@@Z  (Idle)
01:0001CE98 ?_front@segmented_utf16@@SAXPAUsegmented_utf16_struct@segmented@@PBUcharCount@core@@PAPAU23@@Z  (Idle)
01:0001CF28 ?_rear@segmented_utf16@@SAXPAUsegmented_utf16_struct@segmented@@PBUcharCount@core@@PAPAU23@@Z 
01:0001CFB8 ?_subSegment@segmented_utf16@@SAXPAUsegmented_utf16_struct@segmented@@PBUcharCount@core@@1PAPAU23@@Z  (Idle)
01:0001D064 ?split@segmented_utf16@@SAXPAUsegmented_utf16_struct@segmented@@PBUcharCount@core@@PAPAU23@2@Z  (Idle)
01:0001D118 ?_insert@segmented_utf16@@SAXPAUsegmented_utf16_struct@segmented@@PBUcharCount@core@@0PAPAU23@@Z  (Idle)
--- From 'obj\fileSystem.5B0F823E.obj'
01:0001D1B8 ?_getAll_nd@segmented_utf16@@SAXPAUsegmented_utf16_struct@segmented@@PAPB_W@Z 
--- From 'obj\string.19AABD3B.obj'
01:0001D218 ?_mkIterator@segmented_utf16@@SAXPAUsegmented_utf16_struct@segmented@@PBUcharCount@core@@PAPAViterator@@@PAPAUtuple_struct@5@AAUbyteCount@5@PAPB_W@Z 
--- From 'obj\segmented_utf16.76E668A2.obj'
01:0001D294 ?validate@segmented_utf16@@SAXPAUsegmented_utf16_struct@segmented@@@Z  (Idle)
01:0001D2EC ?_fromCC@segmented_utf16@@SAXPBUcharCount@core@@AAUbyteCount@3@@Z 
01:0001D300 ?_toCC@segmented_utf16@@SAXPBUbyteCount@core@@AAUcharCount@3@@Z 
01:0001D328 ?_toTerm@segmented_utf16@@SAXQAVrTypeLibrary@TypeLibraries@RunTime@VIP@@PAUsegmented_utf16_struct@segmented@@PAX@Z  (Idle)
01:0001D3B0 ?_fromTerm@segmented_utf16@@SAXQAVrTypeLibrary@TypeLibraries@RunTime@VIP@@XPAPAUsegmented_utf16_struct@segmented@@@Z  (Idle)
01:0001D420 ?_new@segmented_utf16@@SAXPAPAVsegmentedSupportSite@@@PAPB_W@Z  (Idle)
01:0001D448 ?__lateFactInit$support$0$segmented_utf16@classDB@1@SAXPAPAVsegmentedSupport@@@PAPB_W@Z 
--- From 'obj\string.19AABD3B.obj'
01:0001D480 ?support@segmented_utf16@@SGQAVsegmentedSupport@@@PB_WXZ 
--- From 'obj\segmented_utf16.76E668A2.obj'
01:0001D4C0 segmented_utf16?_initObject@@@QAGXQAV1@H@Z 
01:0001D4D4 ?@create_object@segmented_utf16@@SGQAV1@@XZ 
01:0001D4F0 segmented_utf16?_InternalFinalizer@@@QAGXQAV1@@Z 
--- From 'obj\inputSupport_mode.ADC075EF.obj'
01:0001D500 ?_halfBufferSize$@inputSupport_mode@@SAXQAV1@@AAUbyteCount@core@@@Z  (Idle)
--- From 'obj\fileSystem.5B0F823E.obj'
01:0001D52C ?newText$@inputSupport_mode@@SAXQAV1@@QAVinputSupportSite_mode@@@PBUbyteCount@core@@@Z 
--- From 'obj\inputSupport_mode.ADC075EF.obj'
01:0001D5A0 ?_getTextMode$@inputSupport_mode@@SAXQAV1@@PAXPBUbyteCount@core@@PAPAUmode_struct@stream@@@Z 
--- From 'obj\fileSystem.5B0F823E.obj'
01:0001D680 ?new$@inputSupport_mode@@SAXQAV1@@QAVinputSupportSite_mode@@@PAUmode_struct@stream@@PAUboolean_struct@_builtIn@@PBUbyteCount@core@@@Z 
--- From 'obj\inputSupport_mode.ADC075EF.obj'
01:0001D794 ?allocBuffer$@inputSupport_mode@@SAXQAV1@@@Z 
01:0001D7F0 ?handlingMode$@inputSupport_mode@@SAXQAV1@@PAUmode_struct@stream@@@Z 
01:0001D8F0 ?getPosition$@inputSupport_mode@@SGPBUfileSize@fileSystem_api@@QAVstream@@@@Z 
01:0001D9B0 ?_handlingFileMode$@inputSupport_mode@@SAXQAV1@@PAUmode_struct@stream@@PBUbyteCount@core@@2AAU56@@Z 
01:0001DA90 ?_handleTextMode$@inputSupport_mode@@SAXQAV1@@PAUmode_struct@stream@@PBUbyteCount@core@@IAAU56@@Z 
01:0001DB94 ?_getPassedConv@inputSupport_mode@@SAXPAU?$__packedList_struct@PBUbyteCount@core@@@@IIPBU23@PAI@Z 
01:0001DC54 ?setPosition$@inputSupport_mode@@SGXQAVstream@@@PBUfileSize@fileSystem_api@@@Z 
01:0001DD8C ?_checkMovingIsInsideBuffer@inputSupport_mode@@SAXPAPBUfileSize@fileSystem_api@@0PBUbyteCount@core@@2AAU67@@Z 
01:0001DF50 ?close$@inputSupport_mode@@SGXQAVstream@@@@Z 
01:0001DFF0 ?getCRLFconversion$@inputSupport_mode@@SGPAUboolean_struct@_builtIn@@QAVstream@@@@Z 
01:0001E038 ?setCRLFconversion$@inputSupport_mode@@SGXQAVstream@@@PAUboolean_struct@_builtIn@@@Z 
01:0001E15C ?setMode$@inputSupport_mode@@SGXQAVstream@@@PAUmode_struct@2@@Z 
01:0001E1F4 ?_checkModeAndPos$@inputSupport_mode@@SAXQAV1@@PAUmode_struct@stream@@PAPBUfileSize@fileSystem_api@@PAAAU56@@Z 
01:0001E314 ?getBufferLocked$@inputSupport_mode@@SGXQAVbufferSupport@@@PAPAXAAUbyteCount@core@@@Z 
01:0001E340 ?getBuffer$@inputSupport_mode@@SGXQAVbufferSupport@@@PAPAXAAUbyteCount@core@@@Z 
01:0001E394 ?_fillBuffer$@inputSupport_mode@@SAXQAV1@@PAUmode_struct@stream@@AAUbyteCount@core@@@Z 
01:0001E524 ?_getChar8sToSave@inputSupport_mode@@SAXPBUcodePage@core@@PAXPBUbyteCount@3@AAU43@@Z 
01:0001E598 ?_getChar8sToSave_utf8@inputSupport_mode@@SAXPAXPBUbyteCount@core@@AAU23@@Z 
01:0001E610 ?_utf8CharLength@inputSupport_mode@@SAXPBUunsigned8@core@@AAUbyteCount@3@@Z 
01:0001E6D8 ?_convertToUnicode$@inputSupport_mode@@SAXQAV1@@PBUbyteCount@core@@PBUcodePage@4@PAXAAUcharCount@4@@Z 
01:0001E754 ?convertCRLFtoLF_ifNeeded$@inputSupport_mode@@SAXQAV1@@PAUmode_struct@stream@@PBUbyteCount@core@@PAPAXAAU56@@Z 
01:0001E85C ?handlingBufferLastChar$@inputSupport_mode@@SAXQAV1@@PBUbyteCount@core@@PAPAXAAU34@@Z 
01:0001E898 ?finalize$@inputSupport_mode@@SGXQAV1@@@Z 
01:0001E8B8 ?_new@inputSupport_mode@@SAXQAVinputSupportSite_mode@@@PAUmode_struct@stream@@PAUboolean_struct@_builtIn@@PBUbyteCount@core@@PAPAV1@@@Z  (Idle)
01:0001E8EC ?_newText@inputSupport_mode@@SAXQAVinputSupportSite_mode@@@PBUbyteCount@core@@PAPAV1@@@Z  (Idle)
01:0001E918 ?_object_facts_initializer$@inputSupport_mode@@SGXQAV1@@@Z 
--- From 'obj\fileSystem.5B0F823E.obj'
01:0001EBE8 inputSupport_mode?_initObject@@@QAGXQAV1@H@Z 
--- From 'obj\inputSupport_mode.ADC075EF.obj'
01:0001EC20 ?@create_object@inputSupport_mode@@SGQAV1@@XZ 
--- From 'obj\fileSystem.5B0F823E.obj'
01:0001EC3C inputSupport_mode?_InternalFinalizer@@@QAGXQAV1@@Z 
--- From 'obj\systemInformation_api.809129C1.obj'
01:0001ECA0 ?getVersionEx@systemInformation_api@@SAXPAIPAIPAIPAIPAPB_WAAUunsigned16@core@@55AAUunsigned8@3@@Z  (Idle)
01:0001ED64 ?systemInfo@systemInformation_api@@SGPAUsystem_Info_struct@systemInformation_native@@XZ 
01:0001ED90 ?nativeSystemInfo@systemInformation_api@@SGPAUsystem_Info_struct@systemInformation_native@@XZ 
01:0001EDBC ?isWindows64@systemInformation_api@@SAXXZ  (Idle)
01:0001EDD8 ?_getUserName@systemInformation_api@@SAXPAPB_W@Z  (Idle)
01:0001EE64 ?_getUserNameEx@systemInformation_api@@SAXPBUuserNameFormat@systemInformation_native@@PAPB_W@Z  (Idle)
01:0001EEE8 ?_getComputerName@systemInformation_api@@SAXPAPB_W@Z  (Idle)
01:0001EF74 ?_getComputerNameEx@systemInformation_api@@SAXPBUcomputerNameFormat@systemInformation_native@@PAPB_W@Z  (Idle)
01:0001EFF8 ?systemParametersInfo@systemInformation_api@@SAXIIPAXI@Z  (Idle)
01:0001F044 ?systemParametersInfo_outInt@systemInformation_api@@SAXIIPAHI@Z  (Idle)
01:0001F090 ?_getNonclientMetrics@systemInformation_api@@SAXPAPAUnonclientMetrics_struct@systemInformation_native@@@Z  (Idle)
01:0001F0CC ?_getNonclientMetricsXP@systemInformation_api@@SAXPAPAUnonclientMetricsXP_struct@systemInformation_native@@@Z  (Idle)
01:0001F108 ?osVersion@systemInformation_api@@SGPBU01@XZ  (Idle)
01:0001F15C ?majorOSversion@systemInformation_api@@SGIXZ  (Idle)
--- From 'obj\commandLineParser.67E728BA.obj'
01:0001F1A0 ?new$@commandLineParser@@SAXQAV1@@@Z  (Idle)
01:0001F1D4 ?new_caseSensitive$@commandLineParser@@SAXQAV1@@@Z  (Idle)
01:0001F200 ?programName@commandLineParser@@SGPB_WQAV1@@@Z 
01:0001F254 ?programName@commandLineParser@@SGXQAV1@@PB_W@Z 
01:0001F26C ?description@commandLineParser@@SGPB_WQAV1@@@Z 
01:0001F2D0 ?description@commandLineParser@@SGXQAV1@@PB_W@Z 
01:0001F2E8 ?addoption_0/3np$1@commandLineParser@@SAXPAUaddoption_0/3np$1_struct@1@PAU?$__packedList_struct@PB_W@@@Z 
01:0001F330 ?addOption_0$@commandLineParser@@SAXQAV1@@PB_W1X@Z 
01:0001F390 ?addoption_1/4np$1@commandLineParser@@SAXPAUaddoption_1/4np$1_struct@1@PAU?$__packedList_struct@PB_W@@@Z 
01:0001F410 ?addOption_1$@commandLineParser@@SAXQAV1@@PB_W11PA$?predicate$1@core@@SAXPB_W@Z$@Z 
01:0001F480 ?addoption_2/5np$1@commandLineParser@@SAXPAUaddoption_2/5np$1_struct@1@PAU?$__packedList_struct@PB_W@@@Z 
01:0001F54C ?addOption_2$@commandLineParser@@SAXQAV1@@PB_W111PA$?predicate$2@core@@SAXPB_W0@Z$@Z 
01:0001F5D0 ?addoption_n/3np$1@commandLineParser@@SAXPAUaddoption_n/3np$1_struct@1@PAU?$__packedList_struct@PB_W@@@Z 
01:0001F5FC ?addOption_N$@commandLineParser@@SAXQAV1@@PB_W1PA$?predicate$1@core@@SAXPAU?$__packedList_struct@PB_W@@@Z$@Z 
01:0001F65C ?addoption_boolean/3np$1@commandLineParser@@SAXPAUaddoption_boolean/3np$1_struct@1@PAU?$__packedList_struct@PB_W@@@Z 
01:0001F69C ?addOption_boolean$@commandLineParser@@SAXQAV1@@PB_W1QAVvarM_boolean@@@@Z 
01:0001F700 ?addoption_help/1np$1@commandLineParser@@SAXPAUaddoption_help/1np$1_struct@1@@Z 
01:0001F734 ?addOption_help$@commandLineParser@@SAXQAV1@@PB_W@Z 
01:0001F774 ?addOption$@commandLineParser@@SAXQAV1@@PB_W1PAUtuple_struct@core@@PAU?$__packedList_struct@1@@PA$?predicate$1@4@SAXPAU?$__packedList_struct@PB_W@@@Z$PAUboolean_struct@_builtIn@@@Z 
01:0001F8B4 ?_parse$@commandLineParser@@SAXQAV1@@PAPAUoptional_struct@core@@PAPB_W@Z 
01:0001F8E4 ?_parse$@commandLineParser@@SAXQAV1@@PB_WPAPAUoptional_struct@core@@PAPB_W@Z 
01:0001F99C ?_gatherResult$@commandLineParser@@SAXQAV1@@PAPAUoptional_struct@core@@PAPB_W@Z 
01:0001FB84 ?parse_list$@commandLineParser@@SAXQAV1@@PAU?$__packedList_struct@PB_W@@@Z 
01:0001FBC8 ?_parse_one$@commandLineParser@@SAXQAV1@@PB_WPAU?$__packedList_struct@1@@PAPAU?$__packedList_struct@PAPB_W@@@Z 
01:0001FE54 ?_loadOptionsFile$@commandLineParser@@SAXQAV1@@PB_WPAU?$__packedList_struct@1@@PAPAU?$__packedList_struct@PAPB_W@@@Z 
01:00020000 ?_tryGetArgList$@commandLineParser@@SAXQAV1@@PAU?$__packedList_struct@PB_W@@PAU?$__packedList_struct@1@@PAPAU?$__packedList_struct@PAPB_W@@3@Z 
01:000200B8 ?_tryGetArgListL$@commandLineParser@@SAXQAV1@@PAU?$__packedList_struct@PB_W@@PAPAU?$__packedList_struct@PAPB_W@@2@Z 
01:00020194 ?handleRegular$@commandLineParser@@SAXQAV1@@PB_W@Z 
01:000201D8 ?error$@commandLineParser@@SAXQAV1@@PB_W@Z 
01:0002020C ?_isOptionsFile@commandLineParser@@SAXPB_WPAPB_W@Z 
01:0002023C ?isOption$@commandLineParser@@SAXQAV1@@PB_W@Z 
01:00020278 ?arguments@commandLineParser@@SGPAU?$__packedList_struct@PB_W@@QAV1@@@Z 
01:00020318 ?serialize_usage$@commandLineParser@@SAXQAV1@@QAVoutputStream@@@@Z 
01:00020370 ?serialize_description$@commandLineParser@@SAXQAV1@@QAVoutputStream@@@@Z 
01:000203C8 ?serialize_options$@commandLineParser@@SAXQAV1@@QAVoutputStream@@@@Z 
01:0002058C ?_serialize_option@commandLineParser@@SAXPB_WPAU?$__packedList_struct@0@@PAPB_W@Z 
01:00020640 ?serialize_errors$@commandLineParser@@SAXQAV1@@QAVoutputStream@@@@Z 
01:000207C8 ?usage@commandLineParser@@SGPB_WQAV1@@@Z 
01:00020808 ?_toBooleanOption$@commandLineParser@@SAXQAV1@@PAU?$__packedList_struct@PB_W@@PAPAUboolean_struct@_builtIn@@@Z 
01:00020928 ?_new@commandLineParser@@SAXPAPAV1@@@Z  (Idle)
01:00020950 ?_new_caseSensitive@commandLineParser@@SAXPAPAV1@@@Z  (Idle)
01:00020978 ?onregular/0nf_fv$1@commandLineParser@@SAXPB_W@Z 
01:0002098C ?_object_facts_initializer$@commandLineParser@@SGXQAV1@@@Z 
01:000209D0 ?onRegular@commandLineParser@@SGXQAV1@@X@Z 
01:000209E0 ?onRegular@commandLineParser@@SGXQAV1@@@Z 
01:000209EC ?optionChar@commandLineParser@@SGXQAV1@@_W@Z 
01:000209FC ?optionChar@commandLineParser@@SG_WQAV1@@@Z 
01:00020A08 ?commandLineDescription@commandLineParser@@SGXQAV1@@PB_W@Z 
01:00020A18 ?commandLineDescription@commandLineParser@@SGPB_WQAV1@@@Z 
01:00020A24 ?acceptEmpty@commandLineParser@@SGXQAV1@@PAUboolean_struct@_builtIn@@@Z 
01:00020A34 ?acceptEmpty@commandLineParser@@SGPAUboolean_struct@_builtIn@@QAV1@@@Z 
01:00020A40 ?checkArguments@commandLineParser@@SGXQAV1@@X@Z 
01:00020A50 ?checkArguments@commandLineParser@@SGXQAV1@@@Z 
01:00020A74 commandLineParser?_initObject@@@QAGXQAV1@H@Z 
01:00020A98 ?@create_object@commandLineParser@@SGQAV1@@XZ 
01:00020AB4 commandLineParser?_InternalFinalizer@@@QAGXQAV1@@Z 
--- From 'obj\varM.B882E173.obj'
01:00020AC0 ?new$@varM_unsigned@@SAXQAV1@@I@Z  (Idle)
01:00020AE0 ?newModel_unary$@varM_unsigned@@SAXQAV1@@QAVvarM@@@IPA$?_function$2@core@@SAXIPAI@Z$@Z  (Idle)
01:00020B0C ?newModel_binary$@varM_unsigned@@SAXQAV1@@QAVvarM@@@I1PA$?_function$3@core@@SAXIIPAI@Z$@Z  (Idle)
01:00020B40 ?_add$@varM_unsigned@@SAXQAV1@@IPAI@Z 
01:00020B70 ?_sub$@varM_unsigned@@SAXQAV1@@IPAI@Z 
01:00020BA0 ?_max$@varM_unsigned@@SAXQAV1@@IPAI@Z 
01:00020BE4 ?_min$@varM_unsigned@@SAXQAV1@@IPAI@Z 
01:00020C28 ?_inc$@varM_unsigned@@SAXQAV1@@PAI@Z 
01:00020C64 ?_dec$@varM_unsigned@@SAXQAV1@@PAI@Z 
01:00020CA0 ?_setF$@varM_unsigned@@SAXQAV1@@IPAI@Z 
01:00020CB4 ?add$@varM_unsigned@@SAXQAV1@@I@Z 
01:00020CD4 ?sub$@varM_unsigned@@SAXQAV1@@I@Z 
01:00020CF4 ?max$@varM_unsigned@@SAXQAV1@@I@Z 
01:00020D14 ?min$@varM_unsigned@@SAXQAV1@@I@Z 
01:00020D34 ?inc$@varM_unsigned@@SAXQAV1@@@Z 
01:00020D50 ?dec$@varM_unsigned@@SAXQAV1@@@Z 
01:00020D6C ?_new@varM_unsigned@@SAXIPAPAV1@@@Z  (Idle)
01:00020D94 ?_newModel_unary@varM_unsigned@@SAXQAVvarM@@@IPA$?_function$2@core@@SAXIPAI@Z$PAPAV1@@@Z  (Idle)
01:00020DC0 ?_newModel_binary@varM_unsigned@@SAXQAVvarM@@@I0PA$?_function$3@core@@SAXIIPAI@Z$PAPAV1@@@Z  (Idle)
01:00020DF0 ?new$@varM_reference@@SAXQAV1@@XQAVrTypeLibrary@TypeLibraries@RunTime@VIP@@PAUpointerTo_struct@_builtIn@@X@Z  (Idle)
01:00020E04 ?_value@varM_reference@@SAXQAVvarM@@@XPAX@Z 
01:00020E30 ?value@varM_reference@@SAXQAVvarM@@@XX@Z 
01:00020E8C ?modified@varM_reference@@SGQAVevent0@@@QAVvarM@@@X@Z 
01:00020EA8 ?presenter$@varM_reference@@SGPAUpresentation_struct@presenter@@QAVvarM@@@X@Z 
01:00020ED8 ?_new@varM_reference@@SAXQAVrTypeLibrary@TypeLibraries@RunTime@VIP@@PAUpointerTo_struct@_builtIn@@XPAPAVvarM@@@PAX@Z  (Idle)
01:00020F08 ?_object_typelib_initializer$@varM_reference@@SGXQAV1@@XQAVrTypeLibrary@TypeLibraries@RunTime@VIP@@@Z 
01:00020F20 ?new$@varM_optional@@SAXQAV1@@XQAVrTypeLibrary@TypeLibraries@RunTime@VIP@@@Z  (Idle)
01:00020F60 ?new$@varM_optional@@SAXQAV1@@XQAVrTypeLibrary@TypeLibraries@RunTime@VIP@@X@Z  (Idle)
01:00020FB4 ?_tryGet$@varM_optional@@SAXQAV1@@XPAX@Z 
01:00020FFC ?noValue$@varM_optional@@SAXQAV1@@X@Z 
01:00021024 ?set$@varM_optional@@SAXQAV1@@XX@Z 
01:0002104C ?unset$@varM_optional@@SAXQAV1@@X@Z 
01:00021064 ?_new@varM_optional@@SAXQAVrTypeLibrary@TypeLibraries@RunTime@VIP@@PAPAV1@@PAX@Z 
01:00021090 ?_new@varM_optional@@SAXQAVrTypeLibrary@TypeLibraries@RunTime@VIP@@XPAPAV1@@PAX@Z  (Idle)
01:000210C0 ?_object_typelib_initializer$@varM_optional@@SGXQAV1@@XQAVrTypeLibrary@TypeLibraries@RunTime@VIP@@@Z 
01:000210D8 ?_mk_tl_0_varM{@Term}$imp$$@varM_optional@@SGQAVrTypeLibrary@TypeLibraries@RunTime@VIP@@QAV1@@X@Z 
01:00021114 ?new$@varM_lazy@@SAXQAV1@@XQAVrTypeLibrary@TypeLibraries@RunTime@VIP@@PA$?_function$1@core@@SAXPAX@Z$@Z  (Idle)
01:00021128 ?modified@varM_lazy@@SGQAVevent0@@@QAVvarM@@@X@Z 
01:0002119C ?_value@varM_lazy@@SAXQAVvarM@@@XPAX@Z 
01:00021200 ?value@varM_lazy@@SAXQAVvarM@@@XX@Z 
01:0002122C ?plainSet$@varM_lazy@@SAXQAV1@@XX@Z 
01:00021250 ?listenerSet$@varM_lazy@@SAXQAV1@@XX@Z 
01:00021308 ?clear$@varM_lazy@@SAXQAV1@@X@Z 
01:00021358 ?clear$@varM_lazy@@SAXQAV1@@XPA$?_function$1@core@@SAXPAX@Z$@Z 
01:0002136C ?presenter$@varM_lazy@@SGPAUpresentation_struct@presenter@@QAVvarM@@@X@Z 
01:000213E4 ?_new@varM_lazy@@SAXQAVrTypeLibrary@TypeLibraries@RunTime@VIP@@PA$?_function$1@core@@SAXPAX@Z$PAPAV1@@PAX@Z  (Idle)
01:00021414 ?_object_typelib_initializer$@varM_lazy@@SGXQAV1@@XQAVrTypeLibrary@TypeLibraries@RunTime@VIP@@@Z 
01:0002142C ?_object_facts_initializer$_1$@varM_lazy@@SGXQAV1@@X@Z 
01:00021448 ?_object_facts_initializer$_2$@varM_lazy@@SGXQAV1@@X@Z 
01:0002147C ?_object_facts_initializer$@varM_lazy@@SGXQAV1@@X@Z 
01:0002149C ?new$@varM_integer@@SAXQAV1@@H@Z  (Idle)
01:000214BC ?newModel_unary$@varM_integer@@SAXQAV1@@QAVvarM@@@HPA$?_function$2@core@@SAXHPAH@Z$@Z  (Idle)
01:000214E8 ?newModel_binary$@varM_integer@@SAXQAV1@@QAVvarM@@@H1PA$?_function$3@core@@SAXHHPAH@Z$@Z  (Idle)
01:0002151C ?_add$@varM_integer@@SAXQAV1@@HPAH@Z 
01:00021548 ?_sub$@varM_integer@@SAXQAV1@@HPAH@Z 
01:00021574 ?_max$@varM_integer@@SAXQAV1@@HPAH@Z 
01:000215B8 ?_min$@varM_integer@@SAXQAV1@@HPAH@Z 
01:000215FC ?_inc$@varM_integer@@SAXQAV1@@PAH@Z 
01:00021634 ?_dec$@varM_integer@@SAXQAV1@@PAH@Z 
01:0002166C ?_setF$@varM_integer@@SAXQAV1@@HPAH@Z 
01:00021680 ?add$@varM_integer@@SAXQAV1@@H@Z 
01:000216A0 ?sub$@varM_integer@@SAXQAV1@@H@Z 
01:000216C0 ?max$@varM_integer@@SAXQAV1@@H@Z 
01:000216E0 ?min$@varM_integer@@SAXQAV1@@H@Z 
01:00021700 ?inc$@varM_integer@@SAXQAV1@@@Z 
01:0002171C ?dec$@varM_integer@@SAXQAV1@@@Z 
01:00021738 ?_new@varM_integer@@SAXHPAPAV1@@@Z 
01:00021760 ?_newModel_unary@varM_integer@@SAXQAVvarM@@@HPA$?_function$2@core@@SAXHPAH@Z$PAPAV1@@@Z  (Idle)
01:0002178C ?_newModel_binary@varM_integer@@SAXQAVvarM@@@H0PA$?_function$3@core@@SAXHHPAH@Z$PAPAV1@@@Z  (Idle)
01:000217BC ?new$@varM_boolean@@SAXQAV1@@PAUboolean_struct@_builtIn@@@Z  (Idle)
01:000217DC ?newModel_and$@varM_boolean@@SAXQAV1@@QAVvarM@@@PAUboolean_struct@_builtIn@@1@Z  (Idle)
01:00021810 ?newModel_or$@varM_boolean@@SAXQAV1@@QAVvarM@@@PAUboolean_struct@_builtIn@@1@Z  (Idle)
01:00021844 ?newModel_xor$@varM_boolean@@SAXQAV1@@QAVvarM@@@PAUboolean_struct@_builtIn@@1@Z  (Idle)
01:00021878 ?newModel_not$@varM_boolean@@SAXQAV1@@QAVvarM@@@PAUboolean_struct@_builtIn@@@Z  (Idle)
01:000218A0 ?and_$@varM_boolean@@SAXQAV1@@PAUboolean_struct@_builtIn@@@Z 
01:000218C0 ?or_$@varM_boolean@@SAXQAV1@@PAUboolean_struct@_builtIn@@@Z 
01:000218E0 ?xor$@varM_boolean@@SAXQAV1@@PAUboolean_struct@_builtIn@@@Z 
01:00021924 ?not_$@varM_boolean@@SAXQAV1@@@Z 
01:00021964 ?isTrue$@varM_boolean@@SAXQAV1@@@Z 
01:0002198C ?isFalse$@varM_boolean@@SAXQAV1@@@Z 
01:000219B4 ?setTrue$@varM_boolean@@SAXQAV1@@@Z 
01:000219CC ?setFalse$@varM_boolean@@SAXQAV1@@@Z 
01:000219E4 ?conditionalRun$@varM_boolean@@SAXQAV1@@X@Z 
01:00021A28 ?conditionalRunOnce$@varM_boolean@@SAXQAV1@@X@Z 
--- From 'obj\outputStreamSupport.6F229CFB.obj'
01:00021A78 ?_new@varM_boolean@@SAXPAUboolean_struct@_builtIn@@PAPAV1@@@Z 
--- From 'obj\varM.B882E173.obj'
01:00021AA0 ?_newModel_and@varM_boolean@@SAXQAVvarM@@@PAUboolean_struct@_builtIn@@0PAPAV1@@@Z  (Idle)
01:00021ACC ?_newModel_or@varM_boolean@@SAXQAVvarM@@@PAUboolean_struct@_builtIn@@0PAPAV1@@@Z  (Idle)
01:00021AF8 ?_newModel_xor@varM_boolean@@SAXQAVvarM@@@PAUboolean_struct@_builtIn@@0PAPAV1@@@Z  (Idle)
01:00021B24 ?_newModel_not@varM_boolean@@SAXQAVvarM@@@PAUboolean_struct@_builtIn@@PAPAV1@@@Z  (Idle)
01:00021B4C ?new$@varM@@SAXQAV1@@XQAVrTypeLibrary@TypeLibraries@RunTime@VIP@@X@Z 
01:00021B60 ?newmodel_unary/2np$1@varM@@SAXPAUnewmodel_unary/2np$1_struct@1/1@QAV1@@X@Z 
01:00021BB8 ?newmodel_unary/2np$2@varM@@SAXPAUnewmodel_unary/2np$2_struct@1/1@@Z 
01:00021C24 ?newModel_unary$@varM@@SAXQAV1@@XQAVrTypeLibrary@TypeLibraries@RunTime@VIP@@0PA$?_function$2@core@@SAXXPAX@Z$@Z 
01:00021D24 ?newmodel_binary/3np$1@varM@@SAXPAUnewmodel_binary/3np$1_struct@1/1@QAV1@@X@Z 
01:00021D98 ?newmodel_binary/3np$2@varM@@SAXPAUnewmodel_binary/3np$2_struct@1/1@@Z 
01:00021E0C ?newModel_binary$@varM@@SAXQAV1@@XQAVrTypeLibrary@TypeLibraries@RunTime@VIP@@00PA$?_function$3@core@@SAXXXPAX@Z$@Z 
01:00021F5C ?modified@varM@@SGQAVevent0@@@QAV1@@X@Z 
01:00021FD0 ?_value@varM@@SAXQAV1@@XPAX@Z 
01:00021FE4 ?value@varM@@SAXQAV1@@XX@Z 
01:00022010 ?plainSet$@varM@@SAXQAV1@@XX@Z 
01:00022024 ?listenerSet$@varM@@SAXQAV1@@XX@Z 
01:00022078 ?presenter$@varM@@SGPAUpresentation_struct@presenter@@QAV1@@X@Z 
--- From 'obj\iterator.60C55021.obj'
01:00022098 ?_new@varM@@SAXQAVrTypeLibrary@TypeLibraries@RunTime@VIP@@XPAPAV1@@PAX@Z 
--- From 'obj\varM.B882E173.obj'
01:000220C8 ?_newModel_unary@varM@@SAXQAVrTypeLibrary@TypeLibraries@RunTime@VIP@@QAV1@@XPA$?_function$2@core@@SAXXPAX@Z$PAPAV1@@PAX@Z  (Idle)
01:000220FC ?_newModel_binary@varM@@SAXQAVrTypeLibrary@TypeLibraries@RunTime@VIP@@QAV1@@X1PA$?_function$3@core@@SAXXXPAX@Z$PAPAV1@@PAX@Z  (Idle)
01:00022130 ?_object_typelib_initializer$@varM@@SGXQAV1@@XQAVrTypeLibrary@TypeLibraries@RunTime@VIP@@@Z 
01:00022148 ?_object_facts_initializer$_1$@varM@@SGXQAV1@@X@Z 
01:00022160 ?_object_facts_initializer$_2$@varM@@SGXQAV1@@X@Z 
01:00022194 ?_object_facts_initializer$@varM@@SGXQAV1@@X@Z 
01:0002224C varM_unsigned?_initObject@@@QAGXQAV1@H@Z 
01:00022280 ?@create_object@varM_unsigned@@SGQAV1@@XZ 
01:0002229C varM_unsigned?_InternalFinalizer@@@QAGXQAV1@@Z 
01:000222B4 varM_reference{@Term}?_initObject@@@QAGXQAV1@H@Z 
01:000222DC ?@create_object@varM_reference@@SGQAV1@@XQAVrTypeLibrary@TypeLibraries@RunTime@VIP@@@Z 
01:00022300 varM_reference{@Term}?_InternalFinalizer@@@QAGXQAV1@@Z 
01:00022384 varM_optional{@Term}?_initObject@@@QAGXQAV1@H@Z 
01:000223D4 ?@create_object@varM_optional@@SGQAV1@@XQAVrTypeLibrary@TypeLibraries@RunTime@VIP@@@Z 
01:000223F8 varM_optional{@Term}?_InternalFinalizer@@@QAGXQAV1@@Z 
01:00022410 varM_lazy{@Term}?_initObject@@@QAGXQAV1@H@Z 
01:00022444 ?@create_object@varM_lazy@@SGQAV1@@XQAVrTypeLibrary@TypeLibraries@RunTime@VIP@@@Z 
01:00022468 varM_lazy{@Term}?_InternalFinalizer@@@QAGXQAV1@@Z 
01:0002250C varM_integer?_initObject@@@QAGXQAV1@H@Z 
01:00022540 ?@create_object@varM_integer@@SGQAV1@@XZ 
01:0002255C varM_integer?_InternalFinalizer@@@QAGXQAV1@@Z 
01:00022604 varM_boolean?_initObject@@@QAGXQAV1@H@Z 
01:00022638 ?@create_object@varM_boolean@@SGQAV1@@XZ 
01:00022654 varM_boolean?_InternalFinalizer@@@QAGXQAV1@@Z 
01:0002266C varM{@Term}?_initObject@@@QAGXQAV1@H@Z 
01:000226A0 ?@create_object@varM@@SGQAV1@@XQAVrTypeLibrary@TypeLibraries@RunTime@VIP@@@Z 
01:000226C4 varM{@Term}?_InternalFinalizer@@@QAGXQAV1@@Z 
--- From 'obj\console.E8EB4F3C.obj'
01:000226D0 ?new_stdout$@outputStream_console@@SAXQAV1@@@Z  (Idle)
01:000226E8 ?new_stderr$@outputStream_console@@SAXQAV1@@@Z  (Idle)
01:00022700 ?newCommon$@outputStream_console@@SAXQAV1@@I@Z 
01:00022768 ?doFlush$@outputStream_console@@SAXQAVoutputStreamSupportSite@@@@Z 
01:00022778 ?write$@outputStream_console@@SAXQAVoutputStream@@@@Z 
01:000227C8 ?writeQuoted$@outputStream_console@@SAXQAVoutputStream@@@@Z 
01:00022818 ?writef$@outputStream_console@@SAXQAVoutputStream@@@PB_W@Z 
01:0002286C ?nl$@outputStream_console@@SAXQAVoutputStream@@@@Z 
01:000228A0 ?save$@outputStream_console@@SAXQAVoutputStream@@@PBUfactDB@_builtIn@@@Z 
01:000228F0 ?writeBytes$@outputStream_console@@SAXQAVoutputStream@@@PAXPBUbyteCount@core@@@Z 
01:00022944 ?errorHandler$@outputStream_console@@SAXQAV1@@PBUtraceId@exception@@@Z 
01:00022980 ?getCRLFconversion$@outputStream_console@@SGPAUboolean_struct@_builtIn@@QAVstream@@@@Z 
01:000229B0 ?setCRLFconversion$@outputStream_console@@SGXQAVstream@@@PAUboolean_struct@_builtIn@@@Z 
01:00022A0C ?getBuffer$@outputStream_console@@SGXQAVoutputStreamSupportSite@@@PAPAXAAUbyteCount@core@@@Z 
01:00022A88 ?convertLF2CRLF_ifNeeded$@outputStream_console@@SAXQAV1@@PAXPBUbyteCount@core@@PAPAXAAU34@@Z 
01:00022AE0 ?writeToStdDevice@outputStream_console@@SAXPAUmode_struct@stream@@PBUfileHandle@core@@PAXPBUbyteCount@5@@Z 
01:00022B84 ?convert_ifAnsi@outputStream_console@@SAXPAUmode_struct@stream@@PAXPBUbyteCount@core@@PAPAXAAU45@@Z 
01:00022C38 ?newCurrent$@outputStream_console@@SAXQAV1@@I@Z  (Idle)
01:00022C40 ?new$@outputStream_console@@SAXQAV1@@I@Z 
01:00022C48 ?_new_stdout@outputStream_console@@SAXPAPAVoutputStream@@@@Z  (Idle)
01:00022C70 ?_new_stderr@outputStream_console@@SAXPAPAVoutputStream@@@@Z  (Idle)
01:00022C98 ?_new@outputStream_console@@SAXIPAPAVoutputStream@@@@Z  (Idle)
01:00022CC0 ?_newCurrent@outputStream_console@@SAXIPAPAVoutputStream@@@@Z  (Idle)
01:00022CE8 ?_object_facts_initializer$@outputStream_console@@SGXQAV1@@@Z 
01:00022D00 ?new$@inputStream_console@@SAXQAV1@@@Z  (Idle)
01:00022D80 ?getCRLFconversion$@inputStream_console@@SGPAUboolean_struct@_builtIn@@QAVstream@@@@Z 
01:00022DB0 ?setCRLFconversion$@inputStream_console@@SGXQAVstream@@@PAUboolean_struct@_builtIn@@@Z 
01:00022E0C ?setMode$@inputStream_console@@SGXQAVstream@@@PAUmode_struct@2@@Z 
01:00022EBC ?exTextBufferCB$@inputStream_console@@SAXQAV1@@PAPAXAAUbyteCount@core@@@Z  (Idle)
01:00022F18 ?exTextBufferCBLock$@inputStream_console@@SAXQAV1@@PAPAXAAUbyteCount@core@@@Z  (Idle)
01:00022F6C ?handlingBufferLastChar$@inputStream_console@@SAXQAV1@@PBUbyteCount@core@@PAPAXAAU34@@Z  (Idle)
01:00022FA8 ?converCRLF2LF_ifNeeded$@inputStream_console@@SAXQAV1@@PBUbyteCount@core@@PAPAXAAU34@@Z 
01:00023028 ?_readFromStdIn$@inputStream_console@@SAXQAV1@@PAUmode_struct@stream@@PBUfileHandle@core@@AAUbyteCount@6@@Z 
01:00023134 ?_readFromFile@inputStream_console@@SAXPBUfileHandle@core@@PAXPBUbyteCount@3@AAU43@@Z 
01:00023190 ?setPosition$@inputStream_console@@SGXQAVstream@@@PBUfileSize@fileSystem_api@@@Z 
01:000231A0 ?getPosition$@inputStream_console@@SGPBUfileSize@fileSystem_api@@QAVstream@@@@Z 
01:000231A8 ?close$@inputStream_console@@SGXQAVstream@@@@Z 
01:000231D8 ?getBuffer$@inputStream_console@@SGXQAVbufferSupport@@@PAPAXAAUbyteCount@core@@@Z 
01:000231FC ?getBufferLocked$@inputStream_console@@SGXQAVbufferSupport@@@PAPAXAAUbyteCount@core@@@Z 
01:00023220 ?_new@inputStream_console@@SAXPAPAVinputStream@@@@Z  (Idle)
01:00023248 ?_object_facts_initializer$@inputStream_console@@SGXQAV1@@@Z 
01:00023268 ?_readChar@console@@SAXPA_W@Z  (Idle)
01:000232B4 ?_readLine@console@@SAXPAPB_W@Z  (Idle)
01:00023300 ?_read@console@@SAXQAVrTypeLibrary@TypeLibraries@RunTime@VIP@@PAX@Z  (Idle)
01:00023354 ?write@console@@SAXXZ  (Idle)
01:000233A0 ?writef@console@@SAXPB_W@Z  (Idle)
01:000233F4 ?nl@console@@SAXXZ  (Idle)
01:00023430 ?isModeLine@console@@SAXXZ  (Idle)
01:0002345C ?setModeLine@console@@SAXPAUboolean_struct@_builtIn@@@Z  (Idle)
01:0002348C ?isModeEcho@console@@SAXXZ  (Idle)
01:000234B8 ?setModeEcho@console@@SAXPAUboolean_struct@_builtIn@@@Z  (Idle)
01:000234E8 ?isModeProcessed@console@@SAXXZ  (Idle)
01:00023534 ?setModeProcessed@console@@SAXPAUboolean_struct@_builtIn@@@Z  (Idle)
01:00023588 ?isModeWrap@console@@SAXXZ  (Idle)
01:000235B4 ?setModeWrap@console@@SAXPAUboolean_struct@_builtIn@@@Z  (Idle)
01:000235E4 ?checkConsoleMode@console@@SAXPBUfileHandle@core@@I@Z 
01:00023618 ?setConsoleMode@console@@SAXPAUboolean_struct@_builtIn@@PBUfileHandle@core@@I@Z 
01:00023688 ?_toApiMode@console@@SAXPAUboolean_struct@_builtIn@@IIPAI@Z 
01:000236B4 ?clearInput@console@@SAXXZ  (Idle)
01:00023734 ?clearOutput@console@@SAXXZ  (Idle)
01:00023824 ?_getLocation@console@@SAXPAPAUcoord_struct@console_native@@@Z  (Idle)
01:0002384C ?setLocation@console@@SAXPAUcoord_struct@console_native@@@Z 
01:000238A4 ?close@console@@SAXXZ  (Idle)
01:000238E0 ?_getConsoleWidth@console@@SAXAAUunsigned16@core@@@Z  (Idle)
01:00023904 ?_getConsoleTitle@console@@SAXPAPB_W@Z  (Idle)
01:00023978 ?setConsoleTitle@console@@SAXPB_W@Z  (Idle)
01:000239BC ?_getConsoleMode@console@@SAXPBUfileHandle@core@@PAI@Z 
01:00023A00 ?_getConsoleScreenBufferInfo@console@@SAXPAPAUconsoleScreenBufferInfo_struct@console_native@@@Z 
01:00023A6C ?setTextAttribute@console@@SAXII@Z  (Idle)
01:00023A98 ?_getTextAttribute@console@@SAXPAI@Z  (Idle)
01:00023AF4 ?init@console@@SAXPAUmode_struct@stream@@@Z  (Idle)
01:00023B9C ?init8@console@@SAXPBUcodePage@core@@@Z  (Idle)
01:00023BC4 ?initUtf8@console@@SAXXZ  (Idle)
01:00023BD8 ?run@console@@SAXXPAUmode_struct@stream@@PAUrunMode_struct@exe_api@@@Z  (Idle)
01:00023C84 ?run8@console@@SAXXPBUcodePage@core@@@Z  (Idle)
--- From 'obj\main.789E136F.obj'
01:00023CB4 ?runUtf8@console@@SAXX@Z 
--- From 'obj\console.E8EB4F3C.obj'
01:00023CC8 ?codePage@console@@SGXPBU0core@@@Z  (Idle)
01:00023CF4 ?mode@console@@SGXPAUmode_struct@stream@@@Z 
01:00023DC0 ?checkConsolePresence@console@@SAXXZ 
01:00023E20 ?_readEvents@console@@SAXPAPAU?$__packedList_struct@PAPAUevent_struct@1@@@@Z  (Idle)
01:0002400C ?_makeEvent@console@@SAXIPAXPAPAUevent_struct@1@@Z  (Idle)
01:00024324 ?_getEventQueue@console@@SAXPAPAU?$__packedList_struct@PAPAUevent_struct@1@@@@Z  (Idle)
01:0002447C ?_getEvent_nd@console@@SAXPAXIIPAPAUevent_struct@1@@Z 
01:00024568 ?__lateFactInit$inputstream$0$console@classDB@1@SAXPAPAVinputStream@@@@Z 
01:00024570 ?__lateFactInit$outputstream$0$console@classDB@1@SAXPAPAVoutputStream@@@@Z 
01:00024578 ?__lateFactInit$errorstream$0$console@classDB@1@SAXPAPAVoutputStream@@@@Z 
01:00024580 ?inputStream@console@@SGQAV0@@XZ  (Idle)
01:000245B8 ?outputStream@console@@SGQAV0@@XZ  (Idle)
01:000245F0 ?errorStream@console@@SGQAVoutputStream@@@XZ  (Idle)
01:000249B8 outputStream_console?_initObject@@@QAGXQAV1@H@Z 
01:000249F0 ?@create_object@outputStream_console@@SGQAV1@@XZ 
01:00024A0C outputStream_console?_InternalFinalizer@@@QAGXQAV1@@Z 
01:00024CC8 inputStream_console?_initObject@@@QAGXQAV1@H@Z 
01:00024D00 ?@create_object@inputStream_console@@SGQAV1@@XZ 
01:00024D1C inputStream_console?_InternalFinalizer@@@QAGXQAV1@@Z 
--- From 'obj\core.5D9B9483.obj'
01:00024D30 ?_mapSome@core@@SAXQAVrTypeLibrary@TypeLibraries@RunTime@VIP@@0PAUoptional_struct@1@XPA$?_function$2@1@SAXXPAX@Z$PAPAU21@PAX@Z  (Idle)
--- From 'obj\reflection.ACE59E5C.obj'
01:00024DB0 ?_isSome@core@@SAXQAVrTypeLibrary@TypeLibraries@RunTime@VIP@@PAUoptional_struct@1@XPAX@Z 
--- From 'obj\core.5D9B9483.obj'
01:00024DE0 ?_getSome@core@@SAXQAVrTypeLibrary@TypeLibraries@RunTime@VIP@@PAUoptional_struct@1@XXPAX@Z  (Idle)
01:00024E14 ?_makeOptional@core@@SAXQAVrTypeLibrary@TypeLibraries@RunTime@VIP@@PA$?_function_dt$1@1@SAXPAX@Z$PAPAUoptional_struct@1@PAX@Z  (Idle)
01:00024E80 ?_compareselect/1nf$1@core@@SAXPAUcompareselect/1nf$1_struct@1@XXPAPAUcompareResult_struct@_builtIn@@@Z 
01:00024EE0 ?_compareSelect@core@@SAXQAVrTypeLibrary@TypeLibraries@RunTime@VIP@@0PA$?_function$2@1@SAXXPAX@Z$PAPA$?_comparator$1@1@SAXXXPAPAUcompareResult_struct@_builtIn@@@Z$@Z  (Idle)
--- From 'obj\reflection.ACE59E5C.obj'
01:00024F20 ?_notEqual@core@@SAXPAUcompareResult_struct@_builtIn@@PAPAU23@@Z 
01:00024F50 ?_compareNotEqual@core@@SAXQAVrTypeLibrary@TypeLibraries@RunTime@VIP@@XXPAPAUcompareResult_struct@_builtIn@@@Z 
--- From 'obj\core.5D9B9483.obj'
01:00024F80 ?_invertCompareResult@core@@SAXPAUcompareResult_struct@_builtIn@@PAPAU23@@Z  (Idle)
01:00024FB4 ?_mkcomp_optional/1nf$1@core@@SAXPAUmkcomp_optional/1nf$1_struct@1@PAUoptional_struct@1@X1PAPAUcompareResult_struct@_builtIn@@@Z 
--- From 'obj\reflection.ACE59E5C.obj'
01:00025068 ?_mkComp_optional@core@@SAXQAVrTypeLibrary@TypeLibraries@RunTime@VIP@@PA$?_comparator$1@1@SAXXXPAPAUcompareResult_struct@_builtIn@@@Z$PAPA$?_comparator$1@1@SAXPAUoptional_struct@1@X0PAPAUcompareResult_struct@_builtIn@@@Z$@Z 
--- From 'obj\core.5D9B9483.obj'
01:000250A0 ?_mkcomp_list/1nf$1@core@@SAXPAUmkcomp_list/1nf$1_struct@1@PAU?$__packedList_struct@X@@1PAPAUcompareResult_struct@_builtIn@@@Z 
--- From 'obj\reflection.ACE59E5C.obj'
01:000250E4 ?_mkComp_list@core@@SAXQAVrTypeLibrary@TypeLibraries@RunTime@VIP@@PA$?_comparator$1@1@SAXXXPAPAUcompareResult_struct@_builtIn@@@Z$PAPA$?_comparator$1@1@SAXPAU?$__packedList_struct@X@@0PAPAUcompareResult_struct@_builtIn@@@Z$@Z 
--- From 'obj\core.5D9B9483.obj'
01:0002511C ?_compareList@core@@SAXQAVrTypeLibrary@TypeLibraries@RunTime@VIP@@PA$?_comparator$1@1@SAXXXPAPAUcompareResult_struct@_builtIn@@@Z$PAU?$__packedList_struct@X@@2PAPAU23@@Z 
01:00025228 ?_isString@core@@SAXPAUvalue_struct@1@PAPB_W@Z  (Idle)
01:00025264 ?_isNumber@core@@SAXPAUvalue_struct@1@PAPAN@Z  (Idle)
01:000253F8 ?_isReal@core@@SAXPAUvalue_struct@1@PAPAN@Z  (Idle)
--- From 'obj\fileSystem.5B0F823E.obj'
01:00025434 ?_mkNamedValueList@core@@SAXPB_WPAUvalue_struct@1@PAPAU?$__packedList_struct@PAPAUnamedValue_struct@1@PAPAU21@@@@Z 
01:00025474 ?_mkNamedValueList@core@@SAXPB_WPAUvalue_struct@1@01PAPAU?$__packedList_struct@PAPAUnamedValue_struct@1@PAPAU21@@@@Z 
--- From 'obj\fileSystem_api.C5B8AF1A.obj'
01:000254E4 ?_mkNamedValueList@core@@SAXPB_WPAUvalue_struct@1@0101PAPAU?$__packedList_struct@PAPAUnamedValue_struct@1@PAPAU21@@@@Z 
--- From 'obj\string.19AABD3B.obj'
01:00025584 ?_mkNamedValueList@core@@SAXPB_WPAUvalue_struct@1@010101PAPAU?$__packedList_struct@PAPAUnamedValue_struct@1@PAPAU21@@@@Z 
--- From 'obj\core.5D9B9483.obj'
01:00025654 ?_mkNamedValueList@core@@SAXPB_WPAUvalue_struct@1@01010101PAPAU?$__packedList_struct@PAPAUnamedValue_struct@1@PAPAU21@@@@Z  (Idle)
01:00025750 ?_mkNamedValueList@core@@SAXPB_WPAUvalue_struct@1@0101010101PAPAU?$__packedList_struct@PAPAUnamedValue_struct@1@PAPAU21@@@@Z  (Idle)
01:0002587C ?_mkNamedValueList@core@@SAXPB_WPAUvalue_struct@1@010101010101PAPAU?$__packedList_struct@PAPAUnamedValue_struct@1@PAPAU21@@@@Z  (Idle)
01:000259D8 ?_mkNamedValueList@core@@SAXPB_WPAUvalue_struct@1@01010101010101PAPAU?$__packedList_struct@PAPAUnamedValue_struct@1@PAPAU21@@@@Z  (Idle)
01:00025B64 ?_mkPlatformIndependent_value@core@@SAXPAUvalue_struct@1@PAPAU21@@Z 
01:00025BE4 ?_mkPlatformIndependent_valueList@core@@SAXPAU?$__packedList_struct@PAUvalue_struct@1@@@PAPAU?$__packedList_struct@PAPAU21@@@@Z  (Idle)
01:00025C20 ?_mkPlatformIndependent_namedValue@core@@SAXPAUnamedValue_struct@1@PAUvalue_struct@1@PAPAU21@PAPAU41@@Z 
--- From 'obj\exception.B6F320E8.obj'
01:00025C6C ?_mkPlatformIndependent_namedValueList@core@@SAXPAU?$__packedList_struct@PAUnamedValue_struct@1@PAUvalue_struct@1@@@PAPAU?$__packedList_struct@PAPAU21@PAPAU41@@@@Z 
--- From 'obj\core.5D9B9483.obj'
01:00025CA8 ?_mkPlatformIndependant_unsignedNative@core@@SAXPBU2_builtIn@@PAPAUvalue_struct@1@@Z 
--- From 'obj\fileSystem.5B0F823E.obj'
01:00025D0C ?_toUnsigned64@core@@SAXPAUunsigned64_struct_struct@1@PAPA_K@Z 
01:00025D2C ?_fromUnsigned64@core@@SAXPA_KPAPAUunsigned64_struct_struct@1@@Z 
01:00025D5C ?_toInteger64@core@@SAXPAUinteger64_struct_struct@1@PAPA_J@Z 
--- From 'obj\multiThread_api.57E3A62D.obj'
01:00025D7C ?_fromInteger64@core@@SAXPA_JPAPAUinteger64_struct_struct@1@@Z 
--- From 'obj\core.5D9B9483.obj'
01:00025DAC ?presenter_value@core@@SGPAUpresentation_struct@presenter@@PAUvalue_struct@1@@Z 
01:00026074 ?_presenter_value2@core@@SAXQAVrTypeLibrary@TypeLibraries@RunTime@VIP@@XPAPAUpresentation_struct@presenter@@@Z 
01:000260A8 ?presenter_namedValue@core@@SGPAUpresentation_struct@presenter@@QAVrTypeLibrary@TypeLibraries@RunTime@VIP@@PAUnamedValue_struct@1@X@Z 
01:00026144 ?presenter_packedCursor@core@@SGPAUpresentation_struct@presenter@@PBU41@@Z 
01:000261EC ?presenter_hResult@core@@SGPAUpresentation_struct@presenter@@PBU41@@Z 
01:000262A4 ?presenter_hScopeDescriptor@core@@SGPAUpresentation_struct@presenter@@PBU41@@Z 
01:00026364 ?presenter_gmtTimeValue@core@@SGPAUpresentation_struct@presenter@@PBU41@@Z 
01:0002637C ?presenter_localTimeValue@core@@SGPAUpresentation_struct@presenter@@PBU41@@Z 
01:00026394 ?presenter_sourceCursor@core@@SGPAUpresentation_struct@presenter@@PAUsourceCursor_struct@1@@Z 
01:00026458 ?presenter_programPoint@core@@SGPAUpresentation_struct@presenter@@PAUprogramPoint_struct@1@@Z 
01:000264FC ?nothing@core@@SAXXZ  (Idle)
01:00026504 _Get1_2  (Idle)
01:0002652C _Get1_3  (Idle)
01:00026554 _Get1_4  (Idle)
01:0002657C _Get1_5  (Idle)
01:000265A4 _Get1_6  (Idle)
01:000265CC _Get1_7  (Idle)
01:000265F4 _Get1_8  (Idle)
01:0002661C _Get1_9  (Idle)
01:00026644 _Get1_10  (Idle)
01:0002666C _Get1_11  (Idle)
01:00026694 _Get1_12  (Idle)
01:000266BC _Get2_2  (Idle)
01:000266E4 _Get2_3  (Idle)
01:0002670C _Get2_4  (Idle)
01:00026734 _Get2_5  (Idle)
01:0002675C _Get2_6  (Idle)
01:00026784 _Get2_7  (Idle)
01:000267AC _Get2_8  (Idle)
01:000267D4 _Get2_9  (Idle)
01:000267FC _Get2_10  (Idle)
01:00026824 _Get2_11  (Idle)
01:0002684C _Get2_12  (Idle)
01:00026874 _Get3_3  (Idle)
01:0002689C _Get3_4  (Idle)
01:000268C4 _Get3_5  (Idle)
01:000268EC _Get3_6  (Idle)
01:00026914 _Get3_7  (Idle)
01:0002693C _Get3_8  (Idle)
01:00026964 _Get3_9  (Idle)
01:0002698C _Get3_10  (Idle)
01:000269B4 _Get3_11  (Idle)
01:000269DC _Get3_12  (Idle)
01:00026A04 _Get4_4  (Idle)
01:00026A2C _Get4_5  (Idle)
01:00026A54 _Get4_6  (Idle)
01:00026A7C _Get4_7  (Idle)
01:00026AA4 _Get4_8  (Idle)
01:00026ACC _Get4_9  (Idle)
01:00026AF4 _Get4_10  (Idle)
01:00026B1C _Get4_11  (Idle)
01:00026B44 _Get4_12  (Idle)
01:00026B6C _Get5_5  (Idle)
01:00026B94 _Get5_6  (Idle)
01:00026BBC _Get5_7  (Idle)
01:00026BE4 _Get5_8  (Idle)
01:00026C0C _Get5_9  (Idle)
01:00026C34 _Get5_10  (Idle)
01:00026C5C _Get5_11  (Idle)
01:00026C84 _Get5_12  (Idle)
01:00026CAC _Get6_6  (Idle)
01:00026CD4 _Get6_7  (Idle)
01:00026CFC _Get6_8  (Idle)
01:00026D24 _Get6_9  (Idle)
01:00026D4C _Get6_10  (Idle)
01:00026D74 _Get6_11  (Idle)
01:00026D9C _Get6_12  (Idle)
01:00026DC4 _Get7_7  (Idle)
01:00026DEC _Get7_8  (Idle)
01:00026E14 _Get7_9  (Idle)
01:00026E3C _Get7_10  (Idle)
01:00026E64 _Get7_11  (Idle)
01:00026E8C _Get7_12  (Idle)
01:00026EB4 _Get8_8  (Idle)
01:00026EDC _Get8_9  (Idle)
01:00026F04 _Get8_10  (Idle)
01:00026F2C _Get8_11  (Idle)
01:00026F54 _Get8_12  (Idle)
01:00026F7C _Get9_9  (Idle)
01:00026FA4 _Get9_10  (Idle)
01:00026FCC _Get9_11  (Idle)
01:00026FF4 _Get9_12  (Idle)
01:0002701C _Get10_10  (Idle)
01:00027044 _Get10_11  (Idle)
01:0002706C _Get10_12  (Idle)
01:00027094 _Get11_11  (Idle)
01:000270BC _Get11_12  (Idle)
01:000270E4 _Get12_12  (Idle)
01:0002710C ?args@core@@SAPAUarguments_struct@1@XZ  (Idle)
01:00027138 ?args2@core@@SAPAUarguments_struct@1@XZ  (Idle)
--- From 'obj\memory.568C55F8.obj'
01:0002716C ?sameType@core@@SAXQAVrTypeLibrary@TypeLibraries@RunTime@VIP@@XX@Z 
--- From 'obj\core.5D9B9483.obj'
01:00027174 ?_wrap$presenter_hScopeDescriptor@core@@SGPAUpresentation_struct@presenter@@QAVrTypeLibrary@TypeLibraries@RunTime@VIP@@X@Z 
01:00027190 ?_wrap$presenter_packedCursor@core@@SGPAUpresentation_struct@presenter@@QAVrTypeLibrary@TypeLibraries@RunTime@VIP@@X@Z 
01:000271AC ?_wrap$presenter_hResult@core@@SGPAUpresentation_struct@presenter@@QAVrTypeLibrary@TypeLibraries@RunTime@VIP@@X@Z 
01:000271C8 ?_wrap$presenter_localTimeValue@core@@SGPAUpresentation_struct@presenter@@QAVrTypeLibrary@TypeLibraries@RunTime@VIP@@X@Z 
01:000271F4 ?_wrap$presenter_gmtTimeValue@core@@SGPAUpresentation_struct@presenter@@QAVrTypeLibrary@TypeLibraries@RunTime@VIP@@X@Z 
--- From 'obj\event.D92D3A63.obj'
01:00027220 ?addListener$@event7@@SAXQAV1@@XXXXXXXX@Z 
01:00027240 ?addlistener_once/1np$1@event7@@SAXPAUaddlistener_once/1np$1_struct@1/7@XXXXXXX@Z 
01:00027254 ?addlistener_once/1np$2@event7@@SAXPAUaddlistener_once/1np$2_struct@1/7@XXXXXXX@Z 
01:000272EC ?addListener_once$@event7@@SAXQAV1@@XXXXXXXX@Z 
01:00027428 ?addlistener/2np0$1@event7@@SAXPAUaddlistener/2np0$1_struct@1/7@@Z 
01:00027454 ?addListener$@event7@@SAXQAV1@@XXXXXXXXQAVevent0@@@@Z 
01:000274DC ?removeListener$@event7@@SAXQAV1@@XXXXXXXX@Z 
01:000275A8 ?removeAllListeners$@event7@@SAXQAV1@@XXXXXXX@Z 
01:000275F8 ?hasListeners$@event7@@SAXQAV1@@XXXXXXX@Z 
01:00027664 ?notify$@event7@@SAXQAV1@@XXXXXXXXXXXXXX@Z 
01:000276FC ?new$@event7@@SAXQAV1@@XXXXXXXQAVrTypeLibrary@TypeLibraries@RunTime@VIP@@111111@Z  (Idle)
01:00027704 ?_new@event7@@SAXQAVrTypeLibrary@TypeLibraries@RunTime@VIP@@000000PAPAV1@@PAXPAXPAXPAXPAXPAXPAX@Z  (Idle)
01:00027750 ?_object_typelib_initializer$@event7@@SGXQAV1@@XXXXXXXQAVrTypeLibrary@TypeLibraries@RunTime@VIP@@111111@Z 
01:0002778C ?addlistener/2np1$1@event7@@SAXPAUaddlistener/2np1$1_struct@1/7@X@Z 
01:000277B0 ?addListener$@event7@@SAXQAV1@@XXXXXXXQAVrTypeLibrary@TypeLibraries@RunTime@VIP@@XQAVevent1@@@X@Z 
01:00027840 ?addlistener/2np2$1@event7@@SAXPAUaddlistener/2np2$1_struct@1/7@XX@Z 
01:00027864 ?addListener$@event7@@SAXQAV1@@XXXXXXXQAVrTypeLibrary@TypeLibraries@RunTime@VIP@@1XQAVevent2@@@XX@Z 
01:000278F8 ?addlistener/2np3$1@event7@@SAXPAUaddlistener/2np3$1_struct@1/7@XXX@Z 
01:0002791C ?addListener$@event7@@SAXQAV1@@XXXXXXXQAVrTypeLibrary@TypeLibraries@RunTime@VIP@@11XQAVevent3@@@XXX@Z 
01:000279B8 ?addlistener/2np4$1@event7@@SAXPAUaddlistener/2np4$1_struct@1/7@XXXX@Z 
01:000279DC ?addListener$@event7@@SAXQAV1@@XXXXXXXQAVrTypeLibrary@TypeLibraries@RunTime@VIP@@111XQAVevent4@@@XXXX@Z 
01:00027A7C ?addlistener/2np5$1@event7@@SAXPAUaddlistener/2np5$1_struct@1/7@XXXXX@Z 
01:00027AA0 ?addListener$@event7@@SAXQAV1@@XXXXXXXQAVrTypeLibrary@TypeLibraries@RunTime@VIP@@1111XQAVevent5@@@XXXXX@Z 
01:00027B48 ?addlistener/2np6$1@event7@@SAXPAUaddlistener/2np6$1_struct@1/7@XXXXXX@Z 
01:00027B6C ?addListener$@event7@@SAXQAV1@@XXXXXXXQAVrTypeLibrary@TypeLibraries@RunTime@VIP@@11111XQAVevent6@@@XXXXXX@Z 
01:00027C18 ?addlistener/2np7$1@event7@@SAXPAUaddlistener/2np7$1_struct@1/7@XXXXXXX@Z 
01:00027C3C ?addListener$@event7@@SAXQAV1@@XXXXXXXQAVrTypeLibrary@TypeLibraries@RunTime@VIP@@111111X0@Z 
01:00027CF0 ?addListener$@event6@@SAXQAV1@@XXXXXXX@Z 
01:00027D10 ?addlistener_once/1np$1@event6@@SAXPAUaddlistener_once/1np$1_struct@1/6@XXXXXX@Z 
01:00027D24 ?addlistener_once/1np$2@event6@@SAXPAUaddlistener_once/1np$2_struct@1/6@XXXXXX@Z 
01:00027DB0 ?addListener_once$@event6@@SAXQAV1@@XXXXXXX@Z 
01:00027EDC ?addlistener/2np0$1@event6@@SAXPAUaddlistener/2np0$1_struct@1/6@@Z 
01:00027F08 ?addListener$@event6@@SAXQAV1@@XXXXXXXQAVevent0@@@@Z 
01:00027F8C ?removeListener$@event6@@SAXQAV1@@XXXXXXX@Z 
01:00028054 ?removeAllListeners$@event6@@SAXQAV1@@XXXXXX@Z 
01:000280A4 ?hasListeners$@event6@@SAXQAV1@@XXXXXX@Z 
01:00028110 ?notify$@event6@@SAXQAV1@@XXXXXXXXXXXX@Z 
01:000281A8 ?new$@event6@@SAXQAV1@@XXXXXXQAVrTypeLibrary@TypeLibraries@RunTime@VIP@@11111@Z  (Idle)
01:000281B0 ?_new@event6@@SAXQAVrTypeLibrary@TypeLibraries@RunTime@VIP@@00000PAPAV1@@PAXPAXPAXPAXPAXPAX@Z  (Idle)
01:000281F8 ?_object_typelib_initializer$@event6@@SGXQAV1@@XXXXXXQAVrTypeLibrary@TypeLibraries@RunTime@VIP@@11111@Z 
01:0002822C ?addlistener/2np1$1@event6@@SAXPAUaddlistener/2np1$1_struct@1/6@X@Z 
01:00028250 ?addListener$@event6@@SAXQAV1@@XXXXXXQAVrTypeLibrary@TypeLibraries@RunTime@VIP@@XQAVevent1@@@X@Z 
01:000282D8 ?addlistener/2np2$1@event6@@SAXPAUaddlistener/2np2$1_struct@1/6@XX@Z 
01:000282FC ?addListener$@event6@@SAXQAV1@@XXXXXXQAVrTypeLibrary@TypeLibraries@RunTime@VIP@@1XQAVevent2@@@XX@Z 
01:0002838C ?addlistener/2np3$1@event6@@SAXPAUaddlistener/2np3$1_struct@1/6@XXX@Z 
01:000283B0 ?addListener$@event6@@SAXQAV1@@XXXXXXQAVrTypeLibrary@TypeLibraries@RunTime@VIP@@11XQAVevent3@@@XXX@Z 
01:00028444 ?addlistener/2np4$1@event6@@SAXPAUaddlistener/2np4$1_struct@1/6@XXXX@Z 
01:00028468 ?addListener$@event6@@SAXQAV1@@XXXXXXQAVrTypeLibrary@TypeLibraries@RunTime@VIP@@111XQAVevent4@@@XXXX@Z 
01:00028504 ?addlistener/2np5$1@event6@@SAXPAUaddlistener/2np5$1_struct@1/6@XXXXX@Z 
01:00028528 ?addListener$@event6@@SAXQAV1@@XXXXXXQAVrTypeLibrary@TypeLibraries@RunTime@VIP@@1111XQAVevent5@@@XXXXX@Z 
01:000285C8 ?addlistener/2np6$1@event6@@SAXPAUaddlistener/2np6$1_struct@1/6@XXXXXX@Z 
01:000285EC ?addListener$@event6@@SAXQAV1@@XXXXXXQAVrTypeLibrary@TypeLibraries@RunTime@VIP@@11111X0@Z 
01:00028694 ?addListener$@event5@@SAXQAV1@@XXXXXX@Z 
01:000286B4 ?addlistener_once/1np$1@event5@@SAXPAUaddlistener_once/1np$1_struct@1/5@XXXXX@Z 
01:000286C8 ?addlistener_once/1np$2@event5@@SAXPAUaddlistener_once/1np$2_struct@1/5@XXXXX@Z 
01:0002874C ?addListener_once$@event5@@SAXQAV1@@XXXXXX@Z 
01:00028864 ?addlistener/2np0$1@event5@@SAXPAUaddlistener/2np0$1_struct@1/5@@Z 
01:00028890 ?addListener$@event5@@SAXQAV1@@XXXXXXQAVevent0@@@@Z 
01:0002890C ?removeListener$@event5@@SAXQAV1@@XXXXXX@Z 
01:000289CC ?removeAllListeners$@event5@@SAXQAV1@@XXXXX@Z 
01:00028A1C ?hasListeners$@event5@@SAXQAV1@@XXXXX@Z 
01:00028A88 ?notify$@event5@@SAXQAV1@@XXXXXXXXXX@Z 
01:00028B1C ?new$@event5@@SAXQAV1@@XXXXXQAVrTypeLibrary@TypeLibraries@RunTime@VIP@@1111@Z  (Idle)
01:00028B24 ?_new@event5@@SAXQAVrTypeLibrary@TypeLibraries@RunTime@VIP@@0000PAPAV1@@PAXPAXPAXPAXPAX@Z  (Idle)
01:00028B64 ?_object_typelib_initializer$@event5@@SGXQAV1@@XXXXXQAVrTypeLibrary@TypeLibraries@RunTime@VIP@@1111@Z 
01:00028B94 ?addlistener/2np1$1@event5@@SAXPAUaddlistener/2np1$1_struct@1/5@X@Z 
01:00028BB8 ?addListener$@event5@@SAXQAV1@@XXXXXQAVrTypeLibrary@TypeLibraries@RunTime@VIP@@XQAVevent1@@@X@Z 
01:00028C3C ?addlistener/2np2$1@event5@@SAXPAUaddlistener/2np2$1_struct@1/5@XX@Z 
01:00028C60 ?addListener$@event5@@SAXQAV1@@XXXXXQAVrTypeLibrary@TypeLibraries@RunTime@VIP@@1XQAVevent2@@@XX@Z 
01:00028CE8 ?addlistener/2np3$1@event5@@SAXPAUaddlistener/2np3$1_struct@1/5@XXX@Z 
01:00028D0C ?addListener$@event5@@SAXQAV1@@XXXXXQAVrTypeLibrary@TypeLibraries@RunTime@VIP@@11XQAVevent3@@@XXX@Z 
01:00028D9C ?addlistener/2np4$1@event5@@SAXPAUaddlistener/2np4$1_struct@1/5@XXXX@Z 
01:00028DC0 ?addListener$@event5@@SAXQAV1@@XXXXXQAVrTypeLibrary@TypeLibraries@RunTime@VIP@@111XQAVevent4@@@XXXX@Z 
01:00028E54 ?addlistener/2np5$1@event5@@SAXPAUaddlistener/2np5$1_struct@1/5@XXXXX@Z 
01:00028E78 ?addListener$@event5@@SAXQAV1@@XXXXXQAVrTypeLibrary@TypeLibraries@RunTime@VIP@@1111X0@Z 
01:00028F14 ?addListener$@event4@@SAXQAV1@@XXXXX@Z 
01:00028F34 ?addlistener_once/1np$1@event4@@SAXPAUaddlistener_once/1np$1_struct@1/4@XXXX@Z 
01:00028F48 ?addlistener_once/1np$2@event4@@SAXPAUaddlistener_once/1np$2_struct@1/4@XXXX@Z 
01:00028FC4 ?addListener_once$@event4@@SAXQAV1@@XXXXX@Z 
01:000290CC ?addlistener/2np0$1@event4@@SAXPAUaddlistener/2np0$1_struct@1/4@@Z 
01:000290F8 ?addListener$@event4@@SAXQAV1@@XXXXXQAVevent0@@@@Z 
01:00029170 ?removeListener$@event4@@SAXQAV1@@XXXXX@Z 
01:0002922C ?removeAllListeners$@event4@@SAXQAV1@@XXXX@Z 
01:0002927C ?hasListeners$@event4@@SAXQAV1@@XXXX@Z 
01:000292E8 ?notify$@event4@@SAXQAV1@@XXXXXXXX@Z 
01:00029378 ?new$@event4@@SAXQAV1@@XXXXQAVrTypeLibrary@TypeLibraries@RunTime@VIP@@111@Z  (Idle)
01:00029380 ?_new@event4@@SAXQAVrTypeLibrary@TypeLibraries@RunTime@VIP@@000PAPAV1@@PAXPAXPAXPAX@Z  (Idle)
01:000293BC ?_object_typelib_initializer$@event4@@SGXQAV1@@XXXXQAVrTypeLibrary@TypeLibraries@RunTime@VIP@@111@Z 
01:000293E4 ?addlistener/2np1$1@event4@@SAXPAUaddlistener/2np1$1_struct@1/4@X@Z 
01:00029408 ?addListener$@event4@@SAXQAV1@@XXXXQAVrTypeLibrary@TypeLibraries@RunTime@VIP@@XQAVevent1@@@X@Z 
01:00029484 ?addlistener/2np2$1@event4@@SAXPAUaddlistener/2np2$1_struct@1/4@XX@Z 
01:000294A8 ?addListener$@event4@@SAXQAV1@@XXXXQAVrTypeLibrary@TypeLibraries@RunTime@VIP@@1XQAVevent2@@@XX@Z 
01:0002952C ?addlistener/2np3$1@event4@@SAXPAUaddlistener/2np3$1_struct@1/4@XXX@Z 
01:00029550 ?addListener$@event4@@SAXQAV1@@XXXXQAVrTypeLibrary@TypeLibraries@RunTime@VIP@@11XQAVevent3@@@XXX@Z 
01:000295D8 ?addlistener/2np4$1@event4@@SAXPAUaddlistener/2np4$1_struct@1/4@XXXX@Z 
01:000295FC ?addListener$@event4@@SAXQAV1@@XXXXQAVrTypeLibrary@TypeLibraries@RunTime@VIP@@111X0@Z 
01:0002968C ?addlistener/2np5$1@event4@@SAXPAUaddlistener/2np5$1_struct@1/4@XXXXX@Z 
01:000296B0 ?addListener$@event4@@SAXQAV1@@XXXXQAVrTypeLibrary@TypeLibraries@RunTime@VIP@@1111XQAVevent5@@@XXXXX@Z 
01:00029744 ?addListener$@event3@@SAXQAV1@@XXXX@Z 
01:00029764 ?addlistener_once/1np$1@event3@@SAXPAUaddlistener_once/1np$1_struct@1/3@XXX@Z 
01:00029778 ?addlistener_once/1np$2@event3@@SAXPAUaddlistener_once/1np$2_struct@1/3@XXX@Z 
01:000297EC ?addListener_once$@event3@@SAXQAV1@@XXXX@Z 
01:000298E0 ?addlistener/2np0$1@event3@@SAXPAUaddlistener/2np0$1_struct@1/3@@Z 
01:0002990C ?addListener$@event3@@SAXQAV1@@XXXXQAVevent0@@@@Z 
01:0002997C ?removeListener$@event3@@SAXQAV1@@XXXX@Z 
01:00029A30 ?removeAllListeners$@event3@@SAXQAV1@@XXX@Z 
01:00029A80 ?hasListeners$@event3@@SAXQAV1@@XXX@Z 
01:00029AEC ?notify$@event3@@SAXQAV1@@XXXXXX@Z 
01:00029B78 ?new$@event3@@SAXQAV1@@XXXQAVrTypeLibrary@TypeLibraries@RunTime@VIP@@11@Z  (Idle)
01:00029B80 ?_new@event3@@SAXQAVrTypeLibrary@TypeLibraries@RunTime@VIP@@00PAPAV1@@PAXPAXPAX@Z  (Idle)
01:00029BB4 ?_object_typelib_initializer$@event3@@SGXQAV1@@XXXQAVrTypeLibrary@TypeLibraries@RunTime@VIP@@11@Z 
01:00029BD8 ?addlistener/2np1$1@event3@@SAXPAUaddlistener/2np1$1_struct@1/3@X@Z 
01:00029BFC ?addListener$@event3@@SAXQAV1@@XXXQAVrTypeLibrary@TypeLibraries@RunTime@VIP@@XQAVevent1@@@X@Z 
01:00029C74 ?addlistener/2np2$1@event3@@SAXPAUaddlistener/2np2$1_struct@1/3@XX@Z 
01:00029C98 ?addListener$@event3@@SAXQAV1@@XXXQAVrTypeLibrary@TypeLibraries@RunTime@VIP@@1XQAVevent2@@@XX@Z 
01:00029D14 ?addlistener/2np3$1@event3@@SAXPAUaddlistener/2np3$1_struct@1/3@XXX@Z 
01:00029D38 ?addListener$@event3@@SAXQAV1@@XXXQAVrTypeLibrary@TypeLibraries@RunTime@VIP@@11X0@Z 
01:00029DBC ?addlistener/2np4$1@event3@@SAXPAUaddlistener/2np4$1_struct@1/3@XXXX@Z 
01:00029DE0 ?addListener$@event3@@SAXQAV1@@XXXQAVrTypeLibrary@TypeLibraries@RunTime@VIP@@111XQAVevent4@@@XXXX@Z 
01:00029E68 ?addlistener/2np5$1@event3@@SAXPAUaddlistener/2np5$1_struct@1/3@XXXXX@Z 
01:00029E8C ?addListener$@event3@@SAXQAV1@@XXXQAVrTypeLibrary@TypeLibraries@RunTime@VIP@@1111XQAVevent5@@@XXXXX@Z 
01:00029F1C ?addListener$@event2@@SAXQAV1@@XXX@Z 
01:00029F3C ?addlistener_once/1np$1@event2@@SAXPAUaddlistener_once/1np$1_struct@1/2@XX@Z 
01:00029F50 ?addlistener_once/1np$2@event2@@SAXPAUaddlistener_once/1np$2_struct@1/2@XX@Z 
01:00029FB8 ?addListener_once$@event2@@SAXQAV1@@XXX@Z 
01:0002A09C ?addlistener/2np0$1@event2@@SAXPAUaddlistener/2np0$1_struct@1/2@@Z 
01:0002A0C8 ?addListener$@event2@@SAXQAV1@@XXXQAVevent0@@@@Z 
01:0002A134 ?removeListener$@event2@@SAXQAV1@@XXX@Z 
01:0002A1E0 ?removeAllListeners$@event2@@SAXQAV1@@XX@Z 
01:0002A230 ?hasListeners$@event2@@SAXQAV1@@XX@Z 
01:0002A29C ?notify$@event2@@SAXQAV1@@XXXX@Z 
01:0002A328 ?new$@event2@@SAXQAV1@@XXQAVrTypeLibrary@TypeLibraries@RunTime@VIP@@1@Z  (Idle)
01:0002A330 ?_new@event2@@SAXQAVrTypeLibrary@TypeLibraries@RunTime@VIP@@0PAPAV1@@PAXPAX@Z  (Idle)
01:0002A360 ?_object_typelib_initializer$@event2@@SGXQAV1@@XXQAVrTypeLibrary@TypeLibraries@RunTime@VIP@@1@Z 
01:0002A37C ?addlistener/2np1$1@event2@@SAXPAUaddlistener/2np1$1_struct@1/2@X@Z 
01:0002A3A0 ?addListener$@event2@@SAXQAV1@@XXQAVrTypeLibrary@TypeLibraries@RunTime@VIP@@XQAVevent1@@@X@Z 
01:0002A410 ?addlistener/2np2$1@event2@@SAXPAUaddlistener/2np2$1_struct@1/2@XX@Z 
01:0002A434 ?addListener$@event2@@SAXQAV1@@XXQAVrTypeLibrary@TypeLibraries@RunTime@VIP@@1X0@Z 
01:0002A4AC ?addlistener/2np3$1@event2@@SAXPAUaddlistener/2np3$1_struct@1/2@XXX@Z 
01:0002A4D0 ?addListener$@event2@@SAXQAV1@@XXQAVrTypeLibrary@TypeLibraries@RunTime@VIP@@11XQAVevent3@@@XXX@Z 
01:0002A54C ?addlistener/2np4$1@event2@@SAXPAUaddlistener/2np4$1_struct@1/2@XXXX@Z 
01:0002A570 ?addListener$@event2@@SAXQAV1@@XXQAVrTypeLibrary@TypeLibraries@RunTime@VIP@@111XQAVevent4@@@XXXX@Z 
01:0002A5F4 ?addlistener/2np5$1@event2@@SAXPAUaddlistener/2np5$1_struct@1/2@XXXXX@Z 
01:0002A618 ?addListener$@event2@@SAXQAV1@@XXQAVrTypeLibrary@TypeLibraries@RunTime@VIP@@1111XQAVevent5@@@XXXXX@Z 
01:0002A6A0 ?addListener$@event1@@SAXQAV1@@XX@Z 
01:0002A6C0 ?addlistener_once/1np$1@event1@@SAXPAUaddlistener_once/1np$1_struct@1/1@X@Z 
01:0002A6D4 ?addlistener_once/1np$2@event1@@SAXPAUaddlistener_once/1np$2_struct@1/1@X@Z 
01:0002A734 ?addListener_once$@event1@@SAXQAV1@@XX@Z 
01:0002A804 ?addlistener/2np0$1@event1@@SAXPAUaddlistener/2np0$1_struct@1/1@@Z 
01:0002A830 ?addListener$@event1@@SAXQAV1@@XXQAVevent0@@@@Z 
01:0002A894 ?removeListener$@event1@@SAXQAV1@@XX@Z 
01:0002A93C ?removeAllListeners$@event1@@SAXQAV1@@X@Z 
01:0002A98C ?hasListeners$@event1@@SAXQAV1@@X@Z 
01:0002A9F8 ?notify$@event1@@SAXQAV1@@XX@Z 
01:0002AA80 ?new$@event1@@SAXQAV1@@XQAVrTypeLibrary@TypeLibraries@RunTime@VIP@@@Z  (Idle)
01:0002AA88 ?_new@event1@@SAXQAVrTypeLibrary@TypeLibraries@RunTime@VIP@@PAPAV1@@PAX@Z  (Idle)
01:0002AAB0 ?_object_typelib_initializer$@event1@@SGXQAV1@@XQAVrTypeLibrary@TypeLibraries@RunTime@VIP@@@Z 
01:0002AAC8 ?addlistener/2np1$1@event1@@SAXPAUaddlistener/2np1$1_struct@1/1@X@Z 
01:0002AAEC ?addListener$@event1@@SAXQAV1@@XQAVrTypeLibrary@TypeLibraries@RunTime@VIP@@X0@Z 
01:0002AB58 ?addlistener/2np2$1@event1@@SAXPAUaddlistener/2np2$1_struct@1/1@XX@Z 
01:0002AB7C ?addListener$@event1@@SAXQAV1@@XQAVrTypeLibrary@TypeLibraries@RunTime@VIP@@1XQAVevent2@@@XX@Z 
01:0002ABEC ?addlistener/2np3$1@event1@@SAXPAUaddlistener/2np3$1_struct@1/1@XXX@Z 
01:0002AC10 ?addListener$@event1@@SAXQAV1@@XQAVrTypeLibrary@TypeLibraries@RunTime@VIP@@11XQAVevent3@@@XXX@Z 
01:0002AC88 ?addlistener/2np4$1@event1@@SAXPAUaddlistener/2np4$1_struct@1/1@XXXX@Z 
01:0002ACAC ?addListener$@event1@@SAXQAV1@@XQAVrTypeLibrary@TypeLibraries@RunTime@VIP@@111XQAVevent4@@@XXXX@Z 
01:0002AD28 ?addlistener/2np5$1@event1@@SAXPAUaddlistener/2np5$1_struct@1/1@XXXXX@Z 
01:0002AD4C ?addListener$@event1@@SAXQAV1@@XQAVrTypeLibrary@TypeLibraries@RunTime@VIP@@1111XQAVevent5@@@XXXXX@Z 
01:0002ADD0 ?addListener$@event0@@SAXQAV1@@X@Z 
01:0002ADF0 ?addlistener_once/1np$1@event0@@SAXPAUaddlistener_once/1np$1_struct@1@@Z 
01:0002AE44 ?addListener_once$@event0@@SAXQAV1@@X@Z 
01:0002AEB8 ?addlistener/2np0$1@event0@@SAXPAUaddlistener/2np0$1_struct@1@@Z 
01:0002AEE4 ?addListener$@event0@@SAXQAV1@@X0@Z 
01:0002AF40 ?removeListener$@event0@@SAXQAV1@@X@Z 
01:0002AFC0 ?removeAllListeners$@event0@@SAXQAV1@@@Z 
01:0002B010 ?hasListeners$@event0@@SAXQAV1@@@Z 
01:0002B07C ?notify$@event0@@SAXQAV1@@@Z 
01:0002B100 ?new$@event0@@SAXQAV1@@@Z  (Idle)
--- From 'obj\weakReference.0A1AF11C.obj'
01:0002B108 ?_new@event0@@SAXPAPAV1@@@Z 
--- From 'obj\event.D92D3A63.obj'
01:0002B12C ?addlistener/2np1$1@event0@@SAXPAUaddlistener/2np1$1_struct@1@X@Z 
01:0002B150 ?addListener$@event0@@SAXQAV1@@QAVrTypeLibrary@TypeLibraries@RunTime@VIP@@XQAVevent1@@@X@Z 
01:0002B1B0 ?addlistener/2np2$1@event0@@SAXPAUaddlistener/2np2$1_struct@1@XX@Z 
01:0002B1D4 ?addListener$@event0@@SAXQAV1@@QAVrTypeLibrary@TypeLibraries@RunTime@VIP@@1XQAVevent2@@@XX@Z 
01:0002B23C ?addlistener/2np3$1@event0@@SAXPAUaddlistener/2np3$1_struct@1@XXX@Z 
01:0002B260 ?addListener$@event0@@SAXQAV1@@QAVrTypeLibrary@TypeLibraries@RunTime@VIP@@11XQAVevent3@@@XXX@Z 
01:0002B2CC ?addlistener/2np4$1@event0@@SAXPAUaddlistener/2np4$1_struct@1@XXXX@Z 
01:0002B2F0 ?addListener$@event0@@SAXQAV1@@QAVrTypeLibrary@TypeLibraries@RunTime@VIP@@111XQAVevent4@@@XXXX@Z 
01:0002B364 ?addlistener/2np5$1@event0@@SAXPAUaddlistener/2np5$1_struct@1@XXXXX@Z 
01:0002B388 ?addListener$@event0@@SAXQAV1@@QAVrTypeLibrary@TypeLibraries@RunTime@VIP@@1111XQAVevent5@@@XXXXX@Z 
01:0002B408 event7{@Type1,@Type2,@Type3,@Type4,@Type5,@Type6,@Type7}?_initObject@@@QAGXQAV1@H@Z 
01:0002B448 ?@create_object@event7@@SGQAV1@@XXXXXXXQAVrTypeLibrary@TypeLibraries@RunTime@VIP@@000000@Z 
01:0002B484 event7{@Type1,@Type2,@Type3,@Type4,@Type5,@Type6,@Type7}?_InternalFinalizer@@@QAGXQAV1@@Z 
01:0002B498 event6{@Type1,@Type2,@Type3,@Type4,@Type5,@Type6}?_initObject@@@QAGXQAV1@H@Z 
01:0002B4D4 ?@create_object@event6@@SGQAV1@@XXXXXXQAVrTypeLibrary@TypeLibraries@RunTime@VIP@@00000@Z 
01:0002B50C event6{@Type1,@Type2,@Type3,@Type4,@Type5,@Type6}?_InternalFinalizer@@@QAGXQAV1@@Z 
01:0002B520 event5{@Type1,@Type2,@Type3,@Type4,@Type5}?_initObject@@@QAGXQAV1@H@Z 
01:0002B558 ?@create_object@event5@@SGQAV1@@XXXXXQAVrTypeLibrary@TypeLibraries@RunTime@VIP@@0000@Z 
01:0002B58C event5{@Type1,@Type2,@Type3,@Type4,@Type5}?_InternalFinalizer@@@QAGXQAV1@@Z 
01:0002B5A0 event4{@Type1,@Type2,@Type3,@Type4}?_initObject@@@QAGXQAV1@H@Z 
01:0002B5D4 ?@create_object@event4@@SGQAV1@@XXXXQAVrTypeLibrary@TypeLibraries@RunTime@VIP@@000@Z 
01:0002B604 event4{@Type1,@Type2,@Type3,@Type4}?_InternalFinalizer@@@QAGXQAV1@@Z 
01:0002B618 event3{@Type1,@Type2,@Type3}?_initObject@@@QAGXQAV1@H@Z 
01:0002B648 ?@create_object@event3@@SGQAV1@@XXXQAVrTypeLibrary@TypeLibraries@RunTime@VIP@@00@Z 
01:0002B674 event3{@Type1,@Type2,@Type3}?_InternalFinalizer@@@QAGXQAV1@@Z 
01:0002B688 event2{@Type1,@Type2}?_initObject@@@QAGXQAV1@H@Z 
01:0002B6B4 ?@create_object@event2@@SGQAV1@@XXQAVrTypeLibrary@TypeLibraries@RunTime@VIP@@0@Z 
01:0002B6DC event2{@Type1,@Type2}?_InternalFinalizer@@@QAGXQAV1@@Z 
01:0002B6F0 event1{@Type1}?_initObject@@@QAGXQAV1@H@Z 
01:0002B718 ?@create_object@event1@@SGQAV1@@XQAVrTypeLibrary@TypeLibraries@RunTime@VIP@@@Z 
01:0002B73C event1{@Type1}?_InternalFinalizer@@@QAGXQAV1@@Z 
01:0002B750 event0?_initObject@@@QAGXQAV1@H@Z 
01:0002B768 ?@create_object@event0@@SGQAV1@@XZ 
01:0002B784 event0?_InternalFinalizer@@@QAGXQAV1@@Z 
--- From 'obj\presenter.E6E77556.obj'
01:0002B790 ?present_term@presenter@@SGPAUpresentation_struct@1@QAVrTypeLibrary@TypeLibraries@RunTime@VIP@@X@Z 
--- From 'obj\outputStreamSupport.6F229CFB.obj'
01:0002B7B4 ?present_term_native@presenter@@SGPAUpresentation_struct@1@QAVrTypeLibrary@TypeLibraries@RunTime@VIP@@X@Z 
01:0002B7D8 ?present@presenter@@SGPAUpresentation_struct@1@PBUany@_builtIn@@@Z 
--- From 'obj\presenter.E6E77556.obj'
01:0002B800 ?present_native@presenter@@SGPAUpresentation_struct@1@PBUany@_builtIn@@@Z 
01:0002B828 ?_presentRuntime@presenter@@SAXPBUany@_builtIn@@PAUboolean_struct@3@PAPAUpresentation_struct@1@@Z 
01:0002B87C ?_presentDebug@presenter@@SAXPBUany@_builtIn@@PAUboolean_struct@3@PAUoptional_struct@core@@PA$?predicate$1@7@SAXPBUtraceId@exception@@@Z$PAPAUpresentDebugResult_struct@1@PAPAUpresentation_struct@1@@Z  (Idle)
01:0002BC20 ?_mkPresenter_fixedList@presenter@@SAXPAU?$__packedList_struct@PAUfieldPresentation_struct@1@@@PAPAUpresentation_struct@1@@Z  (Idle)
01:0002BC4C ?_mkPresenter_fixedList@presenter@@SAXPB_WPAU?$__packedList_struct@PAUfieldPresentation_struct@1@@@PAPAUpresentation_struct@1@@Z 
01:0002BC94 ?_mkPresenter_fixed@presenter@@SAXPAUfieldPresentation_struct@1@PAPAUpresentation_struct@1@@Z 
--- From 'obj\outputStreamSupport.6F229CFB.obj'
01:0002BCB8 ?_mkPresenter_fixed@presenter@@SAXPAUfieldPresentation_struct@1@0PAPAUpresentation_struct@1@@Z 
--- From 'obj\presenter.E6E77556.obj'
01:0002BCF8 ?_mkPresenter_fixed@presenter@@SAXPAUfieldPresentation_struct@1@00PAPAUpresentation_struct@1@@Z  (Idle)
01:0002BD4C ?_mkPresenter_fixed@presenter@@SAXPAUfieldPresentation_struct@1@000PAPAUpresentation_struct@1@@Z  (Idle)
--- From 'obj\time.6AFD2988.obj'
01:0002BDB4 ?_mkPresenter_fixed@presenter@@SAXPAUfieldPresentation_struct@1@0000PAPAUpresentation_struct@1@@Z 
--- From 'obj\presenter.E6E77556.obj'
01:0002BE2C ?_mkPresenter_fixed@presenter@@SAXPAUfieldPresentation_struct@1@00000PAPAUpresentation_struct@1@@Z 
01:0002BEB8 ?_mkPresenter_fixed@presenter@@SAXPAUfieldPresentation_struct@1@000000PAPAUpresentation_struct@1@@Z 
01:0002BF58 ?_mkPresenter_fixed@presenter@@SAXPAUfieldPresentation_struct@1@0000000PAPAUpresentation_struct@1@@Z  (Idle)
01:0002C00C ?_mkPresenter_fixed@presenter@@SAXPAUfieldPresentation_struct@1@00000000PAPAUpresentation_struct@1@@Z  (Idle)
01:0002C0D0 ?_mkPresenter_fixed@presenter@@SAXPAUfieldPresentation_struct@1@000000000PAPAUpresentation_struct@1@@Z  (Idle)
01:0002C1A8 ?_mkPresenter_delim@presenter@@SAXPB_WPAUfieldPresentation_struct@1@1PAPAUpresentation_struct@1@@Z 
01:0002C1E8 ?_mkPresenter_delim@presenter@@SAXPB_WPAUfieldPresentation_struct@1@11PAPAUpresentation_struct@1@@Z  (Idle)
--- From 'obj\segmented.E9C86B20.obj'
01:0002C23C ?_mkPresenter_delim@presenter@@SAXPB_WPAUfieldPresentation_struct@1@111PAPAUpresentation_struct@1@@Z 
01:0002C2A4 ?_mkPresenter_delim@presenter@@SAXPB_WPAUfieldPresentation_struct@1@1111PAPAUpresentation_struct@1@@Z 
--- From 'obj\presenter.E6E77556.obj'
01:0002C31C ?_mkPresenter_delim@presenter@@SAXPB_WPAUfieldPresentation_struct@1@11111PAPAUpresentation_struct@1@@Z  (Idle)
01:0002C3A8 ?_mkPresenter_delim@presenter@@SAXPB_WPAUfieldPresentation_struct@1@111111PAPAUpresentation_struct@1@@Z  (Idle)
01:0002C448 ?_mkPresenter_delim@presenter@@SAXPB_WPAUfieldPresentation_struct@1@1111111PAPAUpresentation_struct@1@@Z  (Idle)
01:0002C4FC ?_mkPresenter_delim@presenter@@SAXPB_WPAUfieldPresentation_struct@1@11111111PAPAUpresentation_struct@1@@Z  (Idle)
01:0002C5C0 ?_mkPresenter_delim@presenter@@SAXPB_WPAUfieldPresentation_struct@1@111111111PAPAUpresentation_struct@1@@Z  (Idle)
01:0002C698 ?_mkNoExpand@presenter@@SAXQAVrTypeLibrary@TypeLibraries@RunTime@VIP@@PB_WXPAPAUpresentation_struct@1@@Z 
--- From 'obj\segmented.E9C86B20.obj'
01:0002C6D4 ?_mkExpand@presenter@@SAXQAVrTypeLibrary@TypeLibraries@RunTime@VIP@@PB_WXPAPAUpresentation_struct@1@@Z 
--- From 'obj\presenter.E6E77556.obj'
01:0002C714 ?_mkSub_term@presenter@@SAXQAVrTypeLibrary@TypeLibraries@RunTime@VIP@@0XPAPAUsubPresentation_struct@1@PAX@Z 
--- From 'obj\outputStreamSupport.6F229CFB.obj'
01:0002C750 ?_mkFP_term@presenter@@SAXQAVrTypeLibrary@TypeLibraries@RunTime@VIP@@PB_WXPAPAUfieldPresentation_struct@1@@Z 
--- From 'obj\time.6AFD2988.obj'
01:0002C788 ?_mkFP_childOnly_term@presenter@@SAXQAVrTypeLibrary@TypeLibraries@RunTime@VIP@@PB_WXPAPAUfieldPresentation_struct@1@@Z 
--- From 'obj\presenter.E6E77556.obj'
01:0002C7C8 ?_mkFP_pres@presenter@@SAXPB_WPA$?_function$1@core@@SAXPAPAUpresentation_struct@1@@Z$PAPAUfieldPresentation_struct@1@@Z  (Idle)
--- From 'obj\redBlackSet.DC1C3622.obj'
01:0002C80C ?_mkPresenter_set@presenter@@SAXQAVrTypeLibrary@TypeLibraries@RunTime@VIP@@PA$?_function_nd$1@core@@SAXPAX@Z$PAPAUpresentation_struct@1@@Z 
--- From 'obj\presenter.E6E77556.obj'
01:0002C858 ?_mkpresenter_setelements/1nf$1@presenter@@SAXPAUmkpresenter_setelements/1nf$1_struct@1@PAPAUsubPresentation_struct@1@PAPAUpresentation_struct@1@@Z 
01:0002C8D4 ?_mkPresenter_setElements@presenter@@SAXQAVrTypeLibrary@TypeLibraries@RunTime@VIP@@PA$?_function_nd$1@core@@SAXPAX@Z$PAPAUpresentation_struct@1@@Z 
01:0002C954 ?_mkPresenter_map@presenter@@SAXQAVrTypeLibrary@TypeLibraries@RunTime@VIP@@0PA$?_function_nd$1@core@@SAXPAPAUtuple_struct@1@PAXPAX@Z$PAPAUpresentation_struct@1@@Z 
01:0002C9B4 ?_mkpresenter_mapelements/2nf$1@presenter@@SAXPAUmkpresenter_mapelements/2nf$1_struct@1@PAPAUsubPresentation_struct@1@PAPAUpresentation_struct@1@@Z 
01:0002CAE8 ?_mkPresenter_mapElements@presenter@@SAXQAVrTypeLibrary@TypeLibraries@RunTime@VIP@@0PB_WPA$?_function_nd$1@core@@SAXPAPAUtuple_struct@1@PAXPAX@Z$PAPAUpresentation_struct@1@@Z 
01:0002CB74 ?_presenter_flagset/2nf$1@presenter@@SAXPAUpresenter_flagset/2nf$1_struct@1@PAPAUsubPresentation_struct@1@PAPAUpresentation_struct@1@@Z 
01:0002CC20 ?_presenter_flagset/2nf$2@presenter@@SAXPAUpresenter_flagset/2nf$2_struct@1@PAPAUpresentation_struct@1@@Z 
01:0002CCE0 ?_presenter_flagSet@presenter@@SAXIPAU?$__packedList_struct@PAUtuple_struct@core@@IPB_W@@PAPAUpresentation_struct@1@@Z  (Idle)
01:0002CD78 ?_excludeddomainchecker/0nf_fv$1@presenter@@SAXPBUany@_builtIn@@QAVtypeLibrary@@reflection@pfc@@PAPAUboolean_struct@3@@Z 
01:0002CD8C ?excludedDomainChecker@presenter@@SGXX@Z  (Idle)
--- From 'obj\exe.D80FC844.obj'
01:0002CDA0 _runtimeExceptionRaiser 
--- From 'obj\exception.B6F320E8.obj'
01:0002CF0C ?_exceptionFromExceptionCode@runtime_exception@@SAXIPAPAUexception_struct@core@@@Z 
--- From 'obj\string.19AABD3B.obj'
01:0002CF70 ?_exceptionFromErrorCode@runtime_exception@@SAXIPAPAUexception_struct@core@@@Z 
--- From 'obj\exception.B6F320E8.obj'
01:0002CFC4 ?_tryGetExceptionFromErrorCode@runtime_exception@@SAXIPAPAUexception_struct@core@@@Z 
01:0002D710 ?raise_externalError_explicit@exception_exception@@SAXPAUprogramPoint_struct@core@@PBUerrorCode@programControl@@PAU?$__packedList_struct@PAUnamedValue_struct@3@PAUvalue_struct@3@@@@Z  (Idle)
--- From 'obj\time.6AFD2988.obj'
01:0002D780 ?_tryGetDescriptor@exception@@SAXPBUtraceId@1@PAUexception_struct@core@@PAPAUdescriptor_struct@1@@Z 
--- From 'obj\exception.B6F320E8.obj'
01:0002D814 ?findException@exception@@SAXPBUtraceId@1@PAU?$__packedList_struct@PAUexception_struct@core@@@@@Z  (Idle)
--- From 'obj\exceptionHandling.2B4136FF.obj'
01:0002D87C ?_getDescriptor_nd@exception@@SAXPBUtraceId@1@PAPAUdescriptor_struct@1@@Z 
--- From 'obj\exception.B6F320E8.obj'
01:0002D9EC ?_mkProgramPointDescriptor_explicit@exception@@SAXPAUprogramPoint_struct@core@@PAPAUprogramPointDescriptor_struct@1@@Z 
01:0002DA30 ?_getDescriptorChain_nd@exception@@SAXQAVerrorDescriptorInformation@@@PAPAUdescriptor_struct@1@@Z 
01:0002DA84 ?_getDescriptorChain1_nd@exception@@SAXQAVerrorDescriptorInformation@@@PAPAUdescriptor_struct@1@@Z 
01:0002DB54 ?_getDescriptorChainFromPacked_nd@exception@@SAXPAU?$__packedList_struct@PAUnamedValue_struct@core@@PAUvalue_struct@3@@@PAPAUdescriptor_struct@1@@Z 
01:0002DBF8 ?_getTraceInfo_noLineInfo@exception@@SAXPBUtraceId@1@PAPAUtraceInfo_struct@1@@Z  (Idle)
--- From 'obj\exceptionDump.2B9C9E40.obj'
01:0002DC14 ?_getTraceInfo@exception@@SAXPBUtraceId@1@PAPAUtraceInfo_struct@1@@Z 
--- From 'obj\exception.B6F320E8.obj'
01:0002DC30 ?_getTraceInfo@exception@@SAXPBUtraceId@1@PAUboolean_struct@_builtIn@@PAPAUtraceInfo_struct@1@@Z 
01:0002DCF4 ?_mkPlatformIndependent_descriptor@exception@@SAXPAUdescriptor_struct@1@PAPAU21@@Z 
01:0002DD74 ?_getstacktrace_sync/2nf$1@exception@@SAXPAUgetstacktrace_sync/2nf$1_struct@1@PAPAU?$__packedList_struct@PAPAUlineInfo_struct@1@@@@Z 
01:0002DDA8 ?_getStackTrace_sync@exception@@SAXPBUtraceId@1@PAUboolean_struct@_builtIn@@PAPAU?$__packedList_struct@PAPAUlineInfo_struct@1@@@@Z 
01:0002DE44 ?_getStackTrace@exception@@SAXPBUtraceId@1@PAUboolean_struct@_builtIn@@PAPAU?$__packedList_struct@PAPAUlineInfo_struct@1@@@@Z 
01:0002DEB4 ?_getStackInfo_nd@exception@@SAXQAVtrapInformationObject@@@PAUboolean_struct@_builtIn@@PAPAUlineInfo_struct@1@@Z 
01:0002DFD4 ?_getModuleHandleByAddress@exception@@SAXPBUunsignedNative@_builtIn@@AAUhModule@core@@@Z  (Idle)
01:0002E024 ?_getModuleNameByAddress@exception@@SAXPBUunsignedNative@_builtIn@@PAPB_W@Z  (Idle)
01:0002E084 ?_tryGetLineInfo@exception@@SAXPBUunsignedNative@_builtIn@@PAUboolean_struct@3@PAPAUlineInfo_struct@1@@Z 
01:0002E13C ?_tryGetExtraInfo@exception@@SAXPAUdescriptor_struct@1@PB_WPAPAUvalue_struct@core@@@Z  (Idle)
--- From 'obj\string.19AABD3B.obj'
01:0002E174 ?_getErrorCode@exception@@SAXPBUtraceId@1@PAI@Z 
01:0002E1C8 ?_tryGetErrorDescriptorInformation@exception@@SAXPBUtraceId@1@PAPAVerrorDescriptorInformation@@@@Z 
--- From 'obj\exception.B6F320E8.obj'
01:0002E1F0 ?_tryGetErrorDescriptorInformation1@exception@@SAXQAVtrapInformationObject@@@PAPAVerrorDescriptorInformation@@@@Z 
01:0002E214 ?_getTrapInformationObject@exception@@SAXPBUtraceId@1@PAPAVtrapInformationObject@@@@Z  (Idle)
01:0002E2E0 ?_tryGetTrapInformationObject@exception@@SAXPBUtraceId@1@PAPAVtrapInformationObject@@@@Z 
--- From 'obj\math.5D7D6037.obj'
01:0002E364 ?raiseDetailed_explicit@exception@@SAXPAUprogramPoint_struct@core@@PAUexception_struct@3@PAU?$__packedList_struct@PAUnamedValue_struct@3@PAUvalue_struct@3@@@@Z 
--- From 'obj\guid_api.488B7439.obj'
01:0002E380 ?raise_explicit@exception@@SAXPAUprogramPoint_struct@core@@PAUexception_struct@3@PAU?$__packedList_struct@PAUnamedValue_struct@3@PAUvalue_struct@3@@@@Z 
--- From 'obj\segmentedSupport.2BAFE67D.obj'
01:0002E3BC ?raise_error_explicit@exception@@SAXPAUprogramPoint_struct@core@@@Z 
--- From 'obj\exception.B6F320E8.obj'
01:0002E3E4 ?raise_exception_explicit@exception@@SAXPAUprogramPoint_struct@core@@PAUexception_struct@3@@Z 
--- From 'obj\fileSystem.5B0F823E.obj'
01:0002E410 ?raise_user_explicit@exception@@SAXPAUprogramPoint_struct@core@@PB_WPAU?$__packedList_struct@PAUnamedValue_struct@3@PAUvalue_struct@3@@@@Z 
--- From 'obj\exception.B6F320E8.obj'
01:0002E430 ?raise_user_explicit@exception@@SAXPAUprogramPoint_struct@core@@PAUexception_struct@3@PB_WPAU?$__packedList_struct@PAUnamedValue_struct@3@PAUvalue_struct@3@@@@Z 
01:0002E4A0 ?raise_definiteUser_explicit@exception@@SAXPAUprogramPoint_struct@core@@PB_WPAU?$__packedList_struct@PAUnamedValue_struct@3@PAUvalue_struct@3@@@@Z  (Idle)
--- From 'obj\fileSystem_api.C5B8AF1A.obj'
01:0002E4C0 ?raise_definiteUser_explicit@exception@@SAXPAUprogramPoint_struct@core@@PAUexception_struct@3@PB_WPAU?$__packedList_struct@PAUnamedValue_struct@3@PAUvalue_struct@3@@@@Z 
--- From 'obj\exception.B6F320E8.obj'
01:0002E544 ?raise_packed_explicit@exception@@SAXPAUprogramPoint_struct@core@@PAUtraceInfo_struct@1@@Z  (Idle)
--- From 'obj\segmentedSupport.2BAFE67D.obj'
01:0002E5D8 ?raise_errorf_explicit@exception@@SAXPAUprogramPoint_struct@core@@PB_W@Z 
--- From 'obj\exception.B6F320E8.obj'
01:0002E60C ?raise_couldNotCreate_explicit@exception@@SAXPAUprogramPoint_struct@core@@PAU?$__packedList_struct@PAUnamedValue_struct@3@PAUvalue_struct@3@@@@Z  (Idle)
01:0002E628 ?raise_removeListener_explicit@exception@@SAXPAUprogramPoint_struct@core@@PB_W@Z  (Idle)
--- From 'obj\fileSystem_api.C5B8AF1A.obj'
01:0002E69C ?checkOk_nativeCallException_explicit@exception@@SGXPAUprogramPoint_struct@core@@PBUhResult@3@PAU?$__packedList_struct@PAUnamedValue_struct@3@PAUvalue_struct@3@@@@Z 
--- From 'obj\string8_api.53D65538.obj'
01:0002E6D8 ?raise_nativeCallException_explicit@exception@@SAXPAUprogramPoint_struct@core@@PB_WPBUhResult@3@PAU?$__packedList_struct@PAUnamedValue_struct@3@PAUvalue_struct@3@@@1PAU?$__packedList_struct@PBU43@@@@Z 
--- From 'obj\fileSystem.5B0F823E.obj'
01:0002E764 ?_addErrorCode@exception@@SAXPBUhResult@core@@PAU?$__packedList_struct@PAUnamedValue_struct@3@PAUvalue_struct@3@@@PB_WPAU?$__packedList_struct@PBU23@@@PAPAU?$__packedList_struct@PAPAU43@PAPAU63@@@@Z 
--- From 'obj\gui_api.9FE53D0D.obj'
01:0002E940 ?raise_nativeCallUnspecifiedException_explicit@exception@@SAXPAUprogramPoint_struct@core@@PB_WPAU?$__packedList_struct@PAUnamedValue_struct@3@PAUvalue_struct@3@@@1@Z 
--- From 'obj\exception.B6F320E8.obj'
01:0002EA1C ?raise_notImplemented_explicit@exception@@SAXPAUprogramPoint_struct@core@@PB_W@Z  (Idle)
--- From 'obj\fileSystem.5B0F823E.obj'
01:0002EA4C ?raise_unsupportedPredicate_explicit@exception@@SAXPAUprogramPoint_struct@core@@PB_W@Z 
--- From 'obj\exception.B6F320E8.obj'
01:0002EA7C ?_optionalDescription@exception@@SAXPB_WPAPAU?$__packedList_struct@PAPAUnamedValue_struct@core@@PAPAUvalue_struct@3@@@@Z 
01:0002EAF8 ?raise_overloadingExpected_explicit@exception@@SAXPAUprogramPoint_struct@core@@@Z  (Idle)
--- From 'obj\segmentedSupport.2BAFE67D.obj'
01:0002EB14 ?raise_indexOutOfRange_explicit@exception@@SAXPAUprogramPoint_struct@core@@HH@Z 
01:0002EBDC ?check_indexOutOfRange_explicit@exception@@SAXPAUprogramPoint_struct@core@@HH@Z 
--- From 'obj\fileSystem.5B0F823E.obj'
01:0002EC00 ?continueDetailed_explicit@exception@@SAXPAUprogramPoint_struct@core@@PBUtraceId@1@PAUexception_struct@3@PAU?$__packedList_struct@PAUnamedValue_struct@3@PAUvalue_struct@3@@@@Z 
--- From 'obj\string.19AABD3B.obj'
01:0002EC1C ?continue_explicit@exception@@SAXPAUprogramPoint_struct@core@@PBUtraceId@1@PAUexception_struct@3@PAU?$__packedList_struct@PAUnamedValue_struct@3@PAUvalue_struct@3@@@@Z 
--- From 'obj\exception.B6F320E8.obj'
01:0002EC64 ?addContinue2@exception@@SAXPAUprogramPoint_struct@core@@QAVtrapInformationObject@@@PAUexception_struct@3@PAU?$__packedList_struct@PAUnamedValue_struct@3@PAUvalue_struct@3@@@@Z 
01:0002ED80 ?addContinue_explicit@exception@@SAXPAUprogramPoint_struct@core@@PBUtraceId@1@PAUexception_struct@3@PAU?$__packedList_struct@PAUnamedValue_struct@3@PAUvalue_struct@3@@@@Z  (Idle)
01:0002EDA8 ?addContinue_unknown_explicit@exception@@SAXPAUprogramPoint_struct@core@@PBUtraceId@1@@Z  (Idle)
01:0002EDD8 ?continue_exceptionInListener_explicit@exception@@SAXPAUprogramPoint_struct@core@@PBUtraceId@1@PB_W@Z  (Idle)
--- From 'obj\time.6AFD2988.obj'
01:0002EE4C ?continue_unknown_explicit@exception@@SAXPAUprogramPoint_struct@core@@PBUtraceId@1@@Z 
--- From 'obj\exception.B6F320E8.obj'
01:0002EE7C ?continue_unknownf_explicit@exception@@SAXPAUprogramPoint_struct@core@@PBUtraceId@1@PB_W@Z  (Idle)
--- From 'obj\fileSystem.5B0F823E.obj'
01:0002EEB0 ?continue_user_explicit@exception@@SAXPAUprogramPoint_struct@core@@PBUtraceId@1@PB_WPAU?$__packedList_struct@PAUnamedValue_struct@3@PAUvalue_struct@3@@@@Z 
--- From 'obj\exception.B6F320E8.obj'
01:0002EED4 ?continue_user_explicit@exception@@SAXPAUprogramPoint_struct@core@@PBUtraceId@1@PAUexception_struct@3@PB_WPAU?$__packedList_struct@PAUnamedValue_struct@3@PAUvalue_struct@3@@@@Z 
01:0002EF48 ?continue_definiteUser_explicit@exception@@SAXPAUprogramPoint_struct@core@@PBUtraceId@1@PB_WPAU?$__packedList_struct@PAUnamedValue_struct@3@PAUvalue_struct@3@@@@Z  (Idle)
01:0002EF6C ?continue_definiteUser_explicit@exception@@SAXPAUprogramPoint_struct@core@@PBUtraceId@1@PAUexception_struct@3@PB_WPAU?$__packedList_struct@PAUnamedValue_struct@3@PAUvalue_struct@3@@@@Z 
01:0002EFF4 ?isDefiniteUserError@exception@@SAXPBUtraceId@1@@Z  (Idle)
01:0002F040 ?isHeapOverflow@exception@@SAXPBUtraceId@1@@Z  (Idle)
--- From 'obj\exceptionHandling.2B4136FF.obj'
01:0002F17C ?_getLastErrorDescription@exception@@SAXPBUhResult@core@@PAPB_W@Z 
--- From 'obj\exception.B6F320E8.obj'
01:0002F1CC ?_makeCallStack@exception@@SAXPAPAU?$__packedList_struct@PAPAUlineInfo_struct@1@@@@Z  (Idle)
01:0002F200 ?_tryGetExceptionDescription@exception@@SAXPBUtraceId@1@PAPB_W@Z 
01:0002F350 ?_mkTraceId@exception@@SAXXAAUtraceId@1@@Z  (Idle)
01:0002F394 ?_trySplitAny2List@exception@@SAXPAU?$__packedList_struct@PBUany@_builtIn@@@@PAPAU?$__packedList_struct@PAPAUtuple_struct@core@@PAPB_WAAU23@@@@Z  (Idle)
01:0002F45C ?mkErrorArguments@exception@@SAPAU?$__packedList_struct@PAUnamedValue_struct@core@@PAUvalue_struct@3@@@XZ 
01:0002FA10 ?mkErrorArgumentsf@exception@@SAPAU?$__packedList_struct@PAUnamedValue_struct@core@@PAUvalue_struct@3@@@PAUprogramPoint_struct@3@PB_W@Z 
01:0002FAB8 ?__lateFactInit$getstacktrace_cs$0$exception@classDB@1@SAXPAPAVcriticalSection@@@@Z 
01:0002FAD4 ?new$@errorDescriptorInformation@@SAXQAV1@@PAUprogramPoint_struct@core@@PAUexception_struct@4@PAUkind_struct@exception@@PAU?$__packedList_struct@PAUnamedValue_struct@4@PAUvalue_struct@4@@@PAPBUgmtTimeValue@4@PBUthreadId@multiThread_native@@@Z  (Idle)
01:0002FB5C ?gmtTimeFormatted@errorDescriptorInformation@@SGPB_WQAV1@@@Z 
01:0002FBAC ?_tryGetContinueException$@errorDescriptorInformation@@SAXQAV1@@PAPAV1@@@Z 
01:0002FBD0 ?setContinueException$@errorDescriptorInformation@@SAXQAV1@@0@Z 
01:0002FBF8 ?_create@errorDescriptorInformation@@SAXPAUprogramPoint_struct@core@@PAUexception_struct@3@PAUkind_struct@exception@@PAU?$__packedList_struct@PAUnamedValue_struct@3@PAUvalue_struct@3@@@PAPAV1@@@Z 
01:0002FC3C ?exceptionDescription@errorDescriptorInformation@@SGPB_WQAV1@@@Z 
--- From 'obj\exceptionDump.2B9C9E40.obj'
01:0002FC5C ?_formatDateTime@errorDescriptorInformation@@SAXPAPBUgmtTimeValue@core@@PAPB_W@Z 
--- From 'obj\exception.B6F320E8.obj'
01:0002FCF8 ?_new@errorDescriptorInformation@@SAXPAUprogramPoint_struct@core@@PAUexception_struct@3@PAUkind_struct@exception@@PAU?$__packedList_struct@PAUnamedValue_struct@3@PAUvalue_struct@3@@@PAPBUgmtTimeValue@3@PBUthreadId@multiThread_native@@PAPAV1@@@Z 
01:0002FD30 ?exception@errorDescriptorInformation@@SGPAUexception_struct@core@@QAV1@@@Z 
01:0002FD3C ?programPointDescriptor@errorDescriptorInformation@@SGPAUprogramPointDescriptor_struct@exception@@QAV1@@@Z 
01:0002FD48 ?kind@errorDescriptorInformation@@SGPAUkind_struct@exception@@QAV1@@@Z 
01:0002FD54 ?extraInfo@errorDescriptorInformation@@SGXQAV1@@PAU?$__packedList_struct@PAUnamedValue_struct@core@@PAUvalue_struct@4@@@@Z 
01:0002FD64 ?extraInfo@errorDescriptorInformation@@SGPAU?$__packedList_struct@PAUnamedValue_struct@core@@PAUvalue_struct@3@@@QAV1@@@Z 
01:0002FD70 ?_gmtTime@errorDescriptorInformation@@SAXQAV1@@PAAAUgmtTimeValue@core@@@Z 
01:0002FD84 ?threadId@errorDescriptorInformation@@SGPBU0multiThread_native@@QAV1@@@Z 
01:0002FD98 errorDescriptorInformation?_initObject@@@QAGXQAV1@H@Z 
01:0002FDB0 ?@create_object@errorDescriptorInformation@@SGQAV1@@XZ 
01:0002FDCC errorDescriptorInformation?_InternalFinalizer@@@QAGXQAV1@@Z 
--- From 'obj\exe.D80FC844.obj'
01:0002FDE0 ?_setRuntimeExceptionRaiser@programControl@@SAXXPAX@Z 
--- From 'obj\exceptionDump.2B9C9E40.obj'
01:0002FE20 ?_getScopeDescriptor@reflection_native@reflection@pfc@@SAXPBUhScopeDescriptor@core@@PAPAVscopeDescriptor@@23@@Z 
--- From 'obj\reflection.ACE59E5C.obj'
01:0002FE30 ?isPointerNull@reflection_native@reflection@pfc@@SAXQAVrTypeLibrary@TypeLibraries@RunTime@VIP@@X@Z  (Idle)
01:0002FE48 ?isPointerNullEx@reflection_native@reflection@pfc@@SAXQAVtypeLibrary@@23@PBUboxedTerm@223@@Z 
01:0002FE68 ?isPointerValidEx@reflection_native@reflection@pfc@@SAXQAVtypeLibrary@@23@PBUboxedTerm@223@@Z 
01:0002FF6C ?isListType@reflection_native@reflection@pfc@@SAXQAVtypeLibrary@@23@@Z  (Idle)
01:0002FFAC ?_isListType@reflection_native@reflection@pfc@@SAXQAVtypeLibrary@@23@PAPAV4@23@@Z  (Idle)
01:0002FFEC ?_isInlineType@reflection_native@reflection@pfc@@SAXQAVtypeLibrary@@23@PAPAV4@23@@Z  (Idle)
01:0003003C ?_isPredicateType@reflection_native@reflection@pfc@@SAXQAVtypeLibrary@@23@PAPAUcallTypeDescriptor_struct@typeDescriptor_arrow@23@@Z  (Idle)
01:00030070 ?isEndOfList@reflection_native@reflection@pfc@@SAXPBUboxedTerm@223@@Z  (Idle)
01:00030088 ?isSomeType@reflection_native@reflection@pfc@@SAXQAVtypeLibrary@@23@@Z  (Idle)
01:000300EC ?expandAnyTerm@reflection_native@reflection@pfc@@SAXPBUany@_builtIn@@PAPAVtypeLibrary@@23@AAUboxedTerm@223@@Z 
01:00030108 ?_mk_anyTerm@reflection_native@reflection@pfc@@SAXQAVtypeLibrary@@23@PBUboxedTerm@223@AAUany@_builtIn@@@Z  (Idle)
01:00030134 ?expandPrologPredicateValue@reflection_native@reflection@pfc@@SAXPBUboxedTerm@223@PAPAXPAPAVobject@@@@Z  (Idle)
01:00030184 ?_mk_prologPredicateValue@reflection_native@reflection@pfc@@SAXPAXQAVobject@@@AAUboxedTerm@223@@Z  (Idle)
01:000301B0 ?expandFormalParameter@reflection_native@reflection@pfc@@SAXPAUformalParameter_struct@typeLibrary_arrow@23@PAPAVtypeLibrary@@23@PAPAUargumentFlow_struct@223@AAUarity@223@PAPAUoptional_struct@core@@PAPAUtypePattern_struct@523@@Z  (Idle)
01:000301E0 ?expandFactDbValue@reflection_native@reflection@pfc@@SAXPBUboxedTerm@223@PAPAVtypeLibrary@@23@PAPAVobject@@@@Z  (Idle)
01:000301FC ?isPrologObject@reflection_native@reflection@pfc@@SAXQAVobject@@@@Z  (Idle)
01:0003021C ?tryGetPrologObjectDescription@reflection_native@reflection@pfc@@SAXQAVobject@@@PAPAUviewDescriptor_struct@123@PAPAUviewDescriptorTableHeader_struct@123@@Z  (Idle)
01:00030278 ?_tryGetViewDescriptorPtr@reflection_native@reflection@pfc@@SAXQAVobject@@@PAPAX@Z 
01:000302BC ?_getClassTypeParameters@reflection_native@reflection@pfc@@SAXQAVobject@@@PAUviewDescriptorTableHeader_struct@123@PAPAU?$__packedList_struct@PAPAUtuple_struct@core@@PAPB_WPAPAVtypeLibrary@@23@@@@Z  (Idle)
01:000304A0 ?getPrologObjectOffsets@reflection_native@reflection@pfc@@SAXIAAUbyteOffset@core@@1@Z  (Idle)
01:00030508 ?_tryGetConstructionInterfaceTypeDescriptor@reflection_native@reflection@pfc@@SAXQAVscopeDescriptor@@23@PAPAVtypeDescriptor@@23@@Z  (Idle)
01:00030548 ?_tryGetInterfaceScopeDescriptor@reflection_native@reflection@pfc@@SAXQAVtypeDescriptor@@23@PAPAVscopeDescriptor@@23@@Z  (Idle)
01:0003058C ?_tryGetObjectClassDescriptor@reflection_native@reflection@pfc@@SAXQAVobject@@@PAPAVscopeDescriptor@@23@@Z  (Idle)
01:000305B8 ?tryGetObjectClassInfo@reflection_native@reflection@pfc@@SAXQAVscopeDescriptor@@23@AAUbyteCount@core@@PAPAU?$__packedList_struct@PAPAV4@23@@@@Z  (Idle)
01:00030724 ?_setPresenter@reflection_native@reflection@pfc@@SAXQAVtypeLibrary@@23@XPAX@Z  (Idle)
01:000307CC ?_getPresenterDescriptor@reflection_native@reflection@pfc@@SAXQAVtypeLibrary@@23@PAPAUpresenterDescriptor_struct@123@@Z 
01:00030808 ?isNullaryStruct@reflection_native@reflection@pfc@@SAXQAVtypeLibrary@@23@@Z 
01:0003086C ?isAnonymousPredicateClosure@reflection_native@reflection@pfc@@SAXPAUprologPredicateValue_struct@123@@Z  (Idle)
01:000308B8 ?_tryGetInterfaceViewDescriptor@reflection_native@reflection@pfc@@SAXQAVscopeDescriptor@@23@QAVobject@@@PAPAUviewDescriptor_struct@123@@Z  (Idle)
01:00030940 ?isViewDescriptorForInterface@reflection_native@reflection@pfc@@SAXQAVscopeDescriptor@@23@PAUviewDescriptor_struct@123@@Z 
01:00030960 ?_lookupInterfaceInViewDescriptorTable@reflection_native@reflection@pfc@@SAXQAVscopeDescriptor@@23@PAXPAPAUviewDescriptor_struct@123@@Z 
01:00030A50 ?_tryGetObjectStructure@reflection_native@reflection@pfc@@SAXQAVobject@@@PAPAUobjectStructure_struct@123@@Z  (Idle)
01:00030A88 ?_tryGetObjectStructure_internal@reflection_native@reflection@pfc@@SAXQAVobject@@@0PAUoptional_struct@core@@QAVvarM@@@PAXPAPAUobjectStructure_struct@123@@Z 
01:00030C04 ?_getSubobjectList@reflection_native@reflection@pfc@@SAXQAVobject@@@QAVvarM@@@PAXPBUbyteCount@core@@PAU?$__packedList_struct@QAVscopeDescriptor@@23@@@PAPAU?$__packedList_struct@PAPAUobjectStructure_struct@123@@@@Z 
01:00030DC4 ?isValidTypeLibrary@reflection_native@reflection@pfc@@SAXQAVtypeLibrary@@23@@Z  (Idle)
01:00030DEC ?isKnownTypeLibraryVTBL@reflection_native@reflection@pfc@@SAXPAX@Z 
01:00030E9C ?isValidTypeLibraryArguments@reflection_native@reflection@pfc@@SAXQAVtypeLibrary@@23@@Z 
01:00030F34 ?typeLibraryDependsOnSomeType@reflection_native@reflection@pfc@@SAXQAVtypeLibrary@@23@@Z  (Idle)
01:00030FD4 ?_mk_typeLibrary@reflection_native@reflection@pfc@@SAXQAVtypeDescriptor@@23@PAU?$__packedList_struct@QAV7@23@@@PAPAV7@23@@Z  (Idle)
01:0003112C ?_getTypeLibraryVTBL@reflection_native@reflection@pfc@@SAXQAVtypeDescriptor@@23@PAPAX@Z 
01:00031224 ?setTypeLibraryArguments@reflection_native@reflection@pfc@@SAXPAU?$__packedList_struct@QAVtypeLibrary@@23@@@PAX@Z 
01:0003126C ?termRepresentedByValue@reflection_native@reflection@pfc@@SAXQAVtypeLibrary@@23@@Z 
01:000312DC ?_tryGetFunctorName@reflection@1pfc@@SAXQAVrTypeLibrary@TypeLibraries@RunTime@VIP@@XPAPB_W@Z  (Idle)
01:0003130C ?_getFunctorName@reflection@1pfc@@SAXQAVrTypeLibrary@TypeLibraries@RunTime@VIP@@XPAPB_W@Z  (Idle)
01:000313AC ?_offsetOfTl@reflection@1pfc@@SAXQAVtypeLibrary@@13@IAAUbyteOffset@core@@@Z  (Idle)
01:00031504 ?_is_structure@reflection@1pfc@@SAXQAVtypeLibrary@@13@PAPAVtypeLibrary_functor@@13@@Z 
01:0003153C ?_offsetOf@reflection@1pfc@@SAXQAVrTypeLibrary@TypeLibraries@RunTime@VIP@@XIAAUbyteOffset@core@@@Z  (Idle)
01:00031598 ?_pointerOfField@reflection@1pfc@@SAXQAVrTypeLibrary@TypeLibraries@RunTime@VIP@@XIPAPAX@Z  (Idle)
01:000315CC ?_deParameterizeName@reflection@1pfc@@SAXPB_WPAPB_W@Z  (Idle)
01:0003161C ?isEmbeddedClassName@reflection@1pfc@@SAXPB_W@Z  (Idle)
--- From 'obj\segmentedSupport.2BAFE67D.obj'
01:000316AC reflection$noboxing 
--- From 'obj\reflection.ACE59E5C.obj'
01:000316BC ?_unbox_char@reflection@1pfc@@SAXPBUboxedTerm@113@PA_W@Z  (Idle)
01:000316D0 ?_box_integer@reflection@1pfc@@SAXHAAUboxedTerm@113@@Z  (Idle)
01:000316E0 ?_box_unsigned@reflection@1pfc@@SAXIAAUboxedTerm@113@@Z  (Idle)
01:000316F0 ?_box_char@reflection@1pfc@@SAX_WAAUboxedTerm@113@@Z  (Idle)
01:00031704 ?_box_real32@reflection@1pfc@@SAXMAAUboxedTerm@113@@Z  (Idle)
01:00031714 ?_mustGetFunctorTypeLibrary_explicit@reflection@1pfc@@SAXPAUprogramPoint_struct@core@@QAVtypeLibrary@@13@PAPAVtypeLibrary_functor@@13@@Z  (Idle)
01:00031764 ?unexpectedTypeLibrary@reflection@1pfc@@SAXPAUprogramPoint_struct@core@@PB_WQAVtypeLibrary@@13@@Z 
01:000317C8 ?_mustGetNumericTypeLibrary_explicit@reflection@1pfc@@SAXPAUprogramPoint_struct@core@@QAVtypeLibrary@@13@PAPAVtypeLibrary_numeric@@13@@Z  (Idle)
01:00031818 ?_mustGetArrowTypeLibrary_explicit@reflection@1pfc@@SAXPAUprogramPoint_struct@core@@QAVtypeLibrary@@13@PAPAVtypeLibrary_arrow@@13@@Z  (Idle)
01:00031868 ?_mustGetInterfaceDescriptor_explicit@reflection@1pfc@@SAXPAUprogramPoint_struct@core@@QAVtypeLibrary@@13@PAPAVscopeDescriptor@@13@@Z  (Idle)
01:000318B8 ?_mustGetInlineSizeInTypeElements_explicit@reflection@1pfc@@SAXPAUprogramPoint_struct@core@@QAVtypeLibrary_functor@@13@AAUbyteCount@5@@Z  (Idle)
01:0003191C ?mustGetNumericRange_integer_explicit@reflection@1pfc@@SAXPAUprogramPoint_struct@core@@QAVtypeLibrary_numeric@@13@PAHPAH@Z  (Idle)
01:000319B4 ?unexpectedNumericRange@reflection@1pfc@@SAXPAUprogramPoint_struct@core@@QAVtypeLibrary_numeric@@13@@Z 
01:00031A4C ?mustGetNumericRange_integer64_explicit@reflection@1pfc@@SAXPAUprogramPoint_struct@core@@QAVtypeLibrary_numeric@@13@PAPA_J2@Z  (Idle)
01:00031AC4 ?mustGetNumericRange_unsigned_explicit@reflection@1pfc@@SAXPAUprogramPoint_struct@core@@QAVtypeLibrary_numeric@@13@PAIPAI@Z  (Idle)
01:00031B5C ?mustGetNumericRange_unsigned64_explicit@reflection@1pfc@@SAXPAUprogramPoint_struct@core@@QAVtypeLibrary_numeric@@13@PAPA_K2@Z  (Idle)
01:00031BD4 ?mustGetNumericRange_real_explicit@reflection@1pfc@@SAXPAUprogramPoint_struct@core@@QAVtypeLibrary_numeric@@13@PAPAN2@Z  (Idle)
01:00031C6C ?_tryGetListElementTypeLibrary@reflection@1pfc@@SAXQAVtypeLibrary@@13@PAPAV4@13@@Z  (Idle)
01:00031CB0 ?writeTypeName@reflection@1pfc@@SAXQAVtypeLibrary@@13@QAVoutputStream@@@@Z  (Idle)
01:00031F10 ?typeLibraryName2stream@reflection@1pfc@@SAXQAVtypeLibrary@@13@QAVoutputStream@@@@Z 
01:00031FD8 ?_trimDomainName@reflection@1pfc@@SAXPB_WPAPB_W@Z 
01:00032028 ?writeCommaIfNotFirst@reflection@1pfc@@SAXQAVvarM_boolean@@@QAVoutputStream@@@@Z 
01:000320A4 ?writeCallDescriptor@reflection@1pfc@@SAXQAVoutputStream@@@QAVtypeLibrary@@13@PAUcallTypeDescriptor_struct@typeDescriptor_arrow@13@@Z 
01:000321F8 ?writeCallArgument_list@reflection@1pfc@@SAXQAVoutputStream@@@QAVtypeLibrary@@13@PAU?$__packedList_struct@PAUcallArgumentDescriptor_struct@typeDescriptor_arrow@13@@@PAUboolean_struct@_builtIn@@@Z 
01:00032304 ?writeCallArgument@reflection@1pfc@@SAXQAVoutputStream@@@QAVtypeLibrary@@13@PAUcallArgumentDescriptor_struct@typeDescriptor_arrow@13@@Z 
01:0003236C ?writeArgumentLibraryDescriptor@reflection@1pfc@@SAXQAVoutputStream@@@PAUargumentLibraryDescriptor_struct@113@QAVtypeLibrary@@13@QAVtypeDescriptor@@13@QAV9@13@@Z 
01:0003245C ?writeTypeLibraryArgument@reflection@1pfc@@SAXQAVoutputStream@@@IQAVtypeLibrary@@13@@Z 
01:000324F8 ?writeConstructArgumentLibraryDescriptor@reflection@1pfc@@SAXQAVoutputStream@@@QAVtypeDescriptor@@13@PAU?$__packedList_struct@PAUargumentLibraryDescriptor_struct@113@QAVtypeLibrary@@13@QAV5@13@@@QAV12@13@@Z 
01:000327DC ?_tryGetObjectName@reflection@1pfc@@SAXQAVobject@@@PAPB_W@Z  (Idle)
01:000328B8 ?_getSubstitutedClassName@reflection@1pfc@@SAXPB_WPAU?$__packedList_struct@PAUtuple_struct@core@@0QAVtypeLibrary@@13@@@PAPB_W@Z 
01:00032A6C ?_getTypeName@reflection@1pfc@@SAXQAVtypeLibrary@@13@PAPB_W@Z 
01:00032AC8 ?_predicateMode2string@reflection@1pfc@@SAXPAUpredicateMode_struct@113@PAPB_W@Z 
01:00032B20 ?_callingConvention2string@reflection@1pfc@@SAXPAUcallingConvention_struct@113@PAPB_W@Z 
01:00032B78 ?setStructField@reflection@1pfc@@SAXQAVrTypeLibrary@TypeLibraries@RunTime@VIP@@0XPB_WX@Z  (Idle)
01:00032C74 ?_getStructField@reflection@1pfc@@SAXQAVrTypeLibrary@TypeLibraries@RunTime@VIP@@0XPB_WPAPAUboolean_struct@_builtIn@@PAPAUpointerTo_struct@5@PAX@Z 
01:00032EBC ?_compare_typeLibrary@reflection@1pfc@@SAXQAV4@13@0PAPAUcompareResult_struct@_builtIn@@@Z 
01:00032F70 ?_compare_typeDescriptor@reflection@1pfc@@SAXQAV4@13@0PAPAUcompareResult_struct@_builtIn@@@Z 
01:00033004 ?_compare_callTypeDescriptor@reflection@1pfc@@SAXPAUcallTypeDescriptor_struct@typeDescriptor_arrow@13@0PAPAUcompareResult_struct@_builtIn@@@Z 
01:000332F4 ?_compare_callArgumentDescriptor@reflection@1pfc@@SAXPAUcallArgumentDescriptor_struct@typeDescriptor_arrow@13@0PAPAUcompareResult_struct@_builtIn@@@Z 
01:00033378 ?_compare_argumentLibraryDescriptor@reflection@1pfc@@SAXPAUargumentLibraryDescriptor_struct@113@QAVtypeLibrary@@13@QAVtypeDescriptor@@13@0PAPAUcompareResult_struct@_builtIn@@@Z 
01:0003355C ?_compareArgs@reflection@1pfc@@SAXPBUarity@113@0QAVtypeLibrary@@13@2PAPAUcompareResult_struct@_builtIn@@@Z 
01:00033604 ?_unbox_unsigned@reflection@1pfc@@SAXPBUboxedTerm@113@PAI@Z  (Idle)
01:00033614 ?_unbox_integer@reflection@1pfc@@SAXPBUboxedTerm@113@PAH@Z  (Idle)
01:00033624 ?_unbox_integer64@reflection@1pfc@@SAXPBUboxedTerm@113@PAPA_J@Z  (Idle)
01:00033644 ?_unbox_unsigned64@reflection@1pfc@@SAXPBUboxedTerm@113@PAPA_K@Z  (Idle)
01:00033664 ?_unbox_real@reflection@1pfc@@SAXPBUboxedTerm@113@PAPAN@Z  (Idle)
01:00033684 ?_unbox_real32@reflection@1pfc@@SAXPBUboxedTerm@113@PAM@Z  (Idle)
01:00033694 ?_box_integer64@reflection@1pfc@@SAXPA_JAAUboxedTerm@113@@Z  (Idle)
01:000336C4 ?_box_unsigned64@reflection@1pfc@@SAXPA_KAAUboxedTerm@113@@Z  (Idle)
01:000336F4 ?_box_real@reflection@1pfc@@SAXPANAAUboxedTerm@113@@Z  (Idle)
--- From 'obj\stream.8B55AAA7.obj'
01:00033720 ?withStream@streamExtension@@SAXQAVrTypeLibrary@TypeLibraries@RunTime@VIP@@XPA$?predicate$1@core@@SAXX@Z$@Z  (Idle)
01:000337A8 ?_withStream@streamExtension@@SAXQAVrTypeLibrary@TypeLibraries@RunTime@VIP@@0XPA$?_function$2@core@@SAXXPAX@Z$PAX@Z  (Idle)
--- From 'obj\fileSystem.5B0F823E.obj'
01:00033834 ?raise_endOfStream_explicit@stream_exception@@SAXPAUprogramPoint_struct@core@@@Z 
--- From 'obj\outputStreamSupport.6F229CFB.obj'
01:00033850 ?raise_notSupportedProperty_explicit@stream_exception@@SAXPAUprogramPoint_struct@core@@@Z 
01:0003386C ?raise_noCRLFconversion_explicit@stream_exception@@SAXPAUprogramPoint_struct@core@@@Z 
01:00033888 ?raise_wrongMode_explicit@stream_exception@@SAXPAUprogramPoint_struct@core@@PB_W@Z 
--- From 'obj\stream.8B55AAA7.obj'
01:000338FC ?raise_noStream_explicit@stream_exception@@SAXPAUprogramPoint_struct@core@@@Z  (Idle)
01:00033918 ?_tryGetInputStream$@stdioState@@SAXQAV1@@PAPAVinputStream@@@@Z 
01:0003393C ?_tryGetOutputStream$@stdioState@@SAXQAV1@@PAPAVoutputStream@@@@Z 
01:00033960 ?_tryGetErrorStream$@stdioState@@SAXQAV1@@PAPAVoutputStream@@@@Z 
01:00033984 ?new$@stdioState@@SAXQAV1@@@Z  (Idle)
01:0003398C ?_new@stdioState@@SAXPAPAV1@@@Z  (Idle)
01:000339B0 ?_object_facts_initializer$@stdioState@@SGXQAV1@@@Z 
01:000339CC ?inputStream@stdioState@@SGXQAV1@@QAV0@@@Z 
01:000339DC ?inputStream@stdioState@@SGQAV0@@QAV1@@@Z 
01:000339F8 ?outputStream@stdioState@@SGXQAV1@@QAV0@@@Z 
01:00033A08 ?outputStream@stdioState@@SGQAV0@@QAV1@@@Z 
01:00033A24 ?errorStream@stdioState@@SGXQAV1@@QAVoutputStream@@@@Z 
01:00033A34 ?errorStream@stdioState@@SGQAVoutputStream@@@QAV1@@@Z 
01:00033A50 ?inputStream@stdio@@SGQAV0@@XZ  (Idle)
01:00033A8C ?inputStream@stdio@@SGXQAV0@@@Z 
01:00033ACC ?_tryGetInputStream@stdio@@SAXPAPAVinputStream@@@@Z  (Idle)
01:00033B18 ?outputStream@stdio@@SGQAV0@@XZ  (Idle)
01:00033B54 ?outputStream@stdio@@SGXQAV0@@@Z 
--- From 'obj\exceptionDump.2B9C9E40.obj'
01:00033B94 ?_tryGetOutputStream@stdio@@SAXPAPAVoutputStream@@@@Z 
--- From 'obj\stream.8B55AAA7.obj'
01:00033BE0 ?errorStream@stdio@@SGQAVoutputStream@@@XZ  (Idle)
01:00033C1C ?errorStream@stdio@@SGXQAVoutputStream@@@@Z 
--- From 'obj\exceptionDump.2B9C9E40.obj'
01:00033C5C ?_tryGetErrorStream@stdio@@SAXPAPAVoutputStream@@@@Z 
--- From 'obj\main.789E136F.obj'
01:00033CA8 ?write@stdio@@SAXXZ 
--- From 'obj\stream.8B55AAA7.obj'
01:00033CE4 ?writef@stdio@@SAXPB_W@Z  (Idle)
01:00033D28 ?writeBytes@stdio@@SAXPAXPBUbyteCount@core@@@Z  (Idle)
01:00033D6C ?writeQuoted@stdio@@SAXXZ  (Idle)
--- From 'obj\main.789E136F.obj'
01:00033DA8 ?nl@stdio@@SAXXZ 
--- From 'obj\stream.8B55AAA7.obj'
01:00033DD4 ?save@stdio@@SAXPBUfactDB@_builtIn@@@Z  (Idle)
01:00033E10 ?flush@stdio@@SAXXZ  (Idle)
01:00033E3C ?present@stdio@@SAXXZ  (Idle)
01:00033E78 ?write_error@stdio@@SAXXZ  (Idle)
01:00033EB4 ?writef_error@stdio@@SAXPB_W@Z  (Idle)
01:00033EF8 ?writeBytes_error@stdio@@SAXPAXPBUbyteCount@core@@@Z  (Idle)
01:00033F3C ?writeQuoted_error@stdio@@SAXXZ  (Idle)
01:00033F78 ?nl_error@stdio@@SAXXZ  (Idle)
01:00033FA4 ?save_error@stdio@@SAXPBUfactDB@_builtIn@@@Z  (Idle)
01:00033FE0 ?flush_error@stdio@@SAXXZ  (Idle)
01:0003400C ?present_error@stdio@@SAXXZ  (Idle)
01:00034048 ?_read@stdio@@SAXQAVrTypeLibrary@TypeLibraries@RunTime@VIP@@PAX@Z  (Idle)
01:0003408C ?_readChar@stdio@@SAXPA_W@Z  (Idle)
01:000340C8 ?ungetChar@stdio@@SAXXZ  (Idle)
01:000340F4 ?_readLine@stdio@@SAXPAPB_W@Z  (Idle)
01:00034130 ?_readString@stdio@@SAXPBUcharCount@core@@PAPB_W@Z  (Idle)
01:00034174 ?_readBytes@stdio@@SAXPBUbyteCount@core@@QAPAE@Z  (Idle)
01:000341B8 ?consult@stdio@@SAXPBUfactDB@_builtIn@@@Z  (Idle)
01:000341F4 ?endOfStream@stdio@@SAXXZ  (Idle)
01:00034220 ?_getOutputStreamPP_explicit@stdio@@SAXPAUprogramPoint_struct@core@@PAPAVoutputStream@@@@Z 
01:00034290 ?_getErrorStreamPP_explicit@stdio@@SAXPAUprogramPoint_struct@core@@PAPAVoutputStream@@@@Z 
01:00034300 ?_getInputStreamPP_explicit@stdio@@SAXPAUprogramPoint_struct@core@@PAPAVinputStream@@@@Z 
01:00034370 ?__lateFactInit$stdiostate$0$stdio@classDB@1@SAXPAPAVstdioState@@@@Z 
01:00034378 ?stdioState@stdio@@SGXQAV0@@@Z  (Idle)
01:00034384 ?stdioState@stdio@@SGQAV0@@XZ  (Idle)
01:000343BC ?new$@outputStream_null@@SAXQAV1@@@Z  (Idle)
01:000343C4 ?getPosition$@outputStream_null@@SGPBUfileSize@fileSystem_api@@QAVstream@@@@Z 
01:000343CC ?setPosition$@outputStream_null@@SGXQAVstream@@@PBUfileSize@fileSystem_api@@@Z 
01:000343DC ?getCRLFconversion$@outputStream_null@@SGPAUboolean_struct@_builtIn@@QAVstream@@@@Z 
01:000343E4 ?setCRLFconversion$@outputStream_null@@SGXQAVstream@@@PAUboolean_struct@_builtIn@@@Z 
01:000343F4 ?close$@outputStream_null@@SGXQAVstream@@@@Z 
01:00034404 ?setMode$@outputStream_null@@SGXQAVstream@@@PAUmode_struct@2@@Z 
01:00034414 ?getMode$@outputStream_null@@SGPAUmode_struct@stream@@QAV3@@@Z 
01:0003441C ?write$@outputStream_null@@SAXQAVoutputStream@@@@Z 
01:00034424 ?writeQuoted$@outputStream_null@@SAXQAVoutputStream@@@@Z 
01:0003442C ?writeBytes$@outputStream_null@@SAXQAVoutputStream@@@PAXPBUbyteCount@core@@@Z 
01:00034434 ?writef$@outputStream_null@@SAXQAVoutputStream@@@PB_W@Z 
01:0003443C ?nl$@outputStream_null@@SAXQAVoutputStream@@@@Z 
01:00034444 ?save$@outputStream_null@@SAXQAVoutputStream@@@PBUfactDB@_builtIn@@@Z 
01:0003444C ?flush$@outputStream_null@@SAXQAVoutputStream@@@@Z 
01:00034454 ?allowNullPointers@outputStream_null@@SGPAUboolean_struct@_builtIn@@QAVstream@@@@Z 
01:0003445C ?allowNullPointers@outputStream_null@@SGXQAVstream@@@PAUboolean_struct@_builtIn@@@Z 
01:0003446C ?present$@outputStream_null@@SAXQAVoutputStream@@@@Z 
01:00034474 ?streamFromInputBuffer$@outputStream_null@@SAXQAVoutputStream@@@QAVinputBuffer@@@@Z 
01:0003447C ?_new@outputStream_null@@SAXPAPAVoutputStream@@@@Z  (Idle)
01:000344A4 ?__lateFactInit$null$0$outputStream_null@classDB@1@SAXPAPAVoutputStream@@@@Z 
01:000344A8 ?null@outputStream_0@SGQAVoutputStream@@@XZ  (Idle)
01:000344E0 ?new$@inputStream_null@@SAXQAV1@@@Z  (Idle)
01:000344E8 ?getPosition$@inputStream_null@@SGPBUfileSize@fileSystem_api@@QAVstream@@@@Z 
01:000344F0 ?setPosition$@inputStream_null@@SGXQAVstream@@@PBUfileSize@fileSystem_api@@@Z 
01:00034500 ?getCRLFconversion$@inputStream_null@@SGPAUboolean_struct@_builtIn@@QAVstream@@@@Z 
01:00034508 ?setCRLFconversion$@inputStream_null@@SGXQAVstream@@@PAUboolean_struct@_builtIn@@@Z 
01:00034518 ?close$@inputStream_null@@SGXQAVstream@@@@Z 
01:00034528 ?setMode$@inputStream_null@@SGXQAVstream@@@PAUmode_struct@2@@Z 
01:00034538 ?getMode$@inputStream_null@@SGPAUmode_struct@stream@@QAV3@@@Z 
01:00034540 ?_read$@inputStream_null@@SAXQAVinputStream@@@QAVrTypeLibrary@TypeLibraries@RunTime@VIP@@PAX@Z 
01:00034550 ?_readBytes$@inputStream_null@@SAXQAVinputStream@@@PBUbyteCount@core@@QAPAE@Z 
01:00034560 ?_readString$@inputStream_null@@SAXQAVinputStream@@@PBUcharCount@core@@PAPB_W@Z 
01:00034570 ?_readChar$@inputStream_null@@SAXQAVinputStream@@@PA_W@Z 
01:00034580 ?ungetChar$@inputStream_null@@SAXQAVinputStream@@@@Z 
01:00034590 ?_readLine$@inputStream_null@@SAXQAVinputStream@@@PAPB_W@Z 
01:000345A0 ?_readLineCRLF$@inputStream_null@@SAXQAVinputStream@@@PAPB_W@Z 
01:000345B0 ?consult$@inputStream_null@@SAXQAVinputStream@@@PBUfactDB@_builtIn@@@Z 
01:000345C0 ?reconsult$@inputStream_null@@SAXQAVinputStream@@@PBUfactDB@_builtIn@@@Z 
01:000345D0 ?endOfStream$@inputStream_null@@SAXQAVinputStream@@@@Z 
01:000345D8 ?repeatToEndOfStream$@inputStream_null@@SAXQAVinputStream@@@@Z 
01:000345E4 ?exhausted@inputStream_null@@SAXXZ 
01:00034618 ?allowNullPointers@inputStream_null@@SGPAUboolean_struct@_builtIn@@QAVstream@@@@Z 
01:00034620 ?allowNullPointers@inputStream_null@@SGXQAVstream@@@PAUboolean_struct@_builtIn@@@Z 
01:00034630 ?streamTo$@inputStream_null@@SAXQAVinputStream@@@QAVoutputStream@@@@Z 
01:00034638 ?_new@inputStream_null@@SAXPAPAVinputStream@@@@Z  (Idle)
01:00034660 ?__lateFactInit$null$0$inputStream_null@classDB@1@SAXPAPAVinputStream@@@@Z 
01:00034664 ?null@inputStream_0@SGQAVinputStream@@@XZ  (Idle)
01:00034704 stdioState?_initObject@@@QAGXQAV1@H@Z 
01:00034728 ?@create_object@stdioState@@SGQAV1@@XZ 
01:00034744 stdioState?_InternalFinalizer@@@QAGXQAV1@@Z 
01:00034758 outputStream_null?_initObject@@@QAGXQAV1@H@Z 
01:0003476C ?@create_object@outputStream_null@@SGQAV1@@XZ 
01:00034788 outputStream_null?_InternalFinalizer@@@QAGXQAV1@@Z 
01:0003479C inputStream_null?_initObject@@@QAGXQAV1@H@Z 
01:000347B0 ?@create_object@inputStream_null@@SGQAV1@@XZ 
01:000347CC inputStream_null?_InternalFinalizer@@@QAGXQAV1@@Z 
--- From 'obj\segmented.E9C86B20.obj'
01:000347E0 ?presenter_segmented_utf16@segmented@@SGPAUpresentation_struct@presenter@@PAUsegmented_utf16_struct@1@@Z 
01:00034800 ?presenter_segmented@1@SGPAUpresentation_struct@presenter@@QAVrTypeLibrary@TypeLibraries@RunTime@VIP@@PAUsegmented_struct@1@X@Z 
01:00034A4C ?_mkfp_sub/2nf$1@segmented@@SAXPAUmkfp_sub/2nf$1_struct@1@PAPAUpresentation_struct@presenter@@@Z 
01:00034A70 ?_mkFP_sub@segmented@@SAXQAVrTypeLibrary@TypeLibraries@RunTime@VIP@@PB_WPAUsegmented_struct@1@XPAPAUfieldPresentation_struct@presenter@@@Z 
--- From 'obj\segmentedSupport.2BAFE67D.obj'
01:00034AE0 ?_getByteSize@segmented@@SAXQAVrTypeLibrary@TypeLibraries@RunTime@VIP@@PAUsegmented_struct@1@XAAUbyteCount@core@@@Z 
--- From 'obj\segmented.E9C86B20.obj'
01:00034B3C ?_getAllBuffer_nd@segmented@@SAXQAVrTypeLibrary@TypeLibraries@RunTime@VIP@@PAUsegmented_struct@1@XQAPAE@Z  (Idle)
01:00034CA4 ?_wrap$presenter_segmented_utf16@segmented@@SGPAUpresentation_struct@presenter@@QAVrTypeLibrary@TypeLibraries@RunTime@VIP@@X@Z 
--- From 'obj\string.19AABD3B.obj'
01:00034CC0 ?new$@inputSupport@@SAXQAV1@@QAVinputBuffer@@@PAUmode_struct@stream@@@Z 
--- From 'obj\inputStreamSupport.7AF62102.obj'
01:00034CF4 ?setMode$@inputSupport@@SGXQAV1@@PAUmode_struct@stream@@@Z 
01:00034D28 ?getMode$@inputSupport@@SGPAUmode_struct@stream@@QAV1@@@Z 
01:00034D34 ?_readChar$@inputSupport@@SAXQAV1@@PA_W@Z 
01:00034D64 ?ungetChar$@inputSupport@@SAXQAV1@@@Z 
01:00034D8C ?_readLine$@inputSupport@@SAXQAV1@@PAPB_W@Z 
01:00034DB8 ?_readLineCRLF$@inputSupport@@SAXQAV1@@PAPB_W@Z 
01:00034DE4 ?_read$@inputSupport@@SAXQAV1@@QAVrTypeLibrary@TypeLibraries@RunTime@VIP@@PAX@Z 
01:00034E0C ?consult$@inputSupport@@SAXQAV1@@PBUfactDB@_builtIn@@@Z 
01:00034E38 ?reconsult$@inputSupport@@SAXQAV1@@PBUfactDB@_builtIn@@@Z 
01:00034E4C ?_readBytes$@inputSupport@@SAXQAV1@@PBUbyteCount@core@@QAPAE@Z 
01:00034E6C ?_readString$@inputSupport@@SAXQAV1@@PBUcharCount@core@@PAPB_W@Z 
01:00034EA0 ?checkMode_text_explicit$@inputSupport@@SAXQAV1@@PAUprogramPoint_struct@core@@@Z 
01:00034EC8 ?_convertMode@inputSupport@@SAXPAUmode_struct@stream@@AAUbooleanInt@core@@@Z 
01:00034EF0 ?endOfStream$@inputSupport@@SAXQAV1@@@Z 
01:00034F30 ?repeatToEndOfStream$@inputSupport@@SAXQAV1@@@Z 
01:00034F88 ?allowNullPointersBufferSupport@inputSupport@@SGPAUboolean_struct@_builtIn@@QAV1@@@Z 
01:00034F94 ?bufferNotFound_exception_explicit@inputSupport@@SAXPAUprogramPoint_struct@core@@I@Z  (Idle)
01:00034FAC ?streamTo$@inputSupport@@SAXQAV1@@QAVoutputStream@@@@Z 
01:00034FD0 ?_new@inputSupport@@SAXQAVinputBuffer@@@PAUmode_struct@stream@@PAPAV1@@@Z  (Idle)
01:00034FFC ?_object_facts_initializer$@inputSupport@@SGXQAV1@@@Z 
01:00035014 ?inputBuffer@inputSupport@@SGXQAV1@@QAV0@@@Z 
01:00035024 ?inputBuffer@inputSupport@@SGQAV0@@QAV1@@@Z 
01:00035030 ?allowNullPointers@inputSupport@@SGXQAV1@@PAUboolean_struct@_builtIn@@@Z 
01:00035040 ?allowNullPointers@inputSupport@@SGPAUboolean_struct@_builtIn@@QAV1@@@Z 
--- From 'obj\string.19AABD3B.obj'
01:00035054 inputSupport?_initObject@@@QAGXQAV1@H@Z 
--- From 'obj\inputStreamSupport.7AF62102.obj'
01:00035078 ?@create_object@inputSupport@@SGQAV1@@XZ 
--- From 'obj\string.19AABD3B.obj'
01:00035094 inputSupport?_InternalFinalizer@@@QAGXQAV1@@Z 
--- From 'obj\console_api.1787DB80.obj'
01:000350A0 ?_getStdHandle@console_api@@SAXIAAUfileHandle@core@@@Z 
01:000350E8 ?setStdHandle@console_api@@SAXIPBUfileHandle@core@@@Z  (Idle)
01:0003512C ?addConsoleCtrlHandler@console_api@@SAXX@Z  (Idle)
01:00035170 ?removeConsoleCtrlHandler@console_api@@SAXX@Z  (Idle)
01:000351B4 ?setConsoleCP@console_api@@SAXPBUcodePage@core@@@Z 
01:00035234 ?setConsoleOutputCP@console_api@@SAXPBUcodePage@core@@@Z 
--- From 'obj\exe.D80FC844.obj'
01:000352C0 ?_getModuleNameByAddress@exe_api@@SAXPBUhModule@core@@PAPB_W@Z 
--- From 'obj\exe_api.026B8342.obj'
01:00035384 ?_isOSConsoleApplication@exe_api@@SAXPB_WPAPAUboolean_struct@_builtIn@@@Z  (Idle)
01:00035518 ?_getApplicationBits@exe_api@@SAXPB_WPAI@Z  (Idle)
--- From 'obj\exe.D80FC844.obj'
01:000356C0 ?run@exe_api@@SAXXPAUrunMode_struct@1@@Z 
--- From 'obj\exe_api.026B8342.obj'
01:0003582C ?coInitialize@exe_api@@SAXPAU?$__packedList_struct@PAUcoInit_struct@1@@@@Z  (Idle)
01:000358E0 ?coUninitialize@exe_api@@SAXXZ  (Idle)
01:000358EC ?_toCoInitFlag@exe_api@@SAXPAU?$__packedList_struct@PAUcoInit_struct@1@@@PAI@Z 
01:00035940 ?_coInitMap@exe_api@@SAXPAUcoInit_struct@1@PAI@Z 
01:0003597C ?__lateFactInit$hinstance$0$exe_api@classDB@1@SAXAAUhModule@core@@@Z 
01:000359C8 ?__lateFactInit$hinstanceexe$0$exe_api@classDB@1@SAXAAUhModule@core@@@Z 
--- From 'obj\gui_api.9FE53D0D.obj'
01:000359DC ?hInstance@exe_api@@SGPBUhModule@core@@XZ 
--- From 'obj\exe.D80FC844.obj'
01:00035A18 ?hInstanceExe@exe_api@@SGPBUhModule@core@@XZ 
--- From 'obj\fileSystem_api.C5B8AF1A.obj'
01:00035A60 _GetFileInformationByHandleEx@16  (Idle)
--- From 'obj\fileSystem.5B0F823E.obj'
01:00035A84 _GetFinalPathNameByHandleW@16 
--- From 'obj\fileSystem_api.C5B8AF1A.obj'
01:00035AA8 ?fileAttributeCorrespondence@fileSystem_api@@SAXPAUfileAttributeAtom_struct@1@PAI@Z  (Idle)
--- From 'obj\fileSystem.5B0F823E.obj'
01:00035B24 ?_toApiAttributes@fileSystem_api@@SAXPAU?$__packedList_struct@PAUfileAttributeAtom_struct@1@@@PAI@Z 
--- From 'obj\fileSystem_api.C5B8AF1A.obj'
01:00035B40 ?_toApiAttributes@fileSystem_api@@SAXPAU?$__packedList_struct@PAUfileAttributeAtom_struct@1@@@IPAI@Z 
--- From 'obj\fileSystem.5B0F823E.obj'
01:00035B94 ?_fromApiAttributes@fileSystem_api@@SAXIPAPAU?$__packedList_struct@PAPAUfileAttributeAtom_struct@1@@@@Z 
--- From 'obj\fileSystem_api.C5B8AF1A.obj'
01:00035BF0 ?_convertToFileAttribute_nd@fileSystem_api@@SAXIPAPAUfileAttributeAtom_struct@1@@Z 
--- From 'obj\fileSystem.5B0F823E.obj'
01:00035C60 ?_createFile@fileSystem_api@@SAXPB_WIPAUaccessPermit_struct@1@IPAU?$__packedList_struct@PAUfileAttributeAtom_struct@1@@@AAUfileHandle@core@@@Z 
--- From 'obj\fileSystem_api.C5B8AF1A.obj'
01:00035CA0 ?_toShareModeAPI@fileSystem_api@@SAXPAUaccessPermit_struct@1@PAI@Z 
01:00035CDC ?_createFile_flag@fileSystem_api@@SAXPB_WIIIIAAUfileHandle@core@@@Z 
--- From 'obj\fileSystem.5B0F823E.obj'
01:00035D28 ?_getFileSize@fileSystem_api@@SAXPBUfileHandle@core@@PAAAUfileSize@1@@Z 
01:00035D70 ?_setFilePointer@fileSystem_api@@SAXPBUfileHandle@core@@PA_JIPAAAUfileSize@1@@Z 
01:00035DCC ?getVolumeInformation@fileSystem_api@@SAXPB_WPAPB_WPAI1@Z 
01:00035E74 ?raise_cannotCreate_explicit@fileSystem_api@@SAXPAUprogramPoint_struct@core@@PB_WPBUhResult@3@@Z 
--- From 'obj\fileSystem_api.C5B8AF1A.obj'
01:00035F60 ?raise_cannotGetFileSize_explicit@fileSystem_api@@SAXPAUprogramPoint_struct@core@@PBUfileHandle@3@PBUhResult@3@@Z 
01:00035FD8 ?raise_cannotSetFilePointer_explicit@fileSystem_api@@SAXPAUprogramPoint_struct@core@@PBUfileHandle@3@PA_JIPBUhResult@3@@Z 
01:0003609C ?crlf_lf@fileSystem_api@@SAXPAXHPAUboolean_struct@_builtIn@@PAPAXAAUbyteCount@core@@PAPAU?$__packedList_struct@AAU45@@@PAPAU23@@Z 
01:00036120 ?prepareSearch@fileSystem_api@@SAXPAXHAAUbyteCount@core@@PAPAUboolean_struct@_builtIn@@@Z 
01:000361A4 ?searchCRLF@fileSystem_api@@SAXPAXPBUbyteCount@core@@1AAU23@PAPAU?$__packedList_struct@AAU23@@@3@Z 
01:00036298 ?_tryGetPositionOfCRLF@fileSystem_api@@SAXPAXHPBUbyteCount@core@@AAU23@@Z 
01:0003631C ?_convertCRLF_IfNeeded@fileSystem_api@@SAXPAUboolean_struct@_builtIn@@PAXPBUbyteCount@core@@PAU?$__packedList_struct@PBU45@@@2PAPAX@Z 
01:0003647C ?checkFirstPos@fileSystem_api@@SAXPBUbyteCount@core@@PAU?$__packedList_struct@PBU23@@@PAXPAPAX3PAPAU?$__packedList_struct@AAU23@@@@Z 
01:000364FC ?_mem_move@fileSystem_api@@SAXPAXPAXPBUbyteCount@core@@PAPAX@Z 
01:00036520 ?_mem_copy@fileSystem_api@@SAXPAXPAXPBUbyteCount@core@@PAPAX@Z 
01:00036544 ?convertCRLF_LF@fileSystem_api@@SAXXPAXPAXPBUbyteCount@core@@PAU?$__packedList_struct@PBU23@@@@Z 
--- From 'obj\gui_api.9FE53D0D.obj'
01:000365D4 ?crlf_lf@fileSystem_api@@SAXPB_W@Z 
--- From 'obj\fileSystem_api.C5B8AF1A.obj'
01:000365EC ?do_CRLF_LF@fileSystem_api@@SAXPB_W0@Z 
--- From 'obj\fileSystem.5B0F823E.obj'
01:00036688 ?lf_crlf@fileSystem_api@@SAXPAXPBUbyteCountOptional@core@@PAPAXAAUbyteCount@3@@Z 
--- From 'obj\fileSystem_api.C5B8AF1A.obj'
01:000366FC ?_getSize@fileSystem_api@@SAXPB_WPBUbyteCountOptional@core@@AAUbyteCount@3@@Z 
01:00036738 ?searchLineFeeds@fileSystem_api@@SAXPAXPBUbyteCount@core@@1AAU23@PAPAU?$__packedList_struct@AAU23@@@3@Z 
01:00036800 ?_convertToCRLF_IfNeeded@fileSystem_api@@SAXPAXPBUbyteCount@core@@PAU?$__packedList_struct@PBU23@@@1PAPAX@Z 
01:00036864 ?convertToCRLF@fileSystem_api@@SAXPAXPAXPBUbyteCount@core@@PAU?$__packedList_struct@PBU23@@@@Z 
--- From 'obj\fileSystem.5B0F823E.obj'
01:000368F8 ?removeDirectory@fileSystem_api@@SAXPB_W@Z 
01:00036964 ?createDirectory@fileSystem_api@@SAXPB_WPAUsecurity_attributes_struct@windowsAPI@@@Z 
01:000369D4 ?moveFile@fileSystem_api@@SAXPB_W0@Z 
01:00036A70 ?setVolumeLabel@fileSystem_api@@SAXPB_W0@Z 
01:00036B0C ?getDiskFreeSpaceEx@fileSystem_api@@SAXPB_WPAAAUfileSize@1@11@Z 
--- From 'obj\fileSystem_api.C5B8AF1A.obj'
01:00036BC0 ?_getcurrentdirectory/0nf$1@fileSystem_api@@SAXPB_WPBUcharCount@core@@AAU23@@Z 
--- From 'obj\fileSystem.5B0F823E.obj'
01:00036BD8 ?_getCurrentDirectory@fileSystem_api@@SAXPAPB_W@Z 
01:00036C0C ?setCurrentDirectory@fileSystem_api@@SAXPB_W@Z 
--- From 'obj\fileSystem_api.C5B8AF1A.obj'
01:00036CC8 ?_getshortpathname/1nf$1@fileSystem_api@@SAXPAUgetshortpathname/1nf$1_struct@1@PB_WPBUcharCount@core@@AAU45@@Z 
--- From 'obj\fileSystem.5B0F823E.obj'
01:00036CEC ?_getShortPathName@fileSystem_api@@SAXPB_WPAPB_W@Z 
--- From 'obj\fileSystem_api.C5B8AF1A.obj'
01:00036D80 ?_getlongpathname/1nf$1@fileSystem_api@@SAXPAUgetlongpathname/1nf$1_struct@1@PB_WPBUcharCount@core@@AAU45@@Z 
--- From 'obj\fileSystem.5B0F823E.obj'
01:00036DA4 ?_getLongPathName@fileSystem_api@@SAXPB_WPAPB_W@Z 
01:00036E38 ?_getFileAttributesEx@fileSystem_api@@SAXPB_WPAPAUfileAttributesInfo_struct@fileSystem_native@@@Z 
--- From 'obj\fileSystem_api.C5B8AF1A.obj'
01:00036EFC ?_gettemppath/0nf$1@fileSystem_api@@SAXPB_WPBUcharCount@core@@AAU23@@Z 
--- From 'obj\fileSystem.5B0F823E.obj'
01:00036F14 ?_getTempPath@fileSystem_api@@SAXPAPB_W@Z 
01:00036F48 ?findClose@fileSystem_api@@SAXPBUsearchHandle@fileSystem_native@@@Z 
--- From 'obj\fileSystem_api.C5B8AF1A.obj'
01:00036F74 ?_firstSizeThenOperation_explicit@fileSystem_api@@SAXPAUprogramPoint_struct@core@@PAU?$__packedList_struct@PAUnamedValue_struct@3@PAUvalue_struct@3@@@XPAPB_W@Z 
--- From 'obj\fileSystem.5B0F823E.obj'
01:00037018 ?readFile@fileSystem_api@@SAXPBUfileHandle@core@@PAXPBUbyteCount@3@AAU43@@Z 
01:0003702C ?readFile@fileSystem_api@@SAXPBUfileHandle@core@@PAXPBUbyteCount@3@AAU43@PBUhResult@3@@Z 
--- From 'obj\fileSystem_api.C5B8AF1A.obj'
01:000370B0 ?readFile_pipe@fileSystem_api@@SAXPBUfileHandle@core@@PAXPBUbyteCount@3@AAU43@@Z  (Idle)
01:000370C8 ?readFile_overlapped@fileSystem_api@@SAXPBUfileHandle@core@@PAXPBUbyteCount@3@PAUoverlapped_struct@fileSystem_native@@@Z  (Idle)
01:000370DC ?readFile_overlapped@fileSystem_api@@SAXPBUfileHandle@core@@PAXPBUbyteCount@3@PAUoverlapped_struct@fileSystem_native@@PBUhResult@3@@Z 
--- From 'obj\fileSystem.5B0F823E.obj'
01:00037124 ?writeFile@fileSystem_api@@SAXPBUfileHandle@core@@PAXPBUbyteCount@3@AAU43@@Z 
--- From 'obj\fileSystem_api.C5B8AF1A.obj'
01:0003719C ?writeFile_overlapped@fileSystem_api@@SAXPBUfileHandle@core@@PAXPBUbyteCount@3@PAUoverlapped_struct@fileSystem_native@@@Z  (Idle)
01:000371B0 ?writeFile_overlapped@fileSystem_api@@SAXPBUfileHandle@core@@PAXPBUbyteCount@3@PAUoverlapped_struct@fileSystem_native@@PBUhResult@3@@Z 
--- From 'obj\fileSystem.5B0F823E.obj'
01:0003723C ?closeHandle@fileSystem_api@@SAXPBUhandle@_builtIn@@@Z 
--- From 'obj\fileSystem_api.C5B8AF1A.obj'
01:000372A8 ?closeHandle_robust@fileSystem_api@@SAXPBUhandle@_builtIn@@@Z  (Idle)
--- From 'obj\fileSystem.5B0F823E.obj'
01:000372B8 ?flushFileBuffers@fileSystem_api@@SAXPBUfileHandle@core@@@Z 
--- From 'obj\multiThread_api.57E3A62D.obj'
01:00037324 ?_duplicateHandle@fileSystem_api@@SAXPBUprocessHandle@windowsAPI@@PBUhandle@_builtIn@@0IHIAAU45@@Z 
--- From 'obj\fileSystem_api.C5B8AF1A.obj'
01:000373A4 ?tryGetOverlappedResult_wait@fileSystem_api@@SAXPBUfileHandle@core@@PAUoverlapped_struct@fileSystem_native@@AAUbyteCount@3@@Z  (Idle)
01:000373C4 ?tryGetOverlappedResult_noWait@fileSystem_api@@SAXPBUfileHandle@core@@PAUoverlapped_struct@fileSystem_native@@AAUbyteCount@3@@Z  (Idle)
01:000373E0 ?getOverlappedResult2@fileSystem_api@@SAXPBUfileHandle@core@@PAUoverlapped_struct@fileSystem_native@@AAUbyteCount@3@PBUbooleanInt@3@PBUhResult@3@@Z 
01:00037468 ?_createIoCompletionPort@fileSystem_api@@SAXIAAUioCompletionPort@1@@Z  (Idle)
01:00037498 ?_createIoCompletionPort@fileSystem_api@@SAXIPBUhandle@_builtIn@@PAXAAUioCompletionPort@1@@Z  (Idle)
01:000374D0 ?attachIoCompletionPort@fileSystem_api@@SAXPBUioCompletionPort@1@PBUhandle@_builtIn@@PAX@Z  (Idle)
01:000374F4 ?_createIoCompletionPort2@fileSystem_api@@SAXPBUhandle@_builtIn@@PBUioCompletionPort@1@PAXIAAU41@@Z 
01:00037564 ?tryGetQueuedCompletionStatus@fileSystem_api@@SAXPBUioCompletionPort@1@AAUbyteCount@core@@PAPAXPAPAUoverlapped_struct@fileSystem_native@@I@Z  (Idle)
01:000375C8 ?getQueuedCompletionStatus@fileSystem_api@@SAXPBUioCompletionPort@1@AAUbyteCount@core@@PAPAXPAPAUoverlapped_struct@fileSystem_native@@@Z  (Idle)
01:0003762C ?checkQueuedCompletionStatusException_explicit@fileSystem_api@@SAXPAUprogramPoint_struct@core@@PBUhResult@3@PBUbyteCount@3@PAXPAUoverlapped_struct@fileSystem_native@@@Z 
01:00037720 ?_tryGetQueuedCompletionStatus_hResult@fileSystem_api@@SAXPBUioCompletionPort@1@AAUbyteCount@core@@PAPAXPAPAUoverlapped_struct@fileSystem_native@@IAAU85@@Z 
01:0003775C ?_getQueuedCompletionStatus_hResult@fileSystem_api@@SAXPBUioCompletionPort@1@AAUbyteCount@core@@PAPAXPAPAUoverlapped_struct@fileSystem_native@@AAU85@@Z 
01:000377AC ?_getQueuedCompletionStatus_hResult2_explicit@fileSystem_api@@SAXPAUprogramPoint_struct@core@@PBUioCompletionPort@1@AAUbyteCount@3@PAPAXPAPAUoverlapped_struct@fileSystem_native@@IAAUhResult@3@@Z 
01:00037844 ?getQueuedCompletionStatusException_explicit@fileSystem_api@@SAXPAUprogramPoint_struct@core@@PBUhResult@3@PAU?$__packedList_struct@PAUnamedValue_struct@3@PAUvalue_struct@3@@@@Z 
01:0003786C ?postQueuedCompletionStatus@fileSystem_api@@SAXPBUioCompletionPort@1@PAUoverlapped_struct@fileSystem_native@@@Z  (Idle)
01:00037884 ?postQueuedCompletionStatus@fileSystem_api@@SAXPBUioCompletionPort@1@PAUoverlapped_struct@fileSystem_native@@PBUbyteCount@core@@@Z  (Idle)
01:00037898 ?postQueuedCompletionStatus@fileSystem_api@@SAXPBUioCompletionPort@1@PAUoverlapped_struct@fileSystem_native@@PBUbyteCount@core@@PAX@Z 
01:000378D0 ?readDirectoryChanges@fileSystem_api@@SAXPBUfileHandle@core@@PAXPBUbyteCount@3@PAUboolean_struct@_builtIn@@IAAU43@@Z  (Idle)
01:000378E8 ?readDirectoryChanges_overlapped@fileSystem_api@@SAXPBUfileHandle@core@@PAXPBUbyteCount@3@PAUboolean_struct@_builtIn@@IPAUoverlapped_struct@fileSystem_native@@@Z  (Idle)
01:00037914 ?readDirectoryChanges_overlapped@fileSystem_api@@SAXPBUfileHandle@core@@PAXPBUbyteCount@3@PAUboolean_struct@_builtIn@@IPAUoverlapped_struct@fileSystem_native@@X@Z  (Idle)
01:00037944 ?readDirectoryChanges2@fileSystem_api@@SAXPBUfileHandle@core@@PAXPBUbyteCount@3@PAUboolean_struct@_builtIn@@IAAU43@PAUoverlapped_struct@fileSystem_native@@X@Z 
01:00037998 ?cancelIo@fileSystem_api@@SAXPBUfileHandle@core@@@Z  (Idle)
01:00037A04 ?fileAttributeCorrespondence@fileSystem_api@@SAXPAPAUfileAttributeAtom_struct@1@I@Z  (Idle)
01:00037AE0 ?fileAttributeCorrespondence@fileSystem_api@@SAXPAPAUfileAttributeAtom_struct@1@PAI@Z 
01:00037C00 ?fileAttributeCorrespondence@fileSystem_api@@SAXPAUfileAttributeAtom_struct@1@I@Z  (Idle)
--- From 'obj\memory.568C55F8.obj'
01:00037CA0 ?_alloc_kind@memory@@SAXQAVrTypeLibrary@TypeLibraries@RunTime@VIP@@PAUmemoryKind_struct@1@PBUcontext@1@PAX@Z  (Idle)
--- From 'obj\gui_api.9FE53D0D.obj'
01:00037CC8 ?_alloc@memory@@SAXQAVrTypeLibrary@TypeLibraries@RunTime@VIP@@PBUcontext@1@PAX@Z 
--- From 'obj\com_api.B45865D0.obj'
01:00037CF0 ?_alloc_atomic@memory@@SAXQAVrTypeLibrary@TypeLibraries@RunTime@VIP@@PBUcontext@1@PAX@Z 
--- From 'obj\uncollectable.CD38F31A.obj'
01:00037D18 ?_alloc_uncollectable@memory@@SAXQAVrTypeLibrary@TypeLibraries@RunTime@VIP@@PBUcontext@1@PAX@Z 
--- From 'obj\gui_api.9FE53D0D.obj'
01:00037D40 ?_alloc_atomicWithSize@memory@@SAXQAVrTypeLibrary@TypeLibraries@RunTime@VIP@@PBUcontext@1@PAX@Z 
01:00037D74 ?_alloc_WithSize@memory@@SAXQAVrTypeLibrary@TypeLibraries@RunTime@VIP@@PBUcontext@1@PAX@Z 
--- From 'obj\memory.568C55F8.obj'
01:00037DAC ?_alloc_kind_array@memory@@SAXQAVrTypeLibrary@TypeLibraries@RunTime@VIP@@PAUmemoryKind_struct@1@PBUpositive@core@@PBUcontext@1@PAX@Z  (Idle)
01:00037DD4 ?_doAllocate@memory@@SAXQAVrTypeLibrary@TypeLibraries@RunTime@VIP@@PAUmemoryKind_struct@1@PBUpositive@core@@PBUcontext@1@AAUbyteCount@5@PAX@Z 
01:00037E5C ?_doAllocate2@memory@@SAXPAUmemoryKind_struct@1@PBUbyteCount@core@@PAPAX@Z 
--- From 'obj\weakReference.0A1AF11C.obj'
01:00037E9C uncheckedFromPointer@memory@pfc 
--- From 'obj\Shell_api.E8D4E14B.obj'
01:00037EAC ?copyTo@memory@@SAXQAVrTypeLibrary@TypeLibraries@RunTime@VIP@@XX@Z 
--- From 'obj\memory.568C55F8.obj'
01:00037ED0 ?_copyTo@memory@@SAXQAVrTypeLibrary@TypeLibraries@RunTime@VIP@@XXPAX@Z 
01:00037F04 ?_copyTo_pointer@memory@@SAXQAVrTypeLibrary@TypeLibraries@RunTime@VIP@@PAXXPAPAX@Z 
01:00037F30 ?_mkList_kind@memory@@SAXQAVrTypeLibrary@TypeLibraries@RunTime@VIP@@PAUmemoryKind_struct@1@XPBUpositive@core@@PAPAU?$__packedList_struct@PAX@@@Z  (Idle)
--- From 'obj\segmentedSupport.2BAFE67D.obj'
01:00037FF0 ?_append@memory@@SAXPAXPAXPBUbyteCount@core@@PAPAX@Z 
--- From 'obj\memory.568C55F8.obj'
01:00038014 ?isReadable@memory@@SAXPAXPBUbyteCount@core@@@Z 
01:00038034 ?isWritable@memory@@SAXPAXPBUbyteCount@core@@@Z  (Idle)
01:00038054 ?isCode@memory@@SAXPAX@Z  (Idle)
01:00038070 ?isObject@memory@@SAXPAX@Z  (Idle)
--- From 'obj\string.19AABD3B.obj'
01:000380A8 ?_allocHeap@memory@@SAXPBUbyteCount@core@@PBUcontext@1@PAPAX@Z 
--- From 'obj\memory.568C55F8.obj'
01:000380D4 ?_allocHeap@memory@@SAXPBUbyteCount@core@@PAUboolean_struct@_builtIn@@PBUcontext@1@PAPAX@Z 
--- From 'obj\outputStreamSupport.6F229CFB.obj'
01:00038108 ?_allocAtomicHeap@memory@@SAXPBUbyteCount@core@@PBUcontext@1@PAPAX@Z 
--- From 'obj\memory.568C55F8.obj'
01:00038134 ?_allocUncollectableHeap@memory@@SAXPBUbyteCount@core@@PBUcontext@1@PAPAX@Z  (Idle)
--- From 'obj\fileSystem.5B0F823E.obj'
01:00038160 ?_allocString@memory@@SAXPBUcharCount@core@@PBUcontext@1@PAPB_W@Z 
--- From 'obj\string.19AABD3B.obj'
01:00038178 ?_allocStringBuffer@memory@@SAXPBUcharCount@core@@PBUcontext@1@PAPB_W@Z 
--- From 'obj\uncollectable.CD38F31A.obj'
01:000381A8 ?releaseHeap@memory@@SAXQAVrTypeLibrary@TypeLibraries@RunTime@VIP@@X@Z 
--- From 'obj\memory.568C55F8.obj'
01:000381B8 ?listToArray@memory@@SAXQAVrTypeLibrary@TypeLibraries@RunTime@VIP@@PAU?$__packedList_struct@X@@PBUbyteCount@core@@PA$?predicate$2@3@SAXPAXX@Z$PAPAXAAUpositive@3@@Z  (Idle)
--- From 'obj\gui_api.9FE53D0D.obj'
01:00038220 ?listToArray_nonatomic@memory@@SAXQAVrTypeLibrary@TypeLibraries@RunTime@VIP@@PAU?$__packedList_struct@X@@PBUbyteCount@core@@PA$?predicate$2@3@SAXPAXX@Z$PAPAXAAUpositive@3@@Z 
--- From 'obj\memory.568C55F8.obj'
01:00038288 ?fillArray@memory@@SAXQAVrTypeLibrary@TypeLibraries@RunTime@VIP@@PAXPAU?$__packedList_struct@X@@PBUbyteCount@core@@PA$?predicate$2@3@SAXPAXX@Z$@Z 
--- From 'obj\safeArray_api.9604C1AC.obj'
01:000382F8 ?_pointerAddLite@memory@@SAXPAXPBUbyteOffset@core@@PAPAX@Z 
--- From 'obj\memory.568C55F8.obj'
01:00038310 ?_pointerAdd@memory@@SAXQAVrTypeLibrary@TypeLibraries@RunTime@VIP@@XPBUbyteOffset@core@@PAPAX@Z 
01:0003833C ?_getOffset@memory@@SAXQAVrTypeLibrary@TypeLibraries@RunTime@VIP@@XXAAUbyteOffset@core@@@Z 
01:0003837C ?_getPointerValue@memory@@SAXQAVrTypeLibrary@TypeLibraries@RunTime@VIP@@XAAUintegerNative@_builtIn@@@Z 
--- From 'obj\safeArray_api.9604C1AC.obj'
01:0003847C ?isNull@memory@@SAXQAVrTypeLibrary@TypeLibraries@RunTime@VIP@@X@Z 
--- From 'obj\uncollectable.CD38F31A.obj'
01:00038490 ?_notNull@memory@@SAXQAVrTypeLibrary@TypeLibraries@RunTime@VIP@@XPAX@Z 
--- From 'obj\memory.568C55F8.obj'
01:000384AC getAp@memory@pfc 
01:000384E4 getA1@memory@pfc 
01:0003851C getA2@memory@pfc 
01:00038558 getA4@memory@pfc  (Idle)
01:00038590 getA8@memory@pfc 
01:000385E0 set4r@memory@pfc  (Idle)
01:00038610 set8@memory@pfc  (Idle)
--- From 'obj\uncollectable.CD38F31A.obj'
01:0003864C setAp@memory@pfc 
--- From 'obj\memory.568C55F8.obj'
01:0003866C setA1@memory@pfc  (Idle)
01:0003868C setA2@memory@pfc  (Idle)
--- From 'obj\safeArray_api.9604C1AC.obj'
01:000386AC setA4@memory@pfc 
--- From 'obj\memory.568C55F8.obj'
01:000386CC setA8@memory@pfc 
01:000386F0 mkp@memory@pfc  (Idle)
01:00038714 mk1@memory@pfc  (Idle)
01:00038738 mk2@memory@pfc 
--- From 'obj\Shell_api.E8D4E14B.obj'
01:00038760 mk4@memory@pfc 
--- From 'obj\memory.568C55F8.obj'
01:00038784 mk8@memory@pfc  (Idle)
01:000387B4 ?_get@memory@@SAXQAVrTypeLibrary@TypeLibraries@RunTime@VIP@@PAUpointerTo_struct@_builtIn@@XPAX@Z 
01:000387DC ?set@memory@@SAXQAVrTypeLibrary@TypeLibraries@RunTime@VIP@@PAUpointerTo_struct@_builtIn@@XX@Z 
01:000387FC ?_mkPointerTo@memory@@SAXQAVrTypeLibrary@TypeLibraries@RunTime@VIP@@XPAPAUpointerTo_struct@_builtIn@@PAX@Z 
01:00038820 ?presenter_byte@memory@@SGPAUpresentation_struct@presenter@@PBU41@@Z 
01:0003889C ?presenter_word@memory@@SGPAUpresentation_struct@presenter@@PBU41@@Z 
01:0003891C ?presenter_dword@memory@@SGPAUpresentation_struct@presenter@@PBU41@@Z 
01:00038998 ?presenter_qword@memory@@SGPAUpresentation_struct@presenter@@PBU41@@Z 
01:00038A40 ?_wrap$presenter_qword@memory@@SGPAUpresentation_struct@presenter@@QAVrTypeLibrary@TypeLibraries@RunTime@VIP@@X@Z 
01:00038A6C ?_wrap$presenter_dword@memory@@SGPAUpresentation_struct@presenter@@QAVrTypeLibrary@TypeLibraries@RunTime@VIP@@X@Z 
01:00038A88 ?_bitOr@bit@@SAXIIIPAI@Z  (Idle)
01:00038AA0 ?_bitOr@bit@@SAXIIIIPAI@Z  (Idle)
01:00038ABC ?_bitOr@bit@@SAXIIIIIPAI@Z  (Idle)
01:00038ADC ?_bitOrList@bit@@SAXPAU?$__packedList_struct@I@@PAI@Z 
01:00038AF8 ?_bitOrList_Tail@bit@@SAXPAU?$__packedList_struct@I@@IPAI@Z 
01:00038B30 ?isSet@bit@@SAXII@Z  (Idle)
01:00038B8C ?_clear@bit@@SAXIIPAI@Z  (Idle)
01:00038BA8 ?_bit2boolean@bit@@SAXIIPAPAUboolean_struct@_builtIn@@@Z  (Idle)
01:00038C10 ?_getLow4of8@bit@@SAXPBUunsigned8@core@@AAUunsigned4@1@@Z  (Idle)
01:00038C4C ?_setLow4of8@bit@@SAXPBUunsigned8@core@@PBUunsigned4@1@AAU23@@Z  (Idle)
01:00038CB8 ?_getHigh4of8@bit@@SAXPBUunsigned8@core@@AAUunsigned4@1@@Z  (Idle)
01:00038D0C ?_setHigh4of8@bit@@SAXPBUunsigned8@core@@PBUunsigned4@1@AAU23@@Z  (Idle)
01:00038D90 ?_swap4of8@bit@@SAXPBUunsigned8@core@@AAU23@@Z  (Idle)
01:00038E10 ?_getLow8of16@bit@@SAXPBUunsigned16@core@@AAUunsigned8@3@@Z  (Idle)
01:00038E4C ?_setLow8of16@bit@@SAXPBUunsigned16@core@@PBUunsigned8@3@AAU23@@Z  (Idle)
01:00038EA8 ?_getHigh8of16@bit@@SAXPBUunsigned16@core@@AAUunsigned8@3@@Z  (Idle)
01:00038EFC ?_setHigh8of16@bit@@SAXPBUunsigned16@core@@PBUunsigned8@3@AAU23@@Z  (Idle)
01:00038F6C ?_swap8of16@bit@@SAXPBUunsigned16@core@@AAU23@@Z  (Idle)
--- From 'obj\fileSystem.5B0F823E.obj'
01:00038FA4 ?_getLow16of32@bit@@SAXIAAUunsigned16@core@@@Z 
--- From 'obj\memory.568C55F8.obj'
01:00038FBC ?_setLow16of32@bit@@SAXIPBUunsigned16@core@@PAI@Z  (Idle)
--- From 'obj\fileSystem.5B0F823E.obj'
01:00038FE8 ?_getHigh16of32@bit@@SAXIAAUunsigned16@core@@@Z 
--- From 'obj\memory.568C55F8.obj'
01:00039004 ?_setHigh16of32@bit@@SAXIPBUunsigned16@core@@PAI@Z  (Idle)
--- From 'obj\registry_api.CF388C66.obj'
01:00039044 ?_swap16of32@bit@@SAXIPAI@Z 
--- From 'obj\memory.568C55F8.obj'
01:00039094 ?_toBigEndian16@bit@@SAXPBUunsigned16@core@@AAU23@@Z  (Idle)
01:000390C4 ?_toBigEndian@bit@@SAXIPAI@Z  (Idle)
01:00039118 ?_toBigEndian64@bit@@SAXPA_KPAPA_K@Z  (Idle)
01:000391DC ?_bitSplit@bit@@SAXIPAPAU?$__packedList_struct@PAI@@@Z 
01:00039238 ?getUnsigned32bytes@bit@@SAXIAAUunsigned16@core@@1@Z  (Idle)
01:0003925C ?getInteger32bytes@bit@@SAXIAAUunsigned16@core@@AAUinteger16@3@@Z  (Idle)
01:00039294 ?getUnsigned64bytes@bit@@SAXPA_KPAIPAI@Z  (Idle)
01:000392D4 ?getInteger64bytes@bit@@SAXPA_JPAIPAH@Z  (Idle)
--- From 'obj\gui_api.9FE53D0D.obj'
01:00039314 ?_mkUnsigned32@bit@@SAXPBUunsigned16@core@@0PAI@Z 
--- From 'obj\memory.568C55F8.obj'
01:00039340 ?_mkInteger32@bit@@SAXPBUunsigned16@core@@PBUinteger16@3@PAH@Z  (Idle)
01:0003936C ?_mkUnsigned64@bit@@SAXIIPAPA_K@Z  (Idle)
01:000393CC ?_mkInteger64@bit@@SAXIHPAPA_J@Z  (Idle)
01:0003941C ?_bitCount@bit@@SAXIAAUpositive@core@@@Z  (Idle)
01:0003948C ?_bitCount64@bit@@SAXPA_KAAUpositive@core@@@Z  (Idle)
01:00039660 ?isPow2@bit@@SAXI@Z  (Idle)
01:000396C8 ?_trailingZeroBits@bit@@SAXIAAUpositive@core@@@Z  (Idle)
01:00039700 ?_trailingZeroBits64@bit@@SAXPA_KAAUpositive@core@@@Z  (Idle)
01:00039790 ?_getLow16@bit@@SAXPBUunsignedNative@_builtIn@@AAUunsigned16@core@@@Z  (Idle)
01:000397A8 ?_getLow32of64@bit@@SAXPA_KPAI@Z  (Idle)
01:000397BC ?_bitOr@bit@@SAXPA_K00PAPA_K@Z  (Idle)
01:0003980C ?_bitOr@bit@@SAXPBUunsignedNative@_builtIn@@00AAU23@@Z  (Idle)
01:00039824 ?_bitOr@bit@@SAXPA_K000PAPA_K@Z  (Idle)
01:0003988C ?_bitOr@bit@@SAXPBUunsignedNative@_builtIn@@000AAU23@@Z  (Idle)
01:000398A8 ?_bitOr@bit@@SAXPA_K0000PAPA_K@Z  (Idle)
01:00039928 ?_bitOr@bit@@SAXPBUunsignedNative@_builtIn@@0000AAU23@@Z  (Idle)
01:00039948 ?isSet@bit@@SAXPA_K0@Z  (Idle)
01:00039988 ?isSet@bit@@SAXPBUunsignedNative@_builtIn@@0@Z  (Idle)
01:000399E4 ?_clear@bit@@SAXPA_K0PAPA_K@Z  (Idle)
01:00039A28 ?_clear@bit@@SAXPBUunsignedNative@_builtIn@@0AAU23@@Z  (Idle)
01:00039A44 ?_getLow32of64@bit@@SAXPA_JPAI@Z  (Idle)
--- From 'obj\srwLock.8CC714FD.obj'
01:00039A60 ?_mkSrwLock@multiThread_native@@SAXPAPAUsrwLock_struct@1@@Z 
--- From 'obj\multiThread_api.57E3A62D.obj'
01:00039A88 _GetThreadDescription@8  (Idle)
01:00039AAC _SetThreadDescription@8  (Idle)
--- From 'obj\srwLock.8CC714FD.obj'
01:00039AD0 _TryAcquireSRWLockExclusive@4 
01:00039AF4 _TryAcquireSRWLockShared@4 
--- From 'obj\multiThread_api.57E3A62D.obj'
01:00039B18 ?_createEvent@multiThread_api@@SAXPB_WPAUboolean_struct@_builtIn@@1AAUsyncHandle@windowsAPI@@@Z 
01:00039C4C ?_createOrOpenEvent@multiThread_api@@SAXPB_WPAUboolean_struct@_builtIn@@1AAUsyncHandle@windowsAPI@@@Z 
01:00039D60 ?_openEvent@multiThread_api@@SAXPB_WIAAUsyncHandle@windowsAPI@@@Z 
01:00039DB0 ?invokeNative_explicit@multiThread_api@@SAXPAUprogramPoint_struct@core@@PBUsyncHandle@windowsAPI@@X@Z  (Idle)
01:00039E50 ?setEvent@multiThread_api@@SAXPBUsyncHandle@windowsAPI@@@Z 
01:00039E80 ?resetEvent@multiThread_api@@SAXPBUsyncHandle@windowsAPI@@@Z 
01:00039EB0 ?pulseEvent@multiThread_api@@SAXPBUsyncHandle@windowsAPI@@@Z 
01:00039EE0 ?_createMutex@multiThread_api@@SAXPB_WPAUboolean_struct@_builtIn@@AAUsyncHandle@windowsAPI@@@Z 
01:00039F98 ?_openMutex@multiThread_api@@SAXPB_WAAUsyncHandle@windowsAPI@@@Z  (Idle)
01:00039FE8 ?releaseMutex@multiThread_api@@SAXPBUsyncHandle@windowsAPI@@@Z 
01:0003A018 ?_createSemaphore@multiThread_api@@SAXPB_WIIAAUsyncHandle@windowsAPI@@@Z 
01:0003A144 ?_openSemaphore@multiThread_api@@SAXPB_WAAUsyncHandle@windowsAPI@@@Z 
01:0003A194 ?_releaseSemaphore@multiThread_api@@SAXPBUsyncHandle@windowsAPI@@IPAI@Z 
01:0003A28C ?_createWaitableTimer@multiThread_api@@SAXPB_WPAUboolean_struct@_builtIn@@AAUsyncHandle@windowsAPI@@@Z 
01:0003A364 ?_openWaitableTimer@multiThread_api@@SAXPB_WAAUsyncHandle@windowsAPI@@@Z 
01:0003A3B4 ?setWaitableTimer@multiThread_api@@SAXPBUsyncHandle@windowsAPI@@PAPBUdurationValue@core@@HPAUboolean_struct@_builtIn@@@Z 
01:0003A3D4 ?setWaitableTimer@multiThread_api@@SAXPBUsyncHandle@windowsAPI@@PAPBUdurationValue@core@@HXPAXPAUboolean_struct@_builtIn@@@Z 
01:0003A58C ?cancelWaitableTimer@multiThread_api@@SAXPBUsyncHandle@windowsAPI@@@Z 
01:0003A5BC ?isWow64Process@multiThread_api@@SAXPBUprocessHandle@windowsAPI@@@Z 
01:0003A5E4 ?_handlingNullString@multiThread_api@@SAXPB_WPAPAUnamedValue_struct@core@@PAPAUvalue_struct@3@@Z  (Idle)
01:0003A680 ?checkHandle_explicit@multiThread_api@@SAXPAUprogramPoint_struct@core@@PBUsyncHandle@windowsAPI@@PB_W2PAU?$__packedList_struct@PAUnamedValue_struct@3@PAUvalue_struct@3@@@@Z 
01:0003A6E4 ?checkAlreadyExist_explicit@multiThread_api@@SAXPAUprogramPoint_struct@core@@PBUhandle@_builtIn@@PB_W@Z 
01:0003A758 ?_mkInheritable@multiThread_api@@SAXPBUhandle@_builtIn@@PAUboolean_struct@3@AAU23@@Z  (Idle)
01:0003A7C0 ?setProcessAffinityMask@multiThread_api@@SAXPBUunsignedNative@_builtIn@@PBUprocessHandle@windowsAPI@@@Z  (Idle)
01:0003A804 ?_queryThreadCycleTime@multiThread_api@@SAXPBUthreadHandle@multiThread_native@@PAPA_K@Z  (Idle)
01:0003A858 ?_queryProcessCycleTime@multiThread_api@@SAXPBUprocessHandle@windowsAPI@@PAPA_K@Z  (Idle)
01:0003A8AC ?_tlsAlloc@multiThread_api@@SAXAAUtlsIndex@multiThread_native@@@Z  (Idle)
01:0003A8F0 ?tlsFree@multiThread_api@@SAXPBUtlsIndex@multiThread_native@@@Z  (Idle)
01:0003A934 ?_tlsGetValue@multiThread_api@@SAXPBUtlsIndex@multiThread_native@@PAPAX@Z  (Idle)
01:0003A984 ?tlsSetValue@multiThread_api@@SAXPBUtlsIndex@multiThread_native@@PAX@Z  (Idle)
01:0003A9C8 ?tryInterlockedCompareExchangePointer@multiThread_api@@SAXQAVrTypeLibrary@TypeLibraries@RunTime@VIP@@PAUpointerTo_struct@_builtIn@@XXX@Z  (Idle)
01:0003AA14 ?_notTryInterlockedCompareExchangePointer@multiThread_api@@SAXQAVrTypeLibrary@TypeLibraries@RunTime@VIP@@PAUpointerTo_struct@_builtIn@@XXXPAX@Z  (Idle)
--- From 'obj\uncollectable.CD38F31A.obj'
01:0003AA70 ?_interlockedExchangePointer@multiThread_api@@SAXQAVrTypeLibrary@TypeLibraries@RunTime@VIP@@PAUpointerTo_struct@_builtIn@@XXPAX@Z 
--- From 'obj\time_api.32F5932A.obj'
01:0003AAA0 _QueryUnbiasedInterruptTime@4$clause 
01:0003AAC4 ?presenter_fileTime@time_native@@SGPAUpresentation_struct@presenter@@PAUfileTime_struct@1@@Z 
--- From 'obj\time.6AFD2988.obj'
01:0003AAF4 _QueryUnbiasedInterruptTime@4 
--- From 'obj\exceptionDump.2B9C9E40.obj'
01:0003AB1C ?_getSystemTimeAsFileTime@time_api@@SAXPAAAUgmtTimeValue@core@@@Z 
--- From 'obj\time.6AFD2988.obj'
01:0003AB54 ?_gmtTimeToSystemTime@time_api@@SAXPAPBUgmtTimeValue@core@@PAPAUsystemTime_struct@time_native@@@Z 
--- From 'obj\time_api.32F5932A.obj'
01:0003AC14 ?_systemTimeToGmtTime@time_api@@SAXPAUsystemTime_struct@time_native@@PAAAUgmtTimeValue@core@@@Z  (Idle)
--- From 'obj\time.6AFD2988.obj'
01:0003AFEC ?_localTimeToSystemTime@time_api@@SAXPAPBUlocalTimeValue@core@@PAPAUsystemTime_struct@time_native@@@Z 
01:0003B030 ?_systemTimeToLocalTime@time_api@@SAXPAUsystemTime_struct@time_native@@PAAAUlocalTimeValue@core@@@Z 
01:0003B070 ?_getTimeZoneNames@time_api@@SAXPAPAU?$__packedList_struct@PAPB_W@@@Z 
01:0003B09C ?_getTimeZoneInformation@time_api@@SAXPAPAUtimeZoneAPI_struct@time_native@@@Z 
01:0003B0F8 ?_getTimeZoneInformation@time_api@@SAXPB_WPAPAUtimeZoneAPI_struct@time_native@@@Z 
--- From 'obj\time_api.32F5932A.obj'
01:0003B400 ?_systemTimeToTzSpecificLocalTimeEx@time_api@@SAXPAUtimeZoneAPI_struct@time_native@@PAUsystemTime_struct@3@PAPAU43@@Z  (Idle)
01:0003B428 ?_tzSpecificLocalTimeToSystemTimeEx@time_api@@SAXPAUtimeZoneAPI_struct@time_native@@PAUsystemTime_struct@3@PAPAU43@@Z  (Idle)
01:0003B450 ?_systemTimeToTzSpecificLocalTime@time_api@@SAXPAUtime_zone_information_struct@time_native@@PAUsystemTime_struct@3@PAPAU43@@Z 
01:0003B57C ?_tzSpecificLocalTimeToSystemTime@time_api@@SAXPAUtime_zone_information_struct@time_native@@PAUsystemTime_struct@3@PAPAU43@@Z 
--- From 'obj\time.6AFD2988.obj'
01:0003B6A8 ?isDaylightTime@time_api@@SAXPAUtimeZoneAPI_struct@time_native@@PAPBUgmtTimeValue@core@@@Z 
--- From 'obj\time_api.32F5932A.obj'
01:0003B800 ?_getTimeZoneInformation_systemTime@time_api@@SAXPAUsystemTime_struct@time_native@@PAUtimeZoneAPI_struct@3@PAPAUtime_zone_information_struct@3@@Z 
01:0003B818 ?_gettimezoneinformationforyear/2nf$1@time_api@@SAXPAUgettimezoneinformationforyear/2nf$1_struct@1@PAPAUtime_zone_information_struct@time_native@@@Z 
01:0003B888 ?_getTimeZoneInformationForYear@time_api@@SAXPBUunsigned16@core@@PAUtimeZoneAPI_struct@time_native@@PAPAUtime_zone_information_struct@5@@Z 
--- From 'obj\time.6AFD2988.obj'
01:0003B948 ?_gmtTimeToLocalTime@time_api@@SAXPAPBUgmtTimeValue@core@@PAUtimeZoneAPI_struct@time_native@@PAAAUlocalTimeValue@3@@Z 
01:0003BA4C ?_localTimeToGmtTime@time_api@@SAXPAPBUlocalTimeValue@core@@PAUtimeZoneAPI_struct@time_native@@PAAAUgmtTimeValue@3@@Z 
01:0003BB50 ?_getTimeZoneOffset@time_api@@SAXPAPBUgmtTimeValue@core@@PAPBUlocalTimeValue@3@PAH@Z 
--- From 'obj\time_api.32F5932A.obj'
01:0003BC30 ?_gmtTimeToFileTime@time_api@@SAXPAPBUgmtTimeValue@core@@PAPAUfileTime_struct@time_native@@@Z 
--- From 'obj\time.6AFD2988.obj'
01:0003BC54 ?_fileTimeToGmtTime@time_api@@SAXPAUfileTime_struct@time_native@@PAAAUgmtTimeValue@core@@@Z 
--- From 'obj\time_api.32F5932A.obj'
01:0003BC5C ?_formatDate@time_api@@SAXPAPBUlocalTimeValue@core@@PB_WPBUlcId@locale_native@@PAPB_W@Z  (Idle)
01:0003BCA8 ?_formatTime@time_api@@SAXPAPBUlocalTimeValue@core@@PB_WPBUlcId@locale_native@@PAPB_W@Z  (Idle)
--- From 'obj\time.6AFD2988.obj'
01:0003BCF4 ?_getDateFormat@time_api@@SAXPBUlcId@locale_native@@IPAUsystemTime_struct@time_native@@PB_WPAPB_W@Z 
01:0003BE2C ?_getTimeFormat@time_api@@SAXPBUlcId@locale_native@@IPAUsystemTime_struct@time_native@@PB_WPAPB_W@Z 
01:0003BF64 ?_getLocaleInfo_string@time_api@@SAXPBUlcId@locale_native@@PBUlcType@3@PAPB_W@Z 
01:0003BFEC ?_getLocaleInfo_integer@time_api@@SAXPBUlcId@locale_native@@PBUlcType@3@PAH@Z 
01:0003C038 ?_getFirstDayOfWeek@time_api@@SAXPBUlcId@locale_native@@PAH@Z 
--- From 'obj\time_api.32F5932A.obj'
01:0003C054 ?_fromUnixTime@time_api@@SAXIPAAAUgmtTimeValue@core@@@Z  (Idle)
01:0003C0B4 ?_toUnixTime@time_api@@SAXPAPBUgmtTimeValue@core@@PAI@Z  (Idle)
01:0003C150 ?raise_cannotGetDateTimeFormat_explicit@time_api@@SAXPAUprogramPoint_struct@core@@IIIIIIIIIIPB_WPBUhResult@3@@Z 
01:0003C5D8 ?raise_cannotGetLocaleInfo_explicit@time_api@@SAXPAUprogramPoint_struct@core@@PBUlcId@locale_native@@IPBUhResult@3@@Z 
01:0003C6F4 ?_getLastInputTick@time_api@@SAXPAI@Z  (Idle)
01:0003C758 ?isSessionIdle@time_api@@SAXI@Z  (Idle)
01:0003C790 ?_fromUnixTime@time_api@@SAXIPAAAUlocalTimeValue@core@@@Z  (Idle)
01:0003C7F0 ?_toUnixTime@time_api@@SAXPAPBUlocalTimeValue@core@@PAI@Z  (Idle)
01:0003C88C ?__lateFactInit$timezoneinfocache$0$time_api@classDB@1@SAXPAPAVmapM@@@PAPAUtuple_struct@core@@AAUunsigned16@4@PAPAUtimeZoneAPI_struct@time_native@@PAPAUtime_zone_information_struct@8@@Z 
--- From 'obj\locale_api.2E000328.obj'
01:0003C8C0 ?_makeLangId@locale_api@@SAXIIPAI@Z  (Idle)
01:0003C8D8 ?_primaryLangId@locale_api@@SAXIPAI@Z  (Idle)
01:0003C8F0 ?_subLangId@locale_api@@SAXIPAI@Z  (Idle)
01:0003C904 ?_makeLcId@locale_api@@SAXIIAAUlcId@locale_native@@@Z  (Idle)
01:0003C91C ?_makeSortLcId@locale_api@@SAXIIIPAI@Z  (Idle)
01:0003C944 ?_langIdFromLcId@locale_api@@SAXIPAI@Z  (Idle)
01:0003C95C ?_sortIdFromLcId@locale_api@@SAXIPAI@Z  (Idle)
01:0003C974 ?_sortVersionFromLcId@locale_api@@SAXIPAI@Z  (Idle)
01:0003C98C ?_getNumberFormat@locale_api@@SAXPB_WPBUlcId@locale_native@@PAUnumberfmt_struct@3@PAPB_W@Z  (Idle)
01:0003C9EC ?_getLocaleInfo_integer@locale_api@@SAXPBUlcType@locale_native@@PBUlcId@3@PAH@Z  (Idle)
01:0003CA10 ?_getLocaleInfo_string@locale_api@@SAXPBUlcType@locale_native@@PBUlcId@3@PAPB_W@Z  (Idle)
--- From 'obj\gui_api.9FE53D0D.obj'
01:0003CA70 ?_createDialog@gui_native@@SAXPBUhModule@core@@HPBUhwnd@3@XAAU43@@Z  (Idle)
01:0003CA90 ?_createDialogIndirect@gui_native@@SAXPBUhModule@core@@PAUdlgTemplate_struct@1@PBUhwnd@3@XAAU63@@Z  (Idle)
01:0003CAB0 ?_createDialog@gui_native@@SAXPBUhModule@core@@PB_WPBUhwnd@3@XAAU43@@Z  (Idle)
01:0003CAD0 ?_createDialogIndirect@gui_native@@SAXPBUhModule@core@@PAUdlgTemplateEx_struct@1@PBUhwnd@3@XAAU63@@Z  (Idle)
01:0003CAF0 ?_getOuterRect@gui_api@@SAXPBUhwnd@core@@PAPAUrct_struct@vpiDomains@@@Z  (Idle)
01:0003CC14 ?setOuterRect@gui_api@@SAXPBUhwnd@core@@PAUrct_struct@vpiDomains@@@Z  (Idle)
01:0003CC6C ?enumChildWindows@gui_api@@SAXPBUhwnd@core@@PA$?_function$2@3@SAXPBU21@PAPAUboolean_struct@_builtIn@@@Z$@Z  (Idle)
01:0003CC84 ?wndEnumProc@gui_api@@SGPBUbooleanInt@core@@PBUhwnd@3@PBUlParam@gui_native@@@Z 
01:0003CCC8 ?setScrollRange@gui_api@@SAXPBUhwnd@core@@PBUscrollBar@gui_native@@HHPAUboolean_struct@_builtIn@@@Z  (Idle)
01:0003CD28 ?getScrollRange@gui_api@@SAXPBUhwnd@core@@PBUscrollBar@gui_native@@PAHPAH@Z  (Idle)
01:0003CD74 ?_getScrollInfo@gui_api@@SAXPBUhwnd@core@@PBUscrollBar@gui_native@@IPAPAUscrollInfo_struct@1@@Z  (Idle)
01:0003CE38 ?_setScrollInfo@gui_api@@SAXPBUhwnd@core@@PBUscrollBar@gui_native@@PAUscrollInfo_struct@1@PAUboolean_struct@_builtIn@@IPAH@Z  (Idle)
01:0003CEC0 ?_scrollWindowEx@gui_api@@SAXPBUhwnd@core@@HHPAUrct_struct@vpiDomains@@I3PBUhRgn@gui_native@@PAPAU45@PAH@Z  (Idle)
01:0003CEEC ?_scrollWindowEx2@gui_api@@SAXPBUhwnd@core@@HHPAUrct_struct@vpiDomains@@I3PBUhRgn@gui_native@@3PAH@Z 
01:0003CF48 ?_getScrollBarInfo@gui_api@@SAXPBUhwnd@core@@IPAPAUscrollBarInfo_struct@1@@Z  (Idle)
01:0003D048 ?_getUpdateRgn@gui_api@@SAXPBUhwnd@core@@PBUhRgn@gui_native@@PAUboolean_struct@_builtIn@@PAH@Z  (Idle)
01:0003D0A8 ?_tryGetUpdateRect@gui_api@@SAXPBUhwnd@core@@PAUboolean_struct@_builtIn@@PAPAUrct_struct@vpiDomains@@@Z  (Idle)
01:0003D0F4 ?isWindowObscured@gui_api@@SAXPBUhwnd@core@@@Z  (Idle)
01:0003D18C ?_makePoints@gui_api@@SAXPBUlParam@gui_native@@PAPAUpnt_struct@vpiDomains@@@Z  (Idle)
01:0003D1E4 ?getInteger16@gui_api@@SAXPBUunsignedNative@_builtIn@@AAUinteger16@core@@1@Z  (Idle)
01:0003D21C ?getUnsigned16@gui_api@@SAXPBUunsignedNative@_builtIn@@AAUunsigned16@core@@1@Z 
01:0003D258 ?_makeLParam@gui_api@@SAXPAUpnt_struct@vpiDomains@@AAUlParam@gui_native@@@Z  (Idle)
01:0003D2BC ?_getWindowPlacement@gui_api@@SAXPBUhwnd@core@@PAPAUwindowPlacement_struct@1@@Z  (Idle)
01:0003D370 ?setWindowPlacement@gui_api@@SAXPBUhwnd@core@@PAUwindowPlacement_struct@1@@Z  (Idle)
01:0003D424 ?_getTextExtentPoint32@gui_api@@SAXPBUhDC@gui_native@@PB_WPAPAUsize_struct@3@@Z  (Idle)
01:0003D458 ?_getTextExtentPoint32@gui_api@@SAXPBUhDC@gui_native@@PB_WPBUcharCount@core@@PAPAUsize_struct@3@@Z 
01:0003D4C0 ?_getTextMetrics@gui_api@@SAXPBUhDC@gui_native@@PAPAUtextmetric_struct@3@@Z  (Idle)
01:0003D51C ?_registerClass_inner@gui_api@@SAXIXHHPBUhModule@core@@PBUhIcon@gui_native@@PBUhCursor@5@PBUhBrush@5@PB_W85AAUatom@5@@Z  (Idle)
01:0003D58C ?_registerClassEx@gui_api@@SAXIXHHPBUhModule@core@@PBUhIcon@gui_native@@PBUhCursor@5@PBUhBrush@5@PB_W85AAUatom@5@@Z  (Idle)
01:0003D63C ?registerClassEx@gui_api@@SAXIXHHPBUhModule@core@@PBUhIcon@gui_native@@PBUhCursor@5@PBUhBrush@5@PB_W85@Z  (Idle)
01:0003D6F4 ?unregisterClass@gui_api@@SAXPB_WPBUhModule@core@@@Z  (Idle)
01:0003D794 ?_createWindowEx@gui_api@@SAXIPB_W1IHHHHPBUhwnd@core@@PBUhMenu@gui_native@@PBUhModule@3@PAXAAU23@@Z  (Idle)
01:0003D858 ?_mkDlgTemplate@gui_api@@SAXPAUdlgTemplate_struct@1@PAPAU2gui_native@@@Z  (Idle)
01:0003E044 ?writeVarArray@gui_api@@SAXQAVoutputStream@@@PAUvarArray_struct@1@@Z 
01:0003E174 ?align32@gui_api@@SAXQAVoutputStream@@@@Z 
01:0003E238 ?_createDialogIndirectParam@gui_api@@SAXPBUhModule@core@@PAUdlgTemplate_struct@1@PBUhwnd@3@XPBUlParam@gui_native@@AAU63@@Z  (Idle)
01:0003E2A0 ?_beginPaint@gui_api@@SAXPBUhwnd@core@@PAPAUpaintStruct_struct@gui_native@@AAUhDC@5@@Z  (Idle)
01:0003E300 ?endPaint@gui_api@@SAXPBUhwnd@core@@PAUpaintStruct_struct@gui_native@@@Z  (Idle)
01:0003E314 ?_getClientRect@gui_api@@SAXPBUhwnd@core@@PAPAUrct_struct@vpiDomains@@@Z  (Idle)
01:0003E370 ?_getWindow_handle@gui_api@@SAXPBUhwnd@core@@HAAU4_builtIn@@@Z  (Idle)
01:0003E434 ?_setWindow_handle@gui_api@@SAXPBUhwnd@core@@HPBU4_builtIn@@AAU45@@Z  (Idle)
01:0003E490 ?_getWindow_integer@gui_api@@SAXPBUhwnd@core@@HPAH@Z  (Idle)
01:0003E4C0 ?_setWindow_integer@gui_api@@SAXPBUhwnd@core@@HHPAH@Z  (Idle)
01:0003E4F4 ?_getWindow_unsigned@gui_api@@SAXPBUhwnd@core@@HPAI@Z  (Idle)
01:0003E524 ?_setWindow_unsigned@gui_api@@SAXPBUhwnd@core@@HIPAI@Z  (Idle)
01:0003E558 ?_getWindow_style@gui_api@@SAXPBUhwnd@core@@PAI@Z  (Idle)
01:0003E574 ?setWindow_style@gui_api@@SAXPBUhwnd@core@@I@Z  (Idle)
01:0003E594 ?_getWindow_exstyle@gui_api@@SAXPBUhwnd@core@@PAI@Z  (Idle)
01:0003E5B0 ?setWindow_exstyle@gui_api@@SAXPBUhwnd@core@@I@Z  (Idle)
01:0003E5D0 ?_getWindow_wndProc@gui_api@@SAXPBUhwnd@core@@PAX@Z  (Idle)
01:0003E5F8 ?_setWindow_wndProc@gui_api@@SAXPBUhwnd@core@@XPAX@Z  (Idle)
01:0003E620 ?_getClass_handle@gui_api@@SAXPBUhwnd@core@@HAAU4_builtIn@@@Z  (Idle)
01:0003E678 ?_setClass_handle@gui_api@@SAXPBUhwnd@core@@HPBU4_builtIn@@AAU45@@Z  (Idle)
01:0003E6D4 ?_getClass_integer@gui_api@@SAXPBUhwnd@core@@HPAH@Z  (Idle)
01:0003E704 ?_setClass_integer@gui_api@@SAXPBUhwnd@core@@HHPAH@Z  (Idle)
01:0003E738 ?_getClass_unsigned@gui_api@@SAXPBUhwnd@core@@HPAI@Z  (Idle)
01:0003E768 ?_setClass_unsigned@gui_api@@SAXPBUhwnd@core@@HIPAI@Z  (Idle)
01:0003E79C ?extTextOut@gui_api@@SAXPBUhDC@gui_native@@HHIPAUrct_struct@vpiDomains@@PB_W@Z  (Idle)
01:0003E7C8 ?extTextOut@gui_api@@SAXPBUhDC@gui_native@@HHIPAUrct_struct@vpiDomains@@PB_WPAX@Z  (Idle)
01:0003E7FC ?extTextOut@gui_api@@SAXPBUhDC@gui_native@@HHIPAUrct_struct@vpiDomains@@PB_WPBUcharCount@core@@PAX@Z 
01:0003E854 ?invalidateRect@gui_api@@SAXPBUhwnd@core@@PAUrct_struct@vpiDomains@@PBUbooleanInt@3@@Z  (Idle)
01:0003E89C ?invalidate@gui_api@@SAXPBUhwnd@core@@PBUbooleanInt@3@@Z  (Idle)
01:0003E8B4 ?bringWindowToTop@gui_api@@SAXPBUhwnd@core@@@Z  (Idle)
01:0003E8F8 ?_tryGetForegroundWindow@gui_api@@SAXAAUhwnd@core@@@Z  (Idle)
01:0003E918 ?_setForegroundWindow@gui_api@@SAXPBUhwnd@core@@PAPAUboolean_struct@_builtIn@@@Z  (Idle)
01:0003E944 ?_setFocus@gui_api@@SAXPBUhwnd@core@@AAU23@@Z  (Idle)
01:0003E994 ?_getParent@gui_api@@SAXPBUhwnd@core@@AAU23@@Z  (Idle)
01:0003E9E4 ?_tryGetParent@gui_api@@SAXPBUhwnd@core@@AAU23@@Z  (Idle)
01:0003EA04 ?_setParent@gui_api@@SAXPBUhwnd@core@@0AAU23@@Z  (Idle)
01:0003EA50 ?_tryGetAncestor@gui_api@@SAXPBUhwnd@core@@PAUgaFlags_struct@gui_native@@AAU23@@Z 
01:0003EA74 ?_clientToScreen@gui_api@@SAXPBUhwnd@core@@PAUpnt_struct@vpiDomains@@PAPAU45@@Z  (Idle)
01:0003EACC ?_screenToClient@gui_api@@SAXPBUhwnd@core@@PAUpnt_struct@vpiDomains@@PAPAU45@@Z 
01:0003EB24 ?_alloc_pnt@gui_api@@SAXHHPAPAUpnt_struct@vpiDomains@@@Z 
01:0003EB50 ?_adjustWindowRectEx@gui_api@@SAXPAUrct_struct@vpiDomains@@IPAUboolean_struct@_builtIn@@IPAPAU23@@Z  (Idle)
01:0003EBD4 ?deleteObject@gui_api@@SAXPBUhandle@_builtIn@@@Z  (Idle)
01:0003EBE4 ?_deleteObject@gui_api@@SAXPBUhandle@_builtIn@@PAPAUboolean_struct@3@@Z  (Idle)
01:0003EBFC ?_selectObject@gui_api@@SAXPBUhDC@gui_native@@PBUhandle@_builtIn@@AAU45@@Z  (Idle)
01:0003EC70 ?_selectObject_region@gui_api@@SAXPBUhDC@gui_native@@PBUhandle@_builtIn@@PAI@Z  (Idle)
01:0003ECF0 ?selectObjectDeleteOld@gui_api@@SAXPBUhDC@gui_native@@PBUhandle@_builtIn@@@Z  (Idle)
01:0003ED18 ?_createFontIndirect@gui_api@@SAXPAUlogfont_struct@gui_native@@AAUhFont@3@@Z  (Idle)
01:0003ED68 ?_createAcceleratorTable@gui_api@@SAXPAU?$__packedList_struct@PAUaccel_struct@gui_native@@@@AAUhandle@_builtIn@@@Z  (Idle)
01:0003EDFC ?fillAccelTable@gui_api@@SAXPAXPAU?$__packedList_struct@PAUaccel_struct@gui_native@@@@@Z 
01:0003EE44 ?_allocMsg@gui_api@@SAXPAPAUmsg_struct@gui_native@@@Z  (Idle)
01:0003EE68 ?_getMessage_update@gui_api@@SAXPAUmsg_struct@gui_native@@PBUhwnd@core@@IIPAPAUboolean_struct@_builtIn@@@Z  (Idle)
01:0003EED4 ?deleteDC@gui_api@@SAXPBUhDC@gui_native@@@Z  (Idle)
01:0003EF08 ?releaseDC@gui_api@@SAXPBUhwnd@core@@PBUhDC@gui_native@@@Z  (Idle)
01:0003EF1C ?_releaseDC_result@gui_api@@SAXPBUhwnd@core@@PBUhDC@gui_native@@PAPAUboolean_struct@_builtIn@@@Z  (Idle)
01:0003EF40 ?_tryGetDC@gui_api@@SAXPBUhwnd@core@@AAUhDC@gui_native@@@Z  (Idle)
01:0003EF60 ?_getDC@gui_api@@SAXPBUhwnd@core@@AAUhDC@gui_native@@@Z  (Idle)
01:0003EFDC ?_getMenu@gui_api@@SAXPBUhwnd@core@@AAUhMenu@gui_native@@@Z  (Idle)
01:0003F058 ?_tryGetMenu@gui_api@@SAXPBUhwnd@core@@AAUhMenu@gui_native@@@Z 
01:0003F0BC ?_getMenuItemCount@gui_api@@SAXPBUhMenu@gui_native@@AAUpositive@core@@@Z  (Idle)
01:0003F138 ?_getMenuItemInfo_index@gui_api@@SAXPBUhMenu@gui_native@@PBUpositive@core@@IPAPAUmenuItemInfo_struct@3@@Z  (Idle)
01:0003F16C ?_getMenuItemInfo_id@gui_api@@SAXPBUhMenu@gui_native@@IIPAPAUmenuItemInfo_struct@3@@Z  (Idle)
01:0003F194 ?_getMenuItemInfo2@gui_api@@SAXPBUhMenu@gui_native@@IPBUbooleanInt@core@@IPAPAUmenuItemInfo_struct@3@@Z 
01:0003F2E8 ?_getMenuItemString_index@gui_api@@SAXPBUhMenu@gui_native@@PBUpositive@core@@PAPB_W@Z  (Idle)
01:0003F314 ?_getMenuItemString_id@gui_api@@SAXPBUhMenu@gui_native@@IPAPB_W@Z  (Idle)
01:0003F340 ?insertMenuItem_first@gui_api@@SAXPBUhMenu@gui_native@@PAUmenuItemInfo_struct@3@@Z  (Idle)
01:0003F35C ?insertMenuItem_last@gui_api@@SAXPBUhMenu@gui_native@@PAUmenuItemInfo_struct@3@@Z  (Idle)
01:0003F378 ?insertMenuItem_beforeIndex@gui_api@@SAXPBUhMenu@gui_native@@PBUpositiveOptional@core@@PAUmenuItemInfo_struct@3@@Z 
01:0003F3A0 ?insertMenuItem_beforeId@gui_api@@SAXPBUhMenu@gui_native@@IPAUmenuItemInfo_struct@3@@Z  (Idle)
01:0003F3BC ?insertMenuItem2@gui_api@@SAXPBUhMenu@gui_native@@IPBUbooleanInt@core@@PAUmenuItemInfo_struct@3@@Z 
01:0003F408 ?endMenu@gui_api@@SAXXZ  (Idle)
01:0003F444 ?_messageBox@gui_api@@SAXPBUhwnd@core@@PB_W1IPAH@Z  (Idle)
01:0003F494 ?_messageBoxEx@gui_api@@SAXPBUhwnd@core@@PB_W1IPBUinteger16@3@PAH@Z  (Idle)
01:0003F4E8 ?moveWindow@gui_api@@SAXPBUhwnd@core@@HHHHPAUboolean_struct@_builtIn@@@Z  (Idle)
01:0003F54C ?_mkW@gui_api@@SAXHAAUwParam@gui_native@@@Z  (Idle)
01:0003F55C ?_mkL@gui_api@@SAXHAAUlParam@gui_native@@@Z  (Idle)
01:0003F56C ?_mkR@gui_api@@SAXHAAUlResult@gui_native@@@Z  (Idle)
01:0003F57C ?_makeIntResource@gui_api@@SAXIPAPB_W@Z  (Idle)
01:0003F5A0 ?isCtrlColorMsg@gui_api@@SAXI@Z  (Idle)
01:0003F5EC ?destroyWindow@gui_api@@SAXPBUhwnd@core@@@Z  (Idle)
01:0003F630 ?_getText@gui_api@@SAXPBUhwnd@core@@PAPB_W@Z  (Idle)
01:0003F6A4 ?setText@gui_api@@SAXPBUhwnd@core@@PB_W@Z  (Idle)
01:0003F6D8 ?_getWindowRect@gui_api@@SAXPBUhwnd@core@@PAPAUrct_struct@vpiDomains@@@Z 
01:0003F734 ?_loadImage_file@gui_api@@SAXPB_WIPBUpositive@core@@2IAAUhandle@_builtIn@@@Z  (Idle)
01:0003F7B8 ?_loadImage_oem@gui_api@@SAXPBUresid@vpiDomains@@IPBUpositive@core@@2IAAUhandle@_builtIn@@@Z  (Idle)
01:0003F81C ?_loadImage_resId@gui_api@@SAXPBUresid@vpiDomains@@IPBUpositive@core@@2IAAUhandle@_builtIn@@@Z  (Idle)
01:0003F894 ?_loadImage_resId@gui_api@@SAXPBUhModule@core@@PBUresid@vpiDomains@@IPBUpositive@3@3IAAUhandle@_builtIn@@@Z  (Idle)
01:0003F8F4 ?_loadImage@gui_api@@SAXPBUhModule@core@@PB_WIPBUpositive@3@3IPAUvalue_struct@3@AAUhandle@_builtIn@@@Z 
01:0003F998 ?_loadBitmap_resId@gui_api@@SAXPBUresid@vpiDomains@@PBUhModule@core@@AAUhBitmap@gui_native@@@Z  (Idle)
01:0003F9F8 ?_loadCursor_resId@gui_api@@SAXPBUresid@vpiDomains@@PBUhModule@core@@AAUhCursor@gui_native@@@Z  (Idle)
01:0003FA58 ?_loadCursor_std@gui_api@@SAXPBUresid@vpiDomains@@AAUhCursor@gui_native@@@Z  (Idle)
01:0003FA70 ?_loadIcon_resId@gui_api@@SAXPBUresid@vpiDomains@@PBUhModule@core@@AAUhIcon@gui_native@@@Z  (Idle)
01:0003FAD0 ?_loadIcon_std@gui_api@@SAXPBUresid@vpiDomains@@AAUhIcon@gui_native@@@Z  (Idle)
01:0003FAE8 ?_getWindowThreadProcessId@gui_api@@SAXPBUhwnd@core@@AAUprocessID@multiThread_native@@AAUthreadID@5@@Z  (Idle)
01:0003FB34 ?attachThreadInput@gui_api@@SAXIIPAUboolean_struct@_builtIn@@@Z  (Idle)
01:0003FB90 ?_setActiveWindow@gui_api@@SAXPBUhwnd@core@@AAU23@@Z  (Idle)
01:0003FBD8 ?rectangle@gui_api@@SAXPBUhDC@gui_native@@PAUrct_struct@vpiDomains@@@Z  (Idle)
01:0003FC1C ?rectangle@gui_api@@SAXPBUhDC@gui_native@@HHHH@Z 
01:0003FC5C ?angleArc@gui_api@@SAXPBUhDC@gui_native@@HHIPANPAN@Z  (Idle)
01:0003FCEC ?arc@gui_api@@SAXPBUhDC@gui_native@@HHHHHHHH@Z  (Idle)
01:0003FD38 ?arcTo@gui_api@@SAXPBUhDC@gui_native@@HHHHHHHH@Z  (Idle)
01:0003FD84 ?_getArcDirection@gui_api@@SAXPBUhDC@gui_native@@PAH@Z  (Idle)
01:0003FD9C ?_setArcDirection@gui_api@@SAXPBUhDC@gui_native@@HPAH@Z  (Idle)
01:0003FDD8 ?_moveTo@gui_api@@SAXPBUhDC@gui_native@@HHPAPAUpnt_struct@vpiDomains@@@Z  (Idle)
01:0003FEB0 ?moveTo@gui_api@@SAXPBUhDC@gui_native@@HH@Z  (Idle)
01:0003FF70 ?lineTo@gui_api@@SAXPBUhDC@gui_native@@HH@Z  (Idle)
01:0004002C ?polyBezier@gui_api@@SAXPBUhDC@gui_native@@PAU?$__packedList_struct@PAUpnt_struct@vpiDomains@@@@@Z  (Idle)
01:00040104 ?polyBezierTo@gui_api@@SAXPBUhDC@gui_native@@PAU?$__packedList_struct@PAUpnt_struct@vpiDomains@@@@@Z  (Idle)
01:000401DC ?polyDraw@gui_api@@SAXPBUhDC@gui_native@@PAU?$__packedList_struct@PAUpnt_struct@vpiDomains@@@@PAU?$__packedList_struct@PBUunsigned8@core@@@@@Z  (Idle)
01:00040338 ?polyline@gui_api@@SAXPBUhDC@gui_native@@PAU?$__packedList_struct@PAUpnt_struct@vpiDomains@@@@@Z  (Idle)
01:00040410 ?polylineTo@gui_api@@SAXPBUhDC@gui_native@@PAU?$__packedList_struct@PAUpnt_struct@vpiDomains@@@@@Z  (Idle)
01:000404E8 ?polyPolyline@gui_api@@SAXPBUhDC@gui_native@@PAU?$__packedList_struct@PAUpnt_struct@vpiDomains@@@@PAU?$__packedList_struct@H@@@Z  (Idle)
01:000405E8 ?chord@gui_api@@SAXPBUhDC@gui_native@@HHHHHHHH@Z  (Idle)
01:00040634 ?chord@gui_api@@SAXPBUhDC@gui_native@@PAUrct_struct@vpiDomains@@HHHH@Z  (Idle)
01:000406A8 ?ellipse@gui_api@@SAXPBUhDC@gui_native@@HHHH@Z  (Idle)
01:00040778 ?ellipse@gui_api@@SAXPBUhDC@gui_native@@PAUrct_struct@vpiDomains@@@Z  (Idle)
01:000407BC ?fillRect@gui_api@@SAXPBUhDC@gui_native@@PAUrct_struct@vpiDomains@@PBUhBrush@3@@Z  (Idle)
01:00040860 ?fillRectSystemColor@gui_api@@SAXPBUhDC@gui_native@@PAUrct_struct@vpiDomains@@H@Z  (Idle)
01:00040908 ?frameRect@gui_api@@SAXPBUhDC@gui_native@@PAUrct_struct@vpiDomains@@PBUhBrush@3@@Z  (Idle)
01:000409AC ?invertRect@gui_api@@SAXPBUhDC@gui_native@@PAUrct_struct@vpiDomains@@@Z  (Idle)
01:00040A4C ?pie@gui_api@@SAXPBUhDC@gui_native@@PAUrct_struct@vpiDomains@@HHHH@Z  (Idle)
01:00040AC0 ?pie@gui_api@@SAXPBUhDC@gui_native@@HHHHHHHH@Z 
01:00040B0C ?roundRect@gui_api@@SAXPBUhDC@gui_native@@PAUrct_struct@vpiDomains@@HH@Z  (Idle)
01:00040B68 ?roundRect@gui_api@@SAXPBUhDC@gui_native@@HHHHHH@Z 
01:00040BAC ?drawFocusRect@gui_api@@SAXPBUhDC@gui_native@@PAUrct_struct@vpiDomains@@@Z  (Idle)
01:00040C4C ?polygon@gui_api@@SAXPBUhDC@gui_native@@PAU?$__packedList_struct@PAUpnt_struct@vpiDomains@@@@@Z  (Idle)
01:00040D24 ?polyPolygon@gui_api@@SAXPBUhDC@gui_native@@PAU?$__packedList_struct@PAU?$__packedList_struct@PAUpnt_struct@vpiDomains@@@@@@@Z  (Idle)
01:00040EA0 ?_getROP2@gui_api@@SAXPBUhDC@gui_native@@PAI@Z  (Idle)
01:00040ED8 ?_setROP2@gui_api@@SAXPBUhDC@gui_native@@IPAI@Z  (Idle)
01:00040F14 ?_setPixel@gui_api@@SAXPBUhDC@gui_native@@HHPBUcolor@vpiDomains@@AAU45@@Z  (Idle)
01:00040F34 ?trackMouseEvent@gui_api@@SAXPAUtrackMouseEvent_struct@gui_native@@@Z  (Idle)
01:00040F78 ?trackMouseHover@gui_api@@SAXPBUhwnd@core@@@Z  (Idle)
01:00040FB0 ?trackMouseLeave@gui_api@@SAXPBUhwnd@core@@@Z  (Idle)
01:00040FE8 ?setWindowPos@gui_api@@SAXPBUhwnd@core@@0HHHHI@Z 
01:0004103C ?updateLayeredWindow@gui_api@@SAXPBUhwnd@core@@PBUhDC@gui_native@@PAUpnt_struct@vpiDomains@@PAUsize_struct@5@12PBUcolor@7@PAUblendFunction_struct@5@I@Z  (Idle)
01:00041098 ?_getStockObject@gui_api@@SAXHAAUhandle@_builtIn@@@Z  (Idle)
01:00041104 ?_monitorFromPoint@gui_api@@SAXPAUpnt_struct@vpiDomains@@IAAUhMonitor@gui_native@@@Z  (Idle)
01:00041124 ?_monitorFromRect@gui_api@@SAXPAUrct_struct@vpiDomains@@IAAUhMonitor@gui_native@@@Z  (Idle)
01:0004113C ?_monitorFromWindow@gui_api@@SAXPBUhwnd@core@@IAAUhMonitor@gui_native@@@Z  (Idle)
01:00041154 ?_getMonitorInfo@gui_api@@SAXPBUhMonitor@gui_native@@PAPAUmonitorInfo_struct@1@@Z  (Idle)
01:000411F0 ?_mkKeyDown@gui_api@@SAXPBUunsigned16@core@@PAPAUinput_struct@gui_native@@@Z  (Idle)
01:00041220 ?_mkKeyUp@gui_api@@SAXPBUunsigned16@core@@PAPAUinput_struct@gui_native@@@Z  (Idle)
01:00041254 ?_mkKeyInputStructure@gui_api@@SAXPBUunsigned16@core@@0IIPBUlParam@gui_native@@PAPAUinput_struct@7@@Z 
01:000412D8 ?sendinput/1np$1@gui_api@@SAXPAUsendinput/1np$1_struct@1@PAXPAUinput_struct@gui_native@@@Z 
01:000412F4 ?sendInput@gui_api@@SAXPAU?$__packedList_struct@PAUinput_struct@gui_native@@@@@Z  (Idle)
01:00041418 ?_getMenuItemRect@gui_api@@SAXPBUhwnd@core@@PBUhMenu@gui_native@@PBUpositive@3@PAPAUrct_struct@vpiDomains@@@Z  (Idle)
01:00041480 ?_setTimer@gui_api@@SAXPBUunsignedNative@_builtIn@@PBUpositive@core@@XAAU23@@Z  (Idle)
01:000414B8 ?setTimer@gui_api@@SAXPBUhwnd@core@@PBUunsignedNative@_builtIn@@PBUpositive@3@X@Z  (Idle)
01:000414DC ?_setTimer@gui_api@@SAXPBUhwnd@core@@PBUunsignedNative@_builtIn@@PBUpositive@3@XAAU45@@Z 
01:00041534 ?killTimer@gui_api@@SAXPBUhwnd@core@@PBUunsignedNative@_builtIn@@@Z  (Idle)
01:00041578 ?_getIconInfo@gui_api@@SAXPBUhIcon@gui_native@@PAPAUiconInfo_struct@3@@Z  (Idle)
01:00041630 ?destroyIcon@gui_api@@SAXPBUhIcon@gui_native@@@Z  (Idle)
01:00041674 ?_enableWindow@gui_api@@SAXPBUhwnd@core@@PAUboolean_struct@_builtIn@@PAPAU45@@Z  (Idle)
01:000416AC ?tryTranslateAccelerator@gui_api@@SAXPBUhwnd@core@@PBUhandle@_builtIn@@PAUmsg_struct@gui_native@@@Z  (Idle)
01:000416CC ?isDialogMessage@gui_api@@SAXPBUhwnd@core@@PAUmsg_struct@gui_native@@@Z  (Idle)
--- From 'obj\vpiDomains.E7102A6D.obj'
01:000416EC ?_tryGetNameOfMessage@gui_api@@SAXIPAPB_W@Z 
--- From 'obj\gui_api.9FE53D0D.obj'
01:0004173C ?postMessage@gui_api@@SAXPBUhwnd@core@@IPBUwParam@gui_native@@PBUlParam@5@@Z  (Idle)
01:00041788 ?_getObject_logfont@gui_api@@SAXPBUhFont@gui_native@@PAPAUlogfont_struct@3@@Z  (Idle)
01:000417F0 ?_tryGetObject_logfont@gui_api@@SAXPBUhFont@gui_native@@PAPAUlogfont_struct@3@@Z 
01:0004181C ?_tryGetObject@gui_api@@SAXQAVrTypeLibrary@TypeLibraries@RunTime@VIP@@PBUhandle@_builtIn@@PAX@Z 
01:00041878 ?showScrollBar@gui_api@@SAXPBUhwnd@core@@PBUscrollBar@gui_native@@PAUboolean_struct@_builtIn@@@Z  (Idle)
01:000418D4 ?_createPen@gui_api@@SAXHHPBUcolor@vpiDomains@@AAUhPen@gui_native@@@Z  (Idle)
01:00041914 ?_createPalette@gui_api@@SAXPAUlogPalette_struct@gui_native@@AAUhPalette@3@@Z  (Idle)
01:0004194C ?_selectPalette@gui_api@@SAXPBUhDC@gui_native@@PBUhPalette@3@PAUboolean_struct@_builtIn@@AAU43@@Z  (Idle)
01:0004199C ?_realizePalette@gui_api@@SAXPBUhDC@gui_native@@PAI@Z  (Idle)
01:000419D4 ?_getTextFace@gui_api@@SAXPBUhDC@gui_native@@PAPB_W@Z  (Idle)
01:00041A4C ?_drawText@gui_api@@SAXPBUhDC@gui_native@@PB_WPAUrct_struct@vpiDomains@@IPAH@Z  (Idle)
01:00041A7C ?_drawText@gui_api@@SAXPBUhDC@gui_native@@PB_WPBUcharCountOptional@core@@PAUrct_struct@vpiDomains@@IPAH@Z 
01:00041AC0 ?_selectClipRgn@gui_api@@SAXPBUhDC@gui_native@@PBUhRgn@3@PAH@Z  (Idle)
01:00041AFC ?_setBkColor@gui_api@@SAXPBUhDC@gui_native@@PBUcolor@vpiDomains@@AAU45@@Z  (Idle)
01:00041B38 ?_setBkMode@gui_api@@SAXPBUhDC@gui_native@@HPAH@Z  (Idle)
01:00041B74 ?_setTextColor@gui_api@@SAXPBUhDC@gui_native@@PBUcolor@vpiDomains@@AAU45@@Z  (Idle)
01:00041BB0 ?_getDlgItem@gui_api@@SAXPBUhwnd@core@@HAAU23@@Z  (Idle)
01:00041C84 ?_getCursorPosX@gui_api@@SAXPAPAUpnt_struct@vpiDomains@@@Z  (Idle)
01:00041CDC ?_getCursorPos@gui_api@@SAXPAPAUpnt_struct@vpiDomains@@@Z  (Idle)
01:00041D14 ?_getCursorPos@gui_api@@SAXPBUhwnd@core@@PAPAUpnt_struct@vpiDomains@@@Z  (Idle)
01:00041D44 ?_getMessagePos@gui_api@@SAXPAPAUpnt_struct@vpiDomains@@@Z 
01:00041DB8 ?_compareToInt@gui_api@@SAXPAUcompareResult_struct@_builtIn@@PAH@Z  (Idle)
01:00041DE8 ?_loadString@gui_api@@SAXPBUresid@vpiDomains@@PAPB_W@Z  (Idle)
01:00041E18 ?_loadString@gui_api@@SAXPBUresid@vpiDomains@@PBUhModule@core@@PAPB_W@Z 
01:00041E58 ?_getWindowText@gui_api@@SAXPBUhwnd@core@@PAPB_W@Z  (Idle)
01:00041EE4 ?setWindowText@gui_api@@SAXPBUhwnd@core@@PB_W@Z  (Idle)
01:00041F44 ?drawIconEx@gui_api@@SAXPBUhDC@gui_native@@HHPBUhIcon@3@HHIPBUhBrush@3@I@Z  (Idle)
01:00041FA0 ?_findResource@gui_api@@SAXPB_W0PBUhModule@core@@AAUhResource@gui_native@@@Z  (Idle)
01:00041FEC ?_loadResource@gui_api@@SAXPBUhResource@gui_native@@PBUhModule@core@@AAUhGlobal@windowsAPI@@@Z  (Idle)
01:00042038 ?_lockResource@gui_api@@SAXPBUhGlobal@windowsAPI@@PAPAX@Z  (Idle)
01:00042050 ?_sizeofResource@gui_api@@SAXPBUhResource@gui_native@@PBUhModule@core@@AAUbyteCount@5@@Z  (Idle)
01:0004209C gui_api_getParam 
01:000420AC ?getInteger16@gui_api@@SAXPBUintegerNative@_builtIn@@AAUinteger16@core@@1@Z  (Idle)
01:000420E4 ?getInteger16@gui_api@@SAXPBUwParam@gui_native@@AAUinteger16@core@@1@Z  (Idle)
01:0004211C ?getInteger16@gui_api@@SAXPBUlParam@gui_native@@AAUinteger16@core@@1@Z 
01:00042154 ?getInteger16@gui_api@@SAXPBUlResult@gui_native@@AAUinteger16@core@@1@Z  (Idle)
01:0004218C ?getUnsigned16@gui_api@@SAXPBUintegerNative@_builtIn@@AAUunsigned16@core@@1@Z 
01:000421C8 ?getUnsigned16@gui_api@@SAXPBUwParam@gui_native@@AAUunsigned16@core@@1@Z 
01:00042204 ?getUnsigned16@gui_api@@SAXPBUlParam@gui_native@@AAUunsigned16@core@@1@Z 
01:00042240 ?getUnsigned16@gui_api@@SAXPBUlResult@gui_native@@AAUunsigned16@core@@1@Z 
01:0004227C ?_createWindowEx@gui_api@@SAXIPBUatom@gui_native@@PB_WIHHHHPBUhwnd@core@@PBUhMenu@3@PBUhModule@5@PAXAAU45@@Z  (Idle)
01:00042348 ?_mkW@gui_api@@SAXIAAUwParam@gui_native@@@Z  (Idle)
01:00042358 ?_mkL@gui_api@@SAXIAAUlParam@gui_native@@@Z  (Idle)
01:00042368 ?_mkR@gui_api@@SAXIAAUlResult@gui_native@@@Z  (Idle)
01:00042378 ?_findResource@gui_api@@SAXPBUunsignedNative@_builtIn@@PB_WPBUhModule@core@@AAUhResource@gui_native@@@Z  (Idle)
01:000423C4 ?_findResource@gui_api@@SAXPB_WPBUunsignedNative@_builtIn@@PBUhModule@core@@AAUhResource@gui_native@@@Z  (Idle)
01:00042410 ?_findResource@gui_api@@SAXPBUunsignedNative@_builtIn@@0PBUhModule@core@@AAUhResource@gui_native@@@Z  (Idle)
--- From 'obj\vpiDomains.E7102A6D.obj'
01:00042460 ?_toFontOld@vpiDomains@@SAXPAUlogfont_struct@gui_native@@AAUfontOld@1@@Z  (Idle)
01:00042488 ?_fromFontOld@vpiDomains@@SAXPBUfontOld@1@PAPAUlogfont_struct@gui_native@@@Z  (Idle)
01:0004249C ?_rct2pos@vpiDomains@@SAXPAUrct_struct@1@PAPAUpnt_struct@1@@Z  (Idle)
01:000424AC ?presenter_event@vpiDomains@@SGPAUpresentation_struct@presenter@@PAUevent_struct@1@@Z 
01:000425E8 ?presenter_color@vpiDomains@@SGPAUpresentation_struct@presenter@@PBU41@@Z 
01:000427F8 ?__lateFactInit$colorname$0$vpiDomains@classDB@1@SAXPAPAVmap@@@AAUcolor@1@PAPB_W@Z 
01:00042834 ?_wrap$presenter_color@vpiDomains@@SGPAUpresentation_struct@presenter@@QAVrTypeLibrary@TypeLibraries@RunTime@VIP@@X@Z 
--- From 'obj\comDomains.234349D9.obj'
01:00042850 ?presenter_bStr@comDomains@@SGPAUpresentation_struct@presenter@@PBU41@@Z 
01:000428AC ?_basicString_toString@comDomains@@SAXPBUbStr@1@PAPB_W@Z 
01:0004290C ?_wrap$presenter_bStr@comDomains@@SGPAUpresentation_struct@presenter@@QAVrTypeLibrary@TypeLibraries@RunTime@VIP@@X@Z 
--- From 'obj\registry_api.CF388C66.obj'
01:00042930 ?_regOpenKeyEx@registry_api@@SAXPBUhKey@registry_native@@PB_WPBUregsAM@3@AAU23@@Z 
01:00042974 ?_regTryOpenKeyEx@registry_api@@SAXPBUhKey@registry_native@@PB_WPBUregsAM@3@AAU23@@Z 
01:0004299C ?regCloseKey@registry_api@@SAXPBUhKey@registry_native@@@Z 
01:00042A34 ?_regCreateKeyEx@registry_api@@SAXPBUhKey@registry_native@@PB_WIPBUregsAM@3@PAUsecurityAttr_struct@3@PAIAAU23@@Z 
01:00042A7C ?regDeleteKey@registry_api@@SAXPBUhKey@registry_native@@PB_W@Z 
01:00042AB8 ?regDeleteKeyEx@registry_api@@SAXPBUhKey@registry_native@@PB_WPBUregsAM@3@@Z 
01:00042AF8 ?_regEnumKeyEx@registry_api@@SAXPBUhKey@registry_native@@PAPAU?$__packedList_struct@PAPB_W@@@Z 
01:00042B88 ?_regEnumKeyEx1@registry_api@@SAXPBUhKey@registry_native@@IPB_WPBUcharCount@core@@PAPAU?$__packedList_struct@PAPB_W@@@Z 
01:00042C0C ?_tryRegEnumKeyExOne@registry_api@@SAXPBUhKey@registry_native@@IPB_WPBUcharCount@core@@PAPB_W@Z 
01:00042D50 ?regSetValueEx@registry_api@@SAXPBUhKey@registry_native@@PB_WPAUvalue_struct@core@@@Z 
01:00042DC0 ?_regQueryValueEx@registry_api@@SAXPBUhKey@registry_native@@PB_WPAPAUvalue_struct@core@@@Z 
01:00042E24 ?_regTryQueryValueEx@registry_api@@SAXPBUhKey@registry_native@@PB_WPAPAUvalue_struct@core@@@Z 
01:00042E78 ?_regQueryValueEx1@registry_api@@SAXPBUhKey@registry_native@@PB_WPAUpByteCount_struct@memory@@PAPAUvalue_struct@core@@@Z 
01:00042EF4 ?regDeleteValue@registry_api@@SAXPBUhKey@registry_native@@PB_W@Z  (Idle)
01:00042F28 ?regDeleteValueIfExist@registry_api@@SAXPBUhKey@registry_native@@PB_W@Z 
01:00042F68 ?_regEnumValue@registry_api@@SAXPBUhKey@registry_native@@PAPAU?$__packedList_struct@PAPAUnamedValue_struct@core@@PAPAUvalue_struct@5@@@@Z 
01:00042FAC ?_regEnumValue1@registry_api@@SAXPBUhKey@registry_native@@IPB_WPBUcharCount@core@@PAPAU?$__packedList_struct@PAPAUnamedValue_struct@5@PAPAUvalue_struct@5@@@@Z 
01:00043030 ?_tryRegEnumValueOne@registry_api@@SAXPBUhKey@registry_native@@IPB_WPBUcharCount@core@@PAPAUnamedValue_struct@5@PAPAUvalue_struct@5@@Z 
01:000433BC ?_packValue@registry_api@@SAXIPAXPBUbyteCount@core@@PAPAUvalue_struct@3@@Z 
01:00043680 ?unpackValue@registry_api@@SAXPAUvalue_struct@core@@PAIPAPAXAAUbyteCount@3@@Z 
01:00043AAC ?_convertToStringList@registry_api@@SAXPAXPBUbyteCount@core@@PAPAU?$__packedList_struct@PAPB_W@@@Z 
01:00043B6C ?check_name_value@registry_api@@SAXPBUhResult@core@@PB_W1PAUvalue_struct@3@@Z 
01:00043C2C ?check_name@registry_api@@SAXPBUhResult@core@@PB_W1@Z 
--- From 'obj\windowsAPI.FC171F8F.obj'
01:00043CC0 ?_toMsStringSeq@windowsAPI@@SAXPAU?$__packedList_struct@PB_W@@AAUmsStringSeq@1@@Z  (Idle)
01:00043D08 ?_totalLength@windowsAPI@@SAXPAU?$__packedList_struct@PB_W@@PBUcharCount@core@@AAU23@@Z 
01:00043D7C ?fill@windowsAPI@@SAXPAU?$__packedList_struct@PB_W@@PBUmsStringSeq@1@@Z 
01:00043E18 ?_fromMsStringSeq@windowsAPI@@SAXPBUmsStringSeq@1@PAPAU?$__packedList_struct@PAPB_W@@@Z  (Idle)
01:00043E8C ?_getString_nd@windowsAPI@@SAXPBUmsStringSeq@1@PAPB_W@Z 
--- From 'obj\exceptionHandling.2B4136FF.obj'
01:00043F60 ?_getFacility@winErrors@@SAXPBUhResult@core@@PAI@Z 
--- From 'obj\exe.D80FC844.obj'
01:00043F80 ?run/2np$1@mainExe@@SAXPAUrun/2np$1_struct@1@@Z 
01:00043FAC ?run@mainExe@@SAXXPAUrunMode_struct@exe_api@@@Z 
01:0004405C ?runCallback@mainExe@@SAXXPAUrunMode_struct@exe_api@@@Z 
01:000440B8 ?_getCommandLine@mainExe@@SAXPAPB_W@Z 
01:00044134 ?_parseCommandLine@mainExe@@SAXPB_W_W0PAPB_W@Z 
01:00044208 ?_getPosition@mainExe@@SAXPB_W_WAAUcharCount@core@@@Z 
01:00044258 ?getFilename@mainExe@@SAXPAPB_W0@Z 
01:00044294 ?_getFilename@mainExe@@SAXPAPB_W@Z 
01:000442B0 ?_getCurrentHinstance@mainExe@@SAXAAUhModule@core@@@Z 
01:000442C4 ?exceptionDumper_default@mainExe@@SAXPBUtraceId@exception@@@Z 
01:000442CC ?exceptionDumper@mainExe@@SGXX@Z  (Idle)
01:000442D8 ?exceptionDumper@mainExe@@SGXXZ 
--- From 'obj\mapM_redBlack.875A0474.obj'
01:000442E0 ?new$@mapM_redBlack@@SAXQAV1@@XXQAVrTypeLibrary@TypeLibraries@RunTime@VIP@@1@Z  (Idle)
01:00044314 ?new$@mapM_redBlack@@SAXQAV1@@XXQAVrTypeLibrary@TypeLibraries@RunTime@VIP@@1PAU?$__packedList_struct@PAUtuple_struct@core@@XX@@@Z  (Idle)
01:0004434C ?newCustom$@mapM_redBlack@@SAXQAV1@@XXQAVrTypeLibrary@TypeLibraries@RunTime@VIP@@1PA$?_comparator$1@core@@SAXXXPAPAUcompareResult_struct@_builtIn@@@Z$PAU?$__packedList_struct@PAUtuple_struct@4@XX@@@Z  (Idle)
01:00044378 ?_clone$@mapM_redBlack@@SAXQAVmapM@@@XXPAPAV2@@PAXPAX@Z 
01:000443B8 ?newInit$@mapM_redBlack@@SAXQAV1@@XXQAVrTypeLibrary@TypeLibraries@RunTime@VIP@@1PAUtree_struct@redBlackTree@@XXPAU?$__packedList_struct@PAUtuple_struct@core@@XX@@@Z 
01:00044478 ?set_site$@mapM_redBlack@@SAXQAVmapMSupportSite@@collectionSupport@@XXXX@Z 
01:000444B4 ?_tryGet_site$@mapM_redBlack@@SAXQAVmapSupportSite@@collectionSupport@@XXXPAX@Z 
01:000444F8 ?_getAll_nd_site$@mapM_redBlack@@SAXQAVmapSupportSite@@collectionSupport@@XXPAPAUtuple_struct@core@@PAXPAX@Z 
01:00044534 ?removeKey_site$@mapM_redBlack@@SAXQAVmapMSupportSite@@collectionSupport@@XXX@Z 
01:0004456C ?clear$@mapM_redBlack@@SAXQAVmodifiable@@@X@Z 
01:000445A0 ?_upFrom_nd_site$@mapM_redBlack@@SAXQAVmapSupportSite@@collectionSupport@@XXXPAPAUtuple_struct@core@@PAXPAX@Z 
01:000445E4 ?_downFrom_nd$@mapM_redBlack@@SAXQAVmap@@@XXXPAPAUtuple_struct@core@@PAXPAX@Z 
--- From 'obj\list.A75CEA31.obj'
01:00044628 ?_new@mapM_redBlack@@SAXQAVrTypeLibrary@TypeLibraries@RunTime@VIP@@0PAPAVmapM@@@PAXPAX@Z 
--- From 'obj\mapM_redBlack.875A0474.obj'
01:0004465C ?_new@mapM_redBlack@@SAXQAVrTypeLibrary@TypeLibraries@RunTime@VIP@@0PAU?$__packedList_struct@PAUtuple_struct@core@@XX@@PAPAVmapM@@@PAXPAX@Z 
01:00044690 ?_newCustom@mapM_redBlack@@SAXQAVrTypeLibrary@TypeLibraries@RunTime@VIP@@0PA$?_comparator$1@core@@SAXXXPAPAUcompareResult_struct@_builtIn@@@Z$PAU?$__packedList_struct@PAUtuple_struct@3@XX@@PAPAVmapM@@@PAXPAX@Z 
01:000446C8 ?_newInit@mapM_redBlack@@SAXQAVrTypeLibrary@TypeLibraries@RunTime@VIP@@0PAUtree_struct@redBlackTree@@XXPAU?$__packedList_struct@PAUtuple_struct@core@@XX@@PAPAVmapM@@@PAXPAX@Z 
01:00044700 ?_object_typelib_initializer$@mapM_redBlack@@SGXQAV1@@XXQAVrTypeLibrary@TypeLibraries@RunTime@VIP@@1@Z 
01:00044C5C mapM_redBlack{@Key,@Data}?_initObject@@@QAGXQAV1@H@Z 
01:00044CA4 ?@create_object@mapM_redBlack@@SGQAV1@@XXQAVrTypeLibrary@TypeLibraries@RunTime@VIP@@0@Z 
01:00044CCC mapM_redBlack{@Key,@Data}?_InternalFinalizer@@@QAGXQAV1@@Z 
--- From 'obj\fileSystem.5B0F823E.obj'
01:00044CE0 ?create_explicit$@outputStream_file@@SAXQAV1@@PAUprogramPoint_struct@core@@PB_WPAUmode_struct@stream@@PAUaccessPermit_struct@fileSystem_api@@PAU?$__packedList_struct@PAUfileAttributeAtom_struct@8@@@PBUbyteCount@4@@Z  (Idle)
01:00044D30 ?create8_explicit$@outputStream_file@@SAXQAV1@@PAUprogramPoint_struct@core@@PB_WPAUaccessPermit_struct@fileSystem_api@@@Z  (Idle)
01:00044D60 ?createUtf8_explicit$@outputStream_file@@SAXQAV1@@PAUprogramPoint_struct@core@@PB_WPAUaccessPermit_struct@fileSystem_api@@@Z  (Idle)
01:00044D94 ?createUtf8_bom_explicit$@outputStream_file@@SAXQAV1@@PAUprogramPoint_struct@core@@PB_WPAUaccessPermit_struct@fileSystem_api@@@Z  (Idle)
01:00044E68 ?commonPartOfConstructors$@outputStream_file@@SAXQAV1@@PAUprogramPoint_struct@core@@PB_WPBUfileHandle@4@PAUmode_struct@stream@@PBUbyteCount@4@@Z 
01:00044EC0 ?handleMode_create$@outputStream_file@@SAXQAV1@@PAUmode_struct@stream@@@Z 
01:00044F10 ?openFile8_explicit$@outputStream_file@@SAXQAV1@@PAUprogramPoint_struct@core@@PB_WPAUaccessPermit_struct@fileSystem_api@@@Z  (Idle)
01:00044F38 ?openFileUtf8_explicit$@outputStream_file@@SAXQAV1@@PAUprogramPoint_struct@core@@PB_WPAUaccessPermit_struct@fileSystem_api@@@Z  (Idle)
01:00044F60 ?openFile_explicit$@outputStream_file@@SAXQAV1@@PAUprogramPoint_struct@core@@PB_WPAUmode_struct@stream@@PAUaccessPermit_struct@fileSystem_api@@@Z 
01:00044FB0 ?append8_explicit$@outputStream_file@@SAXQAV1@@PAUprogramPoint_struct@core@@PB_WPAUaccessPermit_struct@fileSystem_api@@@Z  (Idle)
01:00044FD8 ?appendUtf8_explicit$@outputStream_file@@SAXQAV1@@PAUprogramPoint_struct@core@@PB_WPAUaccessPermit_struct@fileSystem_api@@@Z  (Idle)
01:00045000 ?append_explicit$@outputStream_file@@SAXQAV1@@PAUprogramPoint_struct@core@@PB_WPAUmode_struct@stream@@PAUaccessPermit_struct@fileSystem_api@@@Z 
01:00045064 ?newHandleFile_explicit$@outputStream_file@@SAXQAV1@@PAUprogramPoint_struct@core@@PBUfileHandle@4@PAUmode_struct@stream@@PB_W@Z  (Idle)
01:000450B0 ?newHandle_explicit$@outputStream_file@@SAXQAV1@@PAUprogramPoint_struct@core@@PBUfileHandle@4@PAUmode_struct@stream@@PBUbyteCount@4@PB_WPAUboolean_struct@_builtIn@@@Z  (Idle)
01:000450EC ?skipUnicodeSignature$@outputStream_file@@SAXQAV1@@PAUmode_struct@stream@@@Z 
01:00045140 ?skip$@outputStream_file@@SAXQAV1@@IPBUbyteCount@core@@@Z 
01:000451B4 ?doFlush$@outputStream_file@@SAXQAVoutputStreamSupportSite@@@@Z 
01:000451C4 ?getCRLFconversion$@outputStream_file@@SGPAUboolean_struct@_builtIn@@QAVstream@@@@Z 
01:000451F4 ?setCRLFconversion$@outputStream_file@@SGXQAVstream@@@PAUboolean_struct@_builtIn@@@Z 
01:00045258 ?getPosition$@outputStream_file@@SGPBUfileSize@fileSystem_api@@QAVstream@@@@Z 
01:00045309 ?setPosition$@outputStream_file@@SGXQAVstream@@@PBUfileSize@fileSystem_api@@@Z 
01:00045404 ?_checkMovingIsInsideBuffer$@outputStream_file@@SAXQAV1@@PAPBUfileSize@fileSystem_api@@1PBUbyteCount@core@@AAU78@@Z 
01:00045534 ?setMaxOffsetUsedInCurrentBuffer$@outputStream_file@@SAXQAV1@@PBUbyteCount@core@@@Z 
01:00045554 ?close$@outputStream_file@@SGXQAVstream@@@@Z 
01:000455DC ?flush$@outputStream_file@@SAXQAVoutputStream@@@@Z 
01:00045600 ?bufferFullCallBack$@outputStream_file@@SAXQAV1@@PBUbyteCount@core@@@Z  (Idle)
01:00045678 ?convertLFtoCRLF_IfNeeded$@outputStream_file@@SAXQAV1@@PAXPBUbyteCount@core@@PAPAXAAU34@@Z 
01:000456D0 ?convertToANSI_IfNeeded$@outputStream_file@@SAXQAV1@@PAXPBUbyteCount@core@@PAPAXAAU34@@Z 
01:00045758 ?getBuffer$@outputStream_file@@SGXQAVoutputStreamSupportSite@@@PAPAXAAUbyteCount@core@@@Z 
01:000457B8 ?finalize$@outputStream_file@@SGXQAV1@@@Z 
--- From 'obj\exceptionDump.2B9C9E40.obj'
01:00045878 ?_create_explicit@outputStream_file@@SAXPAUprogramPoint_struct@core@@PB_WPAUmode_struct@stream@@PAUaccessPermit_struct@fileSystem_api@@PAU?$__packedList_struct@PAUfileAttributeAtom_struct@7@@@PBUbyteCount@3@PAPAVoutputStream@@@@Z 
--- From 'obj\fileSystem.5B0F823E.obj'
01:000458B0 ?_create8_explicit@outputStream_file@@SAXPAUprogramPoint_struct@core@@PB_WPAUaccessPermit_struct@fileSystem_api@@PAPAVoutputStream@@@@Z  (Idle)
01:000458E0 ?_createUtf8_explicit@outputStream_file@@SAXPAUprogramPoint_struct@core@@PB_WPAUaccessPermit_struct@fileSystem_api@@PAPAVoutputStream@@@@Z  (Idle)
01:00045910 ?_createUtf8_bom_explicit@outputStream_file@@SAXPAUprogramPoint_struct@core@@PB_WPAUaccessPermit_struct@fileSystem_api@@PAPAVoutputStream@@@@Z  (Idle)
01:00045940 ?_openFile_explicit@outputStream_file@@SAXPAUprogramPoint_struct@core@@PB_WPAUmode_struct@stream@@PAUaccessPermit_struct@fileSystem_api@@PAPAVoutputStream@@@@Z  (Idle)
01:00045974 ?_openFile8_explicit@outputStream_file@@SAXPAUprogramPoint_struct@core@@PB_WPAUaccessPermit_struct@fileSystem_api@@PAPAVoutputStream@@@@Z  (Idle)
01:000459A4 ?_openFileUtf8_explicit@outputStream_file@@SAXPAUprogramPoint_struct@core@@PB_WPAUaccessPermit_struct@fileSystem_api@@PAPAVoutputStream@@@@Z  (Idle)
01:000459D4 ?_append_explicit@outputStream_file@@SAXPAUprogramPoint_struct@core@@PB_WPAUmode_struct@stream@@PAUaccessPermit_struct@fileSystem_api@@PAPAVoutputStream@@@@Z  (Idle)
01:00045A08 ?_append8_explicit@outputStream_file@@SAXPAUprogramPoint_struct@core@@PB_WPAUaccessPermit_struct@fileSystem_api@@PAPAVoutputStream@@@@Z  (Idle)
01:00045A38 ?_appendUtf8_explicit@outputStream_file@@SAXPAUprogramPoint_struct@core@@PB_WPAUaccessPermit_struct@fileSystem_api@@PAPAVoutputStream@@@@Z  (Idle)
01:00045A68 ?_newHandleFile_explicit@outputStream_file@@SAXPAUprogramPoint_struct@core@@PBUfileHandle@3@PAUmode_struct@stream@@PB_WPAPAVoutputStream@@@@Z  (Idle)
01:00045A9C ?_newHandle_explicit@outputStream_file@@SAXPAUprogramPoint_struct@core@@PBUfileHandle@3@PAUmode_struct@stream@@PBUbyteCount@3@PB_WPAUboolean_struct@_builtIn@@PAPAVoutputStream@@@@Z  (Idle)
01:00045AD4 ?_object_facts_initializer$@outputStream_file@@SGXQAV1@@@Z 
01:00045AF8 ?append$@messageFile@@SAXQAV1@@PB_W@Z  (Idle)
01:00045B10 ?append$@messageFile@@SAXQAV1@@PB_WPAUmode_struct@stream@@@Z 
01:00045B28 ?flush$@messageFile@@SAXQAVoutputStream@@@@Z 
01:00045B30 ?write/0ep$1@messageFile@@SAXPAUwrite/0ep$1_struct@1@QAVoutputStream@@@@Z 
01:00045B5C ?write$@messageFile@@SAXQAVoutputStream@@@@Z 
01:00045BF4 ?writef/1ep$1@messageFile@@SAXPAUwritef/1ep$1_struct@1@QAVoutputStream@@@@Z 
01:00045C2C ?writef$@messageFile@@SAXQAVoutputStream@@@PB_W@Z 
01:00045CCC ?writequoted/0ep$1@messageFile@@SAXPAUwritequoted/0ep$1_struct@1@QAVoutputStream@@@@Z 
01:00045CF8 ?writeQuoted$@messageFile@@SAXQAVoutputStream@@@@Z 
01:00045D90 ?nl/0np$1@messageFile@@SAXQAVoutputStream@@@@Z 
01:00045DA0 ?nl$@messageFile@@SAXQAVoutputStream@@@@Z 
01:00045DBC ?writebytes/2np$1@messageFile@@SAXPAUwritebytes/2np$1_struct@1@QAVoutputStream@@@@Z 
01:00045DF4 ?writeBytes$@messageFile@@SAXQAVoutputStream@@@PAXPBUbyteCount@core@@@Z 
01:00045E30 ?save/1np$1@messageFile@@SAXPAUsave/1np$1_struct@1@QAVoutputStream@@@@Z 
01:00045E54 ?save$@messageFile@@SAXQAVoutputStream@@@PBUfactDB@_builtIn@@@Z 
01:00045E8C ?writeOperation$@messageFile@@SAXQAV1@@X@Z 
01:00045F34 ?setMode$@messageFile@@SGXQAVstream@@@PAUmode_struct@2@@Z 
01:00045F4C ?getMode$@messageFile@@SGPAUmode_struct@stream@@QAV3@@@Z 
01:00045F58 ?getCRLFconversion$@messageFile@@SGPAUboolean_struct@_builtIn@@QAVstream@@@@Z 
01:00045F60 ?setCRLFconversion$@messageFile@@SGXQAVstream@@@PAUboolean_struct@_builtIn@@@Z 
01:00045F88 ?close$@messageFile@@SGXQAVstream@@@@Z 
01:00045F98 ?getPosition$@messageFile@@SGPBUfileSize@fileSystem_api@@QAVstream@@@@Z 
01:00045FB0 ?setPosition$@messageFile@@SGXQAVstream@@@PBUfileSize@fileSystem_api@@@Z 
01:00045FC8 ?present/0ep$1@messageFile@@SAXPAUpresent/0ep$1_struct@1@QAVoutputStream@@@@Z 
01:00045FF4 ?present$@messageFile@@SAXQAVoutputStream@@@@Z 
01:0004608C ?streamFromInputBuffer$@messageFile@@SAXQAVoutputStream@@@QAVinputBuffer@@@@Z 
01:000460A8 ?_append@messageFile@@SAXPB_WPAPAVoutputStream@@@@Z  (Idle)
01:000460D0 ?_append@messageFile@@SAXPB_WPAUmode_struct@stream@@PAPAVoutputStream@@@@Z  (Idle)
01:000460FC ?_object_facts_initializer$@messageFile@@SGXQAV1@@@Z 
01:00046114 ?allowNullPointers@messageFile@@SGXQAVstream@@@PAUboolean_struct@_builtIn@@@Z 
01:00046124 ?allowNullPointers@messageFile@@SGPAUboolean_struct@_builtIn@@QAVstream@@@@Z 
01:00046130 ?openFile8$@inputStream_file@@SAXQAV1@@PB_W@Z  (Idle)
01:0004615C ?openFileUtf8$@inputStream_file@@SAXQAV1@@PB_W@Z  (Idle)
01:00046188 ?openFile$@inputStream_file@@SAXQAV1@@PB_WPAUmode_struct@stream@@PAUaccessPermit_struct@fileSystem_api@@PBUbyteCount@core@@@Z 
01:000461D0 ?openFileText$@inputStream_file@@SAXQAV1@@PB_WPAUaccessPermit_struct@fileSystem_api@@@Z  (Idle)
01:00046204 ?newHandleText$@inputStream_file@@SAXQAV1@@PBUfileHandle@core@@@Z 
01:00046250 ?newHandle$@inputStream_file@@SAXQAV1@@PBUfileHandle@core@@PAUmode_struct@stream@@@Z  (Idle)
01:00046270 ?newBlockedPipe$@inputStream_file@@SAXQAV1@@PBUfileHandle@core@@PAUmode_struct@stream@@@Z  (Idle)
01:00046290 ?newHandleFile$@inputStream_file@@SAXQAV1@@PBUfileHandle@core@@PAUmode_struct@stream@@@Z  (Idle)
01:000462C8 ?commonPartOfConstructors$@inputStream_file@@SAXQAV1@@PBUfileHandle@core@@PAUmode_struct@stream@@PAUboolean_struct@_builtIn@@PBUbyteCount@4@@Z 
01:0004630C ?checkBufferSize@inputStream_file@@SAXPBUbyteCount@core@@@Z 
01:00046360 ?_readBuffer_site$@inputStream_file@@SAXQAVinputSupportSite_mode@@@PAXPBUbyteCount@core@@AAU34@@Z 
01:000463A8 ?tryClose_site$@inputStream_file@@SAXQAVinputSupportSite_mode@@@@Z 
01:000463E8 ?setPosition_site$@inputStream_file@@SAXQAVinputSupportSite_mode@@@PAPBUfileSize@fileSystem_api@@@Z 
01:00046414 ?_getPosition_site$@inputStream_file@@SAXQAVinputSupportSite_mode@@@PAAAUfileSize@fileSystem_api@@@Z 
01:00046448 ?_openFile@inputStream_file@@SAXPB_WPAUmode_struct@stream@@PAUaccessPermit_struct@fileSystem_api@@PBUbyteCount@core@@PAPAVinputStream@@@@Z 
01:0004647C ?_openFile8@inputStream_file@@SAXPB_WPAPAVinputStream@@@@Z  (Idle)
01:000464A4 ?_openFileUtf8@inputStream_file@@SAXPB_WPAPAVinputStream@@@@Z  (Idle)
01:000464CC ?_openFileText@inputStream_file@@SAXPB_WPAUaccessPermit_struct@fileSystem_api@@PAPAVinputStream@@@@Z  (Idle)
01:000464F8 ?_newHandleText@inputStream_file@@SAXPBUfileHandle@core@@PAPAVinputStream@@@@Z  (Idle)
01:00046520 ?_newHandleFile@inputStream_file@@SAXPBUfileHandle@core@@PAUmode_struct@stream@@PAPAVinputStream@@@@Z  (Idle)
01:0004654C ?_newHandle@inputStream_file@@SAXPBUfileHandle@core@@PAUmode_struct@stream@@PAPAVinputStream@@@@Z  (Idle)
01:00046578 ?_newBlockedPipe@inputStream_file@@SAXPBUfileHandle@core@@PAUmode_struct@stream@@PAPAVinputStream@@@@Z  (Idle)
01:000465A4 ?_tryVerQueryValue@fileVersion@@SAXQAEPB_WPAPAX@Z  (Idle)
01:000465EC ?_getFileVersionInformation@fileVersion@@SAXQAEPB_W1PAPB_W@Z  (Idle)
01:00046690 ?_loadVersionInfo@fileVersion@@SAXPB_WQAPAE@Z  (Idle)
01:00046754 ?_tryLoadVersionInfo@fileVersion@@SAXPB_WQAPAE@Z 
01:000467A0 ?_getLanguageAndCodePageKey@fileVersion@@SAXQAEPAPB_W@Z  (Idle)
01:00046838 ?_getVersionInfo@fileVersion@@SAXPB_WPAPAUversionInformation_struct@1@@Z 
01:00046908 ?_getVersionBuildTime@fileVersion@@SAXPB_WPAPB_W@Z  (Idle)
01:00046960 ?_getProductVersion@fileVersion@@SAXPB_WPAPA_K@Z  (Idle)
01:000469C4 ?_getRootKey@fileVersion@@SAXQAEPAPAUvs_fixedfileinfo_struct@1@@Z 
01:00046A1C ?_getFileVersionInfo@fileVersion@@SAXPB_WPAPAUfileVersionInformation_struct@1@@Z  (Idle)
01:00046B18 ?_tryGetFileVersionInfo@fileVersion@@SAXPB_WPAPAUfileVersionInformation_struct@1@@Z  (Idle)
01:00046C18 ?_getProductVersionInfo@fileVersion@@SAXPB_WPAPAUfileVersionInformation_struct@1@@Z  (Idle)
01:00046CF8 ?raise_fileAlreadyExists_explicit@fileSystem_exception@@SAXPAUprogramPoint_struct@core@@PB_W@Z  (Idle)
01:00046D50 ?raise_wrongAttribute_explicit@fileSystem_exception@@SAXPAUprogramPoint_struct@core@@I@Z  (Idle)
01:00046DA8 ?raise_fileTooBig_explicit@fileSystem_exception@@SAXPAUprogramPoint_struct@core@@PB_W@Z  (Idle)
01:00046E00 ?checkFileReadResult_explicit@fileSystem_exception@@SAXPAUprogramPoint_struct@core@@H@Z  (Idle)
01:00046E44 ?_getPath@filename@@SAXPB_WPAPB_W@Z  (Idle)
01:00046E64 ?_getPosLastSlash@filename@@SAXPB_WAAUcharCount@core@@@Z  (Idle)
01:00046ECC ?_getNameWithExtension@filename@@SAXPB_WPAPB_W@Z  (Idle)
01:00046EFC ?getPathAndName@filename@@SAXPB_WPAPB_W1@Z 
01:00046F44 ?_getName1@filename@@SAXPB_WPAPB_W@Z  (Idle)
01:00046F78 ?_getLastDirectory@filename@@SAXPB_WPAPB_W1@Z  (Idle)
01:00046FD0 ?_removeLastSlash@filename@@SAXPB_WPAPB_W@Z 
01:00047048 ?_getName@filename@@SAXPB_WPAPB_W@Z  (Idle)
01:00047070 ?_charGet@filename@@SAXPB_WPBUcharCountOptional@core@@AAU23@@Z  (Idle)
01:000470E0 ?_getExtension@filename@@SAXPB_WPAPB_W@Z  (Idle)
01:00047134 ?_getExtension@filename@@SAXPB_WPAPB_W1@Z  (Idle)
01:000471AC ?_setPath@filename@@SAXPB_W0PAPB_W@Z  (Idle)
01:000471D8 ?_setName@filename@@SAXPB_W0PAPB_W@Z  (Idle)
01:00047234 ?_setExtension@filename@@SAXPB_W0PAPB_W@Z  (Idle)
01:00047338 ?_reduce@filename@@SAXPB_W0PAPB_W@Z  (Idle)
01:00047444 ?_reduceToShort@filename@@SAXPB_W0PAPB_W@Z  (Idle)
01:0004748C ?getFirstDirectory@filename@@SAXPB_WPAPB_W1@Z 
01:0004758C ?getNetName@filename@@SAXPB_W0PAPB_W2@Z 
01:000475F0 ?_setTrailSlash@filename@@SAXPB_WPAPB_W@Z 
01:0004763C ?_getSlashList@filename@@SAXPB_W_WPBUcharCount@core@@PAPAU?$__packedList_struct@AAU23@@@@Z  (Idle)
01:000476DC ?_tail@filename@@SAXPB_WPBUcharCount@core@@PAPB_W@Z 
01:000476FC ?_getOrderedList@filename@@SAXPAU?$__packedList_struct@PBUcharCount@core@@@@0PAPAU?$__packedList_struct@AAU23@@@@Z  (Idle)
01:000477A4 ?splitPathString@filename@@SAXPB_WPAU?$__packedList_struct@PBUcharCount@core@@@@PBU23@PAPAU?$__packedList_struct@PAPB_W@@AAU23@@Z  (Idle)
01:00047834 ?splitOntoPathAndName@filename@@SAXPB_WPAPAU?$__packedList_struct@PAPB_W@@PAPB_W@Z 
01:000478F4 ?_splitFileExt@filename@@SAXPB_WPAPB_W@Z 
01:00047930 ?_splitFilename@filename@@SAXPB_WPAPB_W@Z 
01:0004797C ?_directoryCompare@filename@@SAXPAU?$__packedList_struct@PB_W@@PAU?$__packedList_struct@0@@PAPB_W@Z 
01:00047A18 ?_glueRest@filename@@SAXPAU?$__packedList_struct@PB_W@@PAU?$__packedList_struct@0@@PAPB_W@Z 
01:00047A64 ?splitPath@filename@@SAXPB_WPAPAU?$__packedList_struct@PAPB_W@@AAUcharCount@core@@@Z 
01:00047AD4 ?_nameConcat@filename@@SAXPB_W00PAPB_W@Z 
01:00047B68 ?_createPath@filename@@SAXPB_W0PAPB_W@Z  (Idle)
01:00047BE4 ?_reducePath@filename@@SAXPB_WPAPB_W@Z  (Idle)
01:00047C64 ?_createPath@filename@@SAX_WPB_W11PAPB_W@Z 
01:00047D38 ?_concatWithSlash@filename@@SAXPB_W0PAPB_W@Z 
01:00047DDC ?_getTypeOfSlash@filename@@SAXPB_W0PAPB_W@Z 
01:00047E90 ?isSlash@filename@@SAX_W@Z 
01:00047EB0 ?_checkSecondCharAfterSlash@filename@@SAXPB_W00PAPB_W@Z 
01:00047F90 ?_checkThirdCharAfterColon@filename@@SAXPB_W_W00PAPB_W@Z 
01:00048074 ?_reducePath@filename@@SAX_WPB_WPAPB_W@Z 
01:000480A4 ?_applyFilename@filename@@SAXPB_WPAU?$__packedList_struct@0@@PAPAU?$__packedList_struct@PAPB_W@@@Z 
01:000481B0 ?stay_dir@filename@@SAXPB_W@Z  (Idle)
01:000481F0 ?up_dir@filename@@SAXPB_W@Z 
01:00048230 ?_reducePath_reversed@filename@@SAXPAU?$__packedList_struct@PB_W@@PAPAU?$__packedList_struct@PAPB_W@@@Z 
01:00048320 ?_upOneDir_reversed@filename@@SAXPAU?$__packedList_struct@PB_W@@PAPAU?$__packedList_struct@PAPB_W@@@Z 
01:00048454 ?notDriveOrNetworkVolume@filename@@SAXPB_W@Z 
01:00048518 ?_normalize@filename@@SAXPB_WPAPB_W@Z  (Idle)
01:000485F4 ?_normalizeSl@filename@@SAXPB_WPAPB_W@Z 
01:0004864C ?isAbsolutePath@filename@@SAXPB_W@Z  (Idle)
01:00048704 ?front_wc@filename@@SAXPB_WPBUcharCount@core@@PAPB_W2@Z 
01:00048738 ?up_dir@filename@@SAXPAPB_W@Z 
01:0004874C ?copy@file@@SAXPB_W0PAUoverwrite_struct@1@@Z  (Idle)
01:000487B8 ?move@file@@SAXPB_W0PAUoverwrite_struct@1@@Z  (Idle)
01:0004883C ?delete@file@@SAXPB_W@Z  (Idle)
01:000488BC ?existExactFile@file@@SAXPB_W@Z 
01:00048900 ?isReadOnly@file@@SAXPB_W@Z  (Idle)
01:00048928 ?existFilePattern@file@@SAXPB_W@Z  (Idle)
01:00048A2C ?tryGetFile@file@@SAXPBUsearchHandle@fileSystem_native@@PAUwin32_find_data_struct@3@@Z 
--- From 'obj\exceptionDump.2B9C9E40.obj'
01:00048AF8 ?_createUniqueName@file@@SAXPB_W0PAPB_W@Z 
--- From 'obj\fileSystem.5B0F823E.obj'
01:00048C18 ?_getPhysicalName@file@@SAXPB_WPAPB_W@Z  (Idle)
01:00048DF4 ?setAttributes@file@@SAXPB_WPAU?$__packedList_struct@PAUfileAttributeAtom_struct@fileSystem_api@@@@PAUboolean_struct@_builtIn@@@Z  (Idle)
01:00048FE8 ?getFileProperties@file@@SAXPB_WPAPAU?$__packedList_struct@PAPAUfileAttributeAtom_struct@fileSystem_api@@@@PAAAUfileSize@3@PAAAUgmtTimeValue@core@@33@Z  (Idle)
01:000490A0 ?_tryGetLastChange@file@@SAXPB_WPAAAUgmtTimeValue@core@@@Z  (Idle)
01:000490E4 ?setFileTime@file@@SAXPB_WPAPBUgmtTimeValue@core@@11@Z  (Idle)
01:0004928C ?moveToRecycleBin@file@@SAXPB_W@Z  (Idle)
01:000493B8 ?_readBinary@file@@SAXPB_WQAPAE@Z  (Idle)
01:000494B4 ?_readFile@file@@SAXPBUfileHandle@core@@PAXPBUbyteCount@3@AAU43@@Z 
01:000494BC ?_readBinary@file@@SAXPB_WPAPBUfileSize@fileSystem_api@@PBUbyteCount@core@@QAPAE@Z  (Idle)
01:00049634 ?_readString@file@@SAXPB_WPAPAUboolean_struct@_builtIn@@PAPB_W@Z 
01:000496F4 ?_checkMode@file@@SAXPB_WPAPAUmode_struct@stream@@@Z  (Idle)
01:00049774 ?isUnicode@file@@SAXPB_W@Z  (Idle)
01:0004979C ?_readSegmented_binary@file@@SAXPB_WPAPAUsegmented_struct@segmented@@QAPAE@Z  (Idle)
01:00049800 ?_readSegmented_utf16@file@@SAXPB_WPAPAUsegmented_utf16_struct@segmented@@@Z  (Idle)
01:00049860 ?streamTo_close@file@@SAXQAVinputStream@@@QAVoutputStream@@@@Z 
01:000498D8 ?_getFileSize@file@@SAXPBUfileHandle@core@@PB_WAAUbyteCount@3@@Z 
01:000499A0 ?writeSegmented_binary@file@@SAXPB_WPAUsegmented_struct@segmented@@QAE@Z  (Idle)
01:00049A60 ?_writesegmented/2np$1@file@@SAXPB_WPAPAVoutputStream@@@@Z 
01:00049AAC ?writeSegmented@file@@SAXPB_WPAUsegmented_utf16_struct@segmented@@@Z  (Idle)
01:00049AE0 ?_writesegmented_utf8/2np$1@file@@SAXPB_WPAPAVoutputStream@@@@Z 
01:00049B18 ?writeSegmented_utf8@file@@SAXPB_WPAUsegmented_utf16_struct@segmented@@@Z  (Idle)
01:00049B4C ?_writesegmented_utf8_bom/2np$1@file@@SAXPB_WPAPAVoutputStream@@@@Z 
01:00049B84 ?writeSegmented_utf8_bom@file@@SAXPB_WPAUsegmented_utf16_struct@segmented@@@Z  (Idle)
01:00049BB8 ?writeSegmentes_stream@file@@SAXXPB_WPAUsegmented_utf16_struct@segmented@@@Z 
01:00049CB4 ?writeBinary@file@@SAXPB_WQAE@Z  (Idle)
01:00049D8C ?writeFile@file@@SAXPBUfileHandle@core@@PAXPBUbyteCount@3@@Z 
01:00049DB0 ?writeBinary@file@@SAXPB_WPAPBUfileSize@fileSystem_api@@QAE@Z  (Idle)
01:00049EA0 ?_appendstring/3np$1@file@@SAXPB_WPAPAVoutputStream@@@@Z 
01:00049EDC ?_appendstring/3np$2@file@@SAXPB_WPAPAVoutputStream@@@@Z 
01:00049F14 ?appendString@file@@SAXPB_W0PAUboolean_struct@_builtIn@@@Z  (Idle)
01:00049F4C ?_appendstringutf8/2np$1@file@@SAXPB_WPAPAVoutputStream@@@@Z 
01:00049F84 ?appendStringUtf8@file@@SAXPB_W0@Z  (Idle)
01:00049FA0 ?_writestring/3np$1@file@@SAXPB_WPAPAVoutputStream@@@@Z 
01:00049FEC ?writeString@file@@SAXPB_W0PAUboolean_struct@_builtIn@@@Z  (Idle)
01:0004A020 ?_writestringutf8/2np$1@file@@SAXPB_WPAPAVoutputStream@@@@Z 
01:0004A058 ?writeStringUtf8@file@@SAXPB_W0@Z  (Idle)
01:0004A074 ?_writestringutf8_bom/2np$1@file@@SAXPB_WPAPAVoutputStream@@@@Z 
01:0004A0AC ?writeStringUtf8_bom@file@@SAXPB_W0@Z  (Idle)
01:0004A0C8 ?_writestring_codepage/3np$1@file@@SAXPAUwritestring_codepage/3np$1_struct@1@PB_WPAPAVoutputStream@@@@Z 
01:0004A130 ?writeString_codePage@file@@SAXPB_W0PBU2core@@@Z 
01:0004A168 ?writeStringAndClose@file@@SAXPB_W0X@Z 
01:0004A244 ?checkResult@file@@SAXPBUhResult@core@@PB_W11PAUoverwrite_struct@1@@Z 
01:0004A508 ?fileExists_errorCode@file@@SAXPBUhResult@core@@@Z 
01:0004A528 ?hideUnicodeSignature@file@@SAXQAEPBUbyteCount@core@@PAPAXAAU23@@Z 
01:0004A594 ?_setDestination@file@@SAXPB_W0PAPB_W@Z 
01:0004A5FC ?_toApiAttributes@file@@SAXPAU?$__packedList_struct@PAUfileAttributeAtom_struct@fileSystem_api@@@@PAI@Z 
01:0004A624 ?checkOnLegal@file@@SAXI@Z 
01:0004A674 ?_mixAttributes@file@@SAXPAUboolean_struct@_builtIn@@IIPAI@Z 
01:0004A6A0 ?checkFileHandle@file@@SAXPBUfileHandle@core@@PB_W@Z 
01:0004A6D0 ?_getStreamCheckUnicode@file@@SAXPB_WPAUboolean_struct@_builtIn@@PAPAVoutputStream@@@@Z  (Idle)
01:0004A754 ?save@file@@SAXPB_WPBUfactDB@_builtIn@@PAUboolean_struct@3@@Z  (Idle)
01:0004A7D8 ?saveUtf8@file@@SAXPB_WPBUfactDB@_builtIn@@@Z  (Idle)
01:0004A860 ?consult@file@@SAXPB_WPBUfactDB@_builtIn@@PAPAUboolean_struct@3@@Z  (Idle)
01:0004A908 ?reconsult@file@@SAXPB_WPBUfactDB@_builtIn@@PAPAUboolean_struct@3@@Z  (Idle)
01:0004A91C ?_trySearchFileInPath@file@@SAXPB_WPAPB_W@Z  (Idle)
01:0004A960 ?_getFilenameHash@file@@SAXPB_WPAI@Z  (Idle)
01:0004A99C ?_getFileSize@file@@SAXPB_WPAAAUfileSize@fileSystem_api@@@Z  (Idle)
01:0004A9EC ?continueDetailed_explicit@file@@SAXPAUprogramPoint_struct@core@@PBUtraceId@exception@@PB_W@Z 
01:0004AA48 ?deleteDirectory@directory@@SAXPB_W@Z  (Idle)
01:0004AA50 ?makeDirectory@directory@@SAXPB_W@Z  (Idle)
01:0004AA64 ?makeDirectoryPath@directory@@SAXPB_W@Z  (Idle)
01:0004AB10 ?makeDirectoryPath2@directory@@SAXPB_W@Z 
01:0004AC08 ?setCurrentDirectory@directory@@SAXPB_W@Z  (Idle)
01:0004AC10 ?_getCurrentDirectory@directory@@SAXPAPB_W@Z 
01:0004AC18 ?moveDirectory@directory@@SAXPB_W0@Z  (Idle)
01:0004AC20 ?setVolumeLabel@directory@@SAXPB_W0@Z  (Idle)
01:0004AC28 ?existDirectoryPattern@directory@@SAXPB_W@Z  (Idle)
01:0004AD48 ?existExactDirectory@directory@@SAXPB_W@Z 
01:0004AD9C ?isFirst@directory@@SAXPBUsearchHandle@fileSystem_native@@PAUwin32_find_data_struct@3@@Z  (Idle)
01:0004AE60 ?isEmpty@directory@@SAXPB_W@Z  (Idle)
01:0004B054 ?_dirWithoutBackslash@directory@@SAXPB_WPAPB_W@Z 
01:0004B0B0 ?getDirectoryProperties@directory@@SAXPB_WPAPAU?$__packedList_struct@PAPAUfileAttributeAtom_struct@fileSystem_api@@@@PAAAUgmtTimeValue@core@@22@Z  (Idle)
01:0004B0D8 ?getVolumeProperties@directory@@SAXPB_WPAPAUvolumeType_struct@1@PAAAUfileSize@fileSystem_api@@2PAPB_WPAI@Z  (Idle)
01:0004B130 ?_tryGetLogicalDirectory@directory@@SAXPBUdirectoryID@1@PAPB_W@Z  (Idle)
01:0004B14C ?_getLogicalDirectory@directory@@SAXPBUdirectoryID@1@PAPB_W@Z  (Idle)
01:0004B168 ?_getTemporaryDirectory@directory@@SAXPAPB_W@Z  (Idle)
01:0004B170 ?_tryCreateLogicalDirectory@directory@@SAXPBUdirectoryID@1@PAPB_W@Z  (Idle)
01:0004B18C ?_getFilesInDirectory_nd@directory@@SAXPB_W0PAUboolean_struct@_builtIn@@PAPB_W@Z  (Idle)
01:0004B1B4 ?_getSubDirectories_nd@directory@@SAXPB_W0PAPB_W@Z  (Idle)
01:0004B1D8 ?_getAllSubDirectories_nd@directory@@SAXPB_WPAPB_W@Z  (Idle)
01:0004B244 ?_getFilesInDirectoryAndSub_nd@directory@@SAXPB_W0PAPB_W@Z 
01:0004B2E8 ?_find@directory@@SAXPB_W0IPAUboolean_struct@_builtIn@@PAPB_W@Z 
01:0004B44C ?_dirWithBackslash@directory@@SAXPB_WPAPB_W@Z 
01:0004B4D0 ?isSlash@directory@@SAX_W@Z 
01:0004B4F0 ?findNext@directory@@SAXPBUsearchHandle@fileSystem_native@@PAUwin32_find_data_struct@3@I@Z 
01:0004B5BC ?_findNext_nd@directory@@SAXPBUsearchHandle@fileSystem_native@@PAUwin32_find_data_struct@3@IPAUboolean_struct@_builtIn@@PAPB_W@Z 
01:0004B738 ?_createFullName@directory@@SAXPB_W0PAPB_W@Z 
01:0004B7E4 ?_tryLogicalDirectoryBuff@directory@@SAXPBUdirectoryId@1@PAUboolean_struct@_builtIn@@PB_WPAPB_W@Z  (Idle)
01:0004B990 ?_logicalDirectoryBuff@directory@@SAXPBUdirectoryId@1@PAUboolean_struct@_builtIn@@PB_WPAPB_W@Z  (Idle)
01:0004BBB8 ?_tryLogicalDirectory@directory@@SAXPBUdirectoryId@1@PAUboolean_struct@_builtIn@@PAPB_W@Z 
01:0004BBF0 ?_logicalDirectory@directory@@SAXPBUdirectoryId@1@PAUboolean_struct@_builtIn@@PAPB_W@Z 
01:0004BC28 ?_addNeedCreateIfNecessary@directory@@SAXPBUdirectoryId@1@PAUboolean_struct@_builtIn@@AAU21@@Z 
01:0004BC54 ?_convertToVolumeType@directory@@SAXHPAPAUvolumeType_struct@1@@Z 
01:0004BCBC ?copyDirectory@directory@@SAXPB_W0PAUboolean_struct@_builtIn@@@Z  (Idle)
01:0004BD10 ?copyDir@directory@@SAXPB_W0PAUboolean_struct@_builtIn@@@Z 
01:0004BE3C ?forAllFiles@directory@@SAXPB_WPA$?predicate$1@core@@SAXPB_W@Z$@Z  (Idle)
01:0004BE5C ?_forallfiles/4np$1@directory@@SAXPB_W0PAPB_W@Z 
01:0004BE78 ?forAllFiles@directory@@SAXPB_WPA$?predicate$1@core@@SAXPB_W@Z$0PAUboolean_struct@_builtIn@@@Z 
01:0004C288 outputStream_file?_initObject@@@QAGXQAV1@H@Z 
01:0004C2C0 ?@create_object@outputStream_file@@SGQAV1@@XZ 
01:0004C2DC outputStream_file?_InternalFinalizer@@@QAGXQAV1@@Z 
01:0004C33C messageFile?_initObject@@@QAGXQAV1@H@Z 
01:0004C360 ?@create_object@messageFile@@SGQAV1@@XZ 
01:0004C37C messageFile?_InternalFinalizer@@@QAGXQAV1@@Z 
01:0004C680 inputStream_file?_initObject@@@QAGXQAV1@H@Z 
01:0004C6AC ?@create_object@inputStream_file@@SGQAV1@@XZ 
01:0004C6C8 inputStream_file?_InternalFinalizer@@@QAGXQAV1@@Z 
--- From 'obj\outputStreamSupport.6F229CFB.obj'
01:0004C6E0 ?format_exceptionHandler_explicit@string_exception@@SAXPAUprogramPoint_struct@core@@PBUtraceId@5@PB_W@Z 
--- From 'obj\string.19AABD3B.obj'
01:0004C7C4 ?raise_emptyString_explicit@string_exception@@SAXPAUprogramPoint_struct@core@@@Z  (Idle)
01:0004C7E0 ?raise_outOfBoundaries_explicit@string_exception@@SAXPAUprogramPoint_struct@core@@PBUcharCount@3@1@Z 
01:0004C8A8 ?raise_oddOffset_explicit@string_exception@@SAXPAUprogramPoint_struct@core@@PBUbyteCount@3@@Z 
01:0004C91C ?_hash@string@@SAXPB_WPAI@Z 
01:0004C934 ?_create@string@@SAXPBUcharCount@core@@PB_WPAPB_W@Z 
--- From 'obj\time.6AFD2988.obj'
01:0004C96C ?_length@string@@SAXPB_WAAUcharCount@core@@@Z 
--- From 'obj\string.19AABD3B.obj'
01:0004C984 ?_tryCreate@string@@SAXPBUcharCount@core@@PB_WPAPB_W@Z  (Idle)
--- From 'obj\Shell_api.E8D4E14B.obj'
01:0004C9E0 ?_createCopy@string@@SAXPB_WPAPB_W@Z 
--- From 'obj\string.19AABD3B.obj'
01:0004CA58 ?_copyFromBuffer@string@@SAXPAXPBUbyteCount@core@@PAPB_W@Z 
01:0004CAC0 ?hasSuffix@string@@SAXPB_W0PAPB_W@Z  (Idle)
01:0004CB20 ?hasSuffix@string@@SAXPB_W0@Z  (Idle)
01:0004CB78 ?hasPrefix@string@@SAXPB_W0PAPB_W@Z 
01:0004CBA0 ?_hasPrefixPtr@string@@SAXPAUpChar_struct@memory@@0PAPAU23@@Z 
01:0004CC10 ?hasPrefixIgnoreCase@string@@SAXPB_W0PAPB_W@Z  (Idle)
01:0004CC28 ?hasPrefixIgnoreCase@string@@SAXPB_W0PAPB_WPBUlcId@locale_native@@@Z 
01:0004CC70 ?hasPrefixCaseNeutral@string@@SAXPB_W0PAPB_W@Z  (Idle)
--- From 'obj\time.6AFD2988.obj'
01:0004CC84 ?_concat@string@@SAXPB_W0PAPB_W@Z 
--- From 'obj\string.19AABD3B.obj'
01:0004CCF0 ?_concat@string@@SAXPB_W00PAPB_W@Z 
01:0004CD88 ?_concat@string@@SAXPB_W000PAPB_W@Z  (Idle)
01:0004CDB0 ?_concat@string@@SAXPB_W0000PAPB_W@Z  (Idle)
01:0004CDD0 ?_concat@string@@SAXPB_W00000PAPB_W@Z 
01:0004CF0C ?_concatList@string@@SAXPAU?$__packedList_struct@PB_W@@PAPB_W@Z 
01:0004CF9C ?_concatWithDelimiter@string@@SAXPAU?$__packedList_struct@PB_W@@0PAPB_W@Z 
01:0004D078 ?streamWithDelimiter@string@@SAXQAVoutputStream@@@PAU?$__packedList_struct@PB_W@@1@Z  (Idle)
01:0004D160 ?concatListWithDelimiter_inner@string@@SAXPAXPAU?$__packedList_struct@PB_W@@PAXPBUbyteCount@core@@PAU?$__packedList_struct@PBUcharCount@3@@@@Z 
01:0004D1FC ?_copyDelimiterIfNeeded@string@@SAXPAXPAU?$__packedList_struct@PB_W@@PAXPBUbyteCount@core@@PAPAX@Z 
01:0004D230 ?getStringListInfo@string@@SAXPAU?$__packedList_struct@PB_W@@PBUpositive@core@@1AAU23@3PAPAU?$__packedList_struct@AAUcharCount@3@@@@Z 
01:0004D2CC ?concatStringList@string@@SAXPAXPAU?$__packedList_struct@PB_W@@PAU?$__packedList_struct@PBUcharCount@core@@@@@Z 
01:0004D37C ?equalCaseNeutral@string@@SAXPB_W0@Z 
01:0004D394 ?_compareCaseNeutral@string@@SAXPB_W0PAPAUcompareResult_struct@_builtIn@@@Z 
01:0004D3B0 ?equalIgnoreCase@string@@SAXPB_W0@Z  (Idle)
--- From 'obj\time.6AFD2988.obj'
01:0004D3DC ?equalIgnoreCase@string@@SAXPB_W0PBUlcId@locale_native@@@Z 
--- From 'obj\string.19AABD3B.obj'
01:0004D40C ?_compareIgnoreCase@string@@SAXPB_W0PAPAUcompareResult_struct@_builtIn@@@Z 
01:0004D430 ?_compareIgnoreCase@string@@SAXPB_W0PBUlcId@locale_native@@PAPAUcompareResult_struct@_builtIn@@@Z 
01:0004D44C ?_compareString@string@@SAXPB_W0PAPAUcompareResult_struct@_builtIn@@@Z  (Idle)
01:0004D474 ?_compareString@string@@SAXPB_W0PBUlcId@locale_native@@IPAPAUcompareResult_struct@_builtIn@@@Z 
01:0004D590 ?_adjustRight@string@@SAXPB_WPBUcharCount@core@@0PAUadjustBehaviour_struct@1@PAPB_W@Z  (Idle)
01:0004D600 ?_adjust@string@@SAXPB_WPBUcharCount@core@@PAUadjustSide_struct@1@PAPB_W@Z  (Idle)
01:0004D64C ?_adjust@string@@SAXPB_WPBUcharCount@core@@0PAUadjustSide_struct@1@PAPB_W@Z  (Idle)
01:0004D678 ?_adjust@string@@SAXPB_WPBUcharCount@core@@0PAUadjustBehaviour_struct@1@PAUadjustSide_struct@1@PAPB_W@Z  (Idle)
01:0004D6A0 ?_crop@string@@SAXPB_WPBUcharCount@core@@PAUadjustSide_struct@1@PAUadjustBehaviour_struct@1@PAPB_W@Z 
01:0004D72C ?_adjustLeft@string@@SAXPB_WPBUcharCount@core@@0PAUadjustBehaviour_struct@1@PAPB_W@Z 
01:0004D78C ?_split@string@@SAXPB_W0PAPAU?$__packedList_struct@PAPB_W@@@Z  (Idle)
01:0004D830 ?trySplitAt@string@@SAXPB_W0PAUcaseSensitivity_struct@1@PAPB_W3@Z  (Idle)
01:0004D888 ?trySplitAt@string@@SAXPB_W0PAPB_W2@Z 
--- From 'obj\time.6AFD2988.obj'
01:0004D8B0 ?format@string@@SAPB_W0@Z 
01:0004D904 ?write@string@@SAPB_WXZ 
--- From 'obj\exceptionDump.2B9C9E40.obj'
01:0004D91C ?present@string@@SAPB_WXZ 
--- From 'obj\string.19AABD3B.obj'
01:0004D964 ?_rear@string@@SAXPB_WPBUcharCount@core@@PAPB_W@Z  (Idle)
--- From 'obj\exceptionDump.2B9C9E40.obj'
01:0004D9B8 ?_fromPosition@string@@SAXPB_WPBUcharCount@core@@PAPB_W@Z 
--- From 'obj\string.19AABD3B.obj'
01:0004D9EC ?_tryFromPosition@string@@SAXPB_WPBUcharCount@core@@PAPB_W@Z  (Idle)
01:0004DA18 ?front_wc@string@@SAXPB_WPBUcharCount@core@@PAPB_W2@Z 
--- From 'obj\exceptionDump.2B9C9E40.obj'
01:0004DA4C ?front@string@@SAXPB_WPBUcharCount@core@@PAPB_W2@Z 
--- From 'obj\string.19AABD3B.obj'
01:0004DA94 ?tryFront@string@@SAXPB_WPBUcharCount@core@@PAPB_W2@Z 
01:0004DAD4 ?checkPosition@string@@SAXPBUcharCount@core@@PB_W@Z 
01:0004DB30 ?_frontChar@string@@SAXPB_WPA_W@Z 
01:0004DB44 ?_tryFrontChar@string@@SAXPB_WPA_W@Z 
01:0004DB68 ?frontChar_wc@string@@SAXPB_WPA_WPAPB_W@Z  (Idle)
01:0004DB88 ?frontChar@string@@SAXPB_WPA_WPAPB_W@Z 
01:0004DBA0 ?_tryLastChar@string@@SAXPB_WPA_W@Z  (Idle)
01:0004DBD8 ?lastChar@string@@SAXPB_WPAPB_WPA_W@Z 
01:0004DC30 ?_lastChar@string@@SAXPB_WPA_W@Z 
01:0004DC6C ?_truncate@string@@SAXPB_WPBUcharCount@core@@PAPB_W@Z  (Idle)
01:0004DCB8 ?_toCharList@string@@SAXPB_WPAPAU?$__packedList_struct@PA_W@@@Z  (Idle)
--- From 'obj\exceptionDump.2B9C9E40.obj'
01:0004DD2C ?frontToken@string@@SAXPB_WPAPB_W1@Z 
--- From 'obj\string.19AABD3B.obj'
01:0004DD54 ?isValidToRead@string@@SAXPB_WPBUcharCount@core@@@Z 
01:0004DD74 ?_replaceFirst@string@@SAXPB_W00PAUcaseSensitivity_struct@1@PAPB_W@Z  (Idle)
--- From 'obj\time.6AFD2988.obj'
01:0004DDB0 ?_replaceAll@string@@SAXPB_W00PAUcaseSensitivity_struct@1@PAIPAPB_W@Z 
--- From 'obj\string.19AABD3B.obj'
01:0004DDE8 ?_caseToInteger@string@@SAXPAUcaseSensitivity_struct@1@PAH@Z 
--- From 'obj\time.6AFD2988.obj'
01:0004DE18 ?_replacePart@string@@SAXPB_WPBUcharCount@core@@10PAPB_W@Z 
--- From 'obj\string.19AABD3B.obj'
01:0004DED8 ?_tryReplacePart@string@@SAXPB_WPBUcharCount@core@@10PAPB_W@Z  (Idle)
--- From 'obj\exceptionDump.2B9C9E40.obj'
01:0004DF90 ?_search@string@@SAXPB_W0PAUcaseSensitivity_struct@1@AAUcharCount@core@@@Z 
--- From 'obj\string.19AABD3B.obj'
01:0004E020 ?_searchLast@string@@SAXPB_W0PAUcaseSensitivity_struct@1@AAUcharCount@core@@@Z  (Idle)
--- From 'obj\time.6AFD2988.obj'
01:0004E0B0 ?_subString@string@@SAXPB_WPBUcharCount@core@@1PAPB_W@Z 
--- From 'obj\string.19AABD3B.obj'
01:0004E0FC ?_trySubString@string@@SAXPB_WPBUcharCount@core@@1PAPB_W@Z  (Idle)
01:0004E144 ?_toUpperCase@string@@SAXPB_WPAPB_W@Z 
01:0004E168 ?_toLowerCase@string@@SAXPB_WPAPB_W@Z 
01:0004E18C ?isUpperCase@string@@SAXPB_W@Z  (Idle)
01:0004E1BC ?isLowerCase@string@@SAXPB_W@Z  (Idle)
--- From 'obj\time.6AFD2988.obj'
01:0004E1EC ?hasDecimalDigits@string@@SAXPB_W@Z 
--- From 'obj\string.19AABD3B.obj'
01:0004E208 ?isDecimalDigits@string@@SAXPB_W@Z 
01:0004E24C ?decimalDigit@string@@SAX_W@Z 
01:0004E26C ?hasAlpha@string@@SAXPB_W@Z  (Idle)
01:0004E294 ?isWhiteSpace@string@@SAXPB_W@Z  (Idle)
--- From 'obj\time.6AFD2988.obj'
01:0004E29C ?_split_delimiter@string@@SAXPB_W0PAPAU?$__packedList_struct@PAPB_W@@@Z 
--- From 'obj\string.19AABD3B.obj'
01:0004E2C8 ?_splitByString@string@@SAXPB_W0PBUbyteCount@core@@PAPAU?$__packedList_struct@PAPB_W@@@Z 
01:0004E37C ?_split_length@string@@SAXPB_WPAU?$__packedList_struct@PBUcharCount@core@@@@PAPAU?$__packedList_struct@PAPB_W@@@Z  (Idle)
01:0004E414 ?_trim@string@@SAXPB_WPAPB_W@Z 
01:0004E438 ?_charToString@string@@SAX_WPAPB_W@Z  (Idle)
01:0004E464 ?_charUpper@string@@SAX_WPA_W@Z  (Idle)
01:0004E480 ?_charLower@string@@SAX_WPA_W@Z  (Idle)
01:0004E49C ?splitStringBySeparators@string@@SAXPB_W0PAPB_WPA_W2@Z 
01:0004E500 ?_getMinPosition@string@@SAXPB_W0PBUcharCount@core@@AAU23@@Z 
01:0004E570 ?isName@string@@SAXPB_W@Z  (Idle)
01:0004E5BC ?isLegalFrontCharOfName@string@@SAX_W@Z 
01:0004E5E0 ?isCorrectRemainderOfName@string@@SAXPB_W@Z 
01:0004E624 ?isCorrectRemainderCharOfName@string@@SAX_W@Z 
01:0004E68C ?isClassIdentifier@string@@SAXPB_W0@Z  (Idle)
01:0004E6F0 ?isObjectIdentifier@string@@SAXPB_W0@Z  (Idle)
01:0004E75C ?isCorrectMemberName@string@@SAXPB_W@Z 
01:0004E7F0 ?keywordString@string@@SAXPB_WPAPAUboolean_struct@_builtIn@@@Z 
01:0004F0F4 ?isCorrectClassFrontChar@string@@SAX_W@Z 
01:0004F124 ?_searchChar@string@@SAXPB_W_WPAUcaseSensitivity_struct@1@AAUcharCount@core@@@Z 
01:0004F1A8 ?_subChar@string@@SAXPB_WPBUcharCount@core@@PA_W@Z 
01:0004F1E4 ?_trySubchar@string@@SAXPB_WPBUcharCount@core@@PA_W@Z  (Idle)
01:0004F218 ?_getCharValue@string@@SAX_WAAUunsigned16@core@@@Z 
01:0004F22C ?_getCharFromValue@string@@SAXPBUunsigned16@core@@PA_W@Z 
01:0004F240 ?listToArray@string@@SAXPAU?$__packedList_struct@PB_W@@PAPAXPAI@Z 
01:0004F29C ?_arrayToList@string@@SAXPAXIPAPAU?$__packedList_struct@PAPB_W@@@Z  (Idle)
01:0004F2A4 ?fillArray@string@@SAXPAXPAU?$__packedList_struct@PB_W@@@Z 
01:0004F308 ?_fillList@string@@SAXPBUunsignedNative@_builtIn@@IPAPAU?$__packedList_struct@PAPB_W@@@Z 
01:0004F368 ?_createFromCharList@string@@SAXPAU?$__packedList_struct@_W@@PAPB_W@Z  (Idle)
01:0004F3B0 ?fillString@string@@SAXPAXPAU?$__packedList_struct@_W@@@Z 
01:0004F404 isWhiteSpace_C 
01:0004F438 isWhiteSpace_S 
01:0004F478 ?getMetricPrefix@string@@SAXPANPAPANPAPB_W@Z  (Idle)
01:0004F58C ?_toMetricPrefixForm@string@@SAXPBUpositive@core@@PANPAPB_W@Z  (Idle)
01:0004F640 ?getBinaryPrefix@string@@SAXPANPAPANPAPB_W@Z  (Idle)
01:0004F750 ?_toBinaryPrefixForm@string@@SAXPBUpositive@core@@PANPAPB_W@Z  (Idle)
01:0004F804 ?_subChar_wc@string@@SAXPB_WPBUcharCount@core@@PA_W@Z  (Idle)
01:0004F828 ?_checkSlashes@string@@SAXPB_WPBUcharCount@core@@PAPAUboolean_struct@_builtIn@@@Z  (Idle)
01:0004F890 ?_trySearchEscape@string@@SAXPB_WAAUcharCount@core@@@Z  (Idle)
01:0004F918 ?_getWrapLines@string@@SAXPB_WPBUcharCount@core@@101PAUboolean_struct@_builtIn@@PAPAU?$__packedList_struct@PAPB_W@@@Z  (Idle)
01:0004FD94 ?_wrapString@string@@SAXPB_WPBUcharCount@core@@10PAPAU?$__packedList_struct@PAPB_W@@@Z  (Idle)
01:0004FDB4 ?_replace_crlf2lf@string@@SAXPB_WPAPB_W@Z 
01:0004FDE0 ?_replace_lf2crlf@string@@SAXPB_WPAPB_W@Z 
01:0004FE0C ?isWhiteSpace@string@@SAX_W@Z  (Idle)
01:0004FE14 ?keywordString@string@@SAXPB_WPAUboolean_struct@_builtIn@@@Z  (Idle)
01:000507B8 ?keywordString@string@@SAXPAPB_WPAPAUboolean_struct@_builtIn@@@Z  (Idle)
01:00050EFC ?new$@outputStream_string@@SAXQAV1@@@Z  (Idle)
01:00050F24 ?setMode$@outputStream_string@@SGXQAVstream@@@PAUmode_struct@2@@Z 
01:00050F5C ?_getInputStream$@outputStream_string@@SAXQAVoutputStreamSegmented@@@XPAPAVinputStream@@@@Z 
01:00050F84 ?_getSegmented_utf16$@outputStream_string@@SAXQAV1@@PAPAUsegmented_utf16_struct@segmented@@@Z 
01:00050FB0 ?length@outputStream_string@@SGPBUcharCount@core@@QAV1@@@Z 
01:00050FF4 ?_getString$@outputStream_string@@SAXQAV1@@PAPB_W@Z 
01:0005101C ?_getString@outputStream_string@@SAXPA$?predicate$1@core@@SAXQAVoutputStream@@@@Z$PAPB_W@Z 
01:00051044 ?getstring/2nf$1@outputStream_string@@SAXPAUgetstring/2nf$1_struct@1@QAVoutputStream@@@@Z 
--- From 'obj\exceptionDump.2B9C9E40.obj'
01:0005108C ?_getString@outputStream_string@@SAXQAVrTypeLibrary@TypeLibraries@RunTime@VIP@@PA$?predicate$2@core@@SAXQAVoutputStream@@@X@Z$XPAPB_W@Z 
--- From 'obj\string.19AABD3B.obj'
01:000510E0 ?getstring/3nf$1@outputStream_string@@SAXPAUgetstring/3nf$1_struct@1@QAVoutputStream@@@@Z 
--- From 'obj\time.6AFD2988.obj'
01:00051144 ?_getString@outputStream_string@@SAXQAVrTypeLibrary@TypeLibraries@RunTime@VIP@@0PA$?predicate$3@core@@SAXQAVoutputStream@@@XX@Z$XXPAPB_W@Z 
--- From 'obj\string.19AABD3B.obj'
01:000511A4 ?getstring/4nf$1@outputStream_string@@SAXPAUgetstring/4nf$1_struct@1@QAVoutputStream@@@@Z 
01:00051220 ?_getString@outputStream_string@@SAXQAVrTypeLibrary@TypeLibraries@RunTime@VIP@@00PA$?predicate$4@core@@SAXQAVoutputStream@@@XXX@Z$XXXPAPB_W@Z  (Idle)
01:0005128C ?getstring/5nf$1@outputStream_string@@SAXPAUgetstring/5nf$1_struct@1@QAVoutputStream@@@@Z 
--- From 'obj\time.6AFD2988.obj'
01:00051328 ?_getString@outputStream_string@@SAXQAVrTypeLibrary@TypeLibraries@RunTime@VIP@@000PA$?predicate$5@core@@SAXQAVoutputStream@@@XXXX@Z$XXXXPAPB_W@Z 
--- From 'obj\exceptionDump.2B9C9E40.obj'
01:000513A0 ?_getStringAllowNull@outputStream_string@@SAXPA$?predicate$1@core@@SAXQAVoutputStream@@@@Z$PAPB_W@Z 
--- From 'obj\string.19AABD3B.obj'
01:000513C8 ?getstringallownull/2nf$1@outputStream_string@@SAXPAUgetstringallownull/2nf$1_struct@1@QAVoutputStream@@@@Z 
--- From 'obj\outputStreamSupport.6F229CFB.obj'
01:00051410 ?_getStringAllowNull@outputStream_string@@SAXQAVrTypeLibrary@TypeLibraries@RunTime@VIP@@PA$?predicate$2@core@@SAXQAVoutputStream@@@X@Z$XPAPB_W@Z 
--- From 'obj\string.19AABD3B.obj'
01:00051464 ?getstringallownull/3nf$1@outputStream_string@@SAXPAUgetstringallownull/3nf$1_struct@1@QAVoutputStream@@@@Z 
01:000514C8 ?_getStringAllowNull@outputStream_string@@SAXQAVrTypeLibrary@TypeLibraries@RunTime@VIP@@0PA$?predicate$3@core@@SAXQAVoutputStream@@@XX@Z$XXPAPB_W@Z  (Idle)
01:00051528 ?getstringallownull/4nf$1@outputStream_string@@SAXPAUgetstringallownull/4nf$1_struct@1@QAVoutputStream@@@@Z 
01:000515A4 ?_getStringAllowNull@outputStream_string@@SAXQAVrTypeLibrary@TypeLibraries@RunTime@VIP@@00PA$?predicate$4@core@@SAXQAVoutputStream@@@XXX@Z$XXXPAPB_W@Z  (Idle)
01:00051610 ?getstringallownull/5nf$1@outputStream_string@@SAXPAUgetstringallownull/5nf$1_struct@1@QAVoutputStream@@@@Z 
01:000516AC ?_getStringAllowNull@outputStream_string@@SAXQAVrTypeLibrary@TypeLibraries@RunTime@VIP@@000PA$?predicate$5@core@@SAXQAVoutputStream@@@XXXX@Z$XXXXPAPB_W@Z  (Idle)
01:00051724 ?_getString2@outputStream_string@@SAXPAUboolean_struct@_builtIn@@PA$?predicate$1@core@@SAXQAVoutputStream@@@@Z$PAPB_W@Z 
--- From 'obj\time.6AFD2988.obj'
01:000517F8 ?_new@outputStream_string@@SAXPAPAV1@@@Z 
--- From 'obj\string.19AABD3B.obj'
01:00051820 ?new$@inputStream_string@@SAXQAV1@@PB_W@Z  (Idle)
01:00051848 ?new_segmented$@inputStream_string@@SAXQAV1@@PAUsegmented_utf16_struct@segmented@@@Z 
01:000518B8 ?setMode$@inputStream_string@@SGXQAVstream@@@PAUmode_struct@2@@Z 
01:000518F0 ?close$@inputStream_string@@SGXQAVstream@@@@Z 
01:00051900 ?getPosition$@inputStream_string@@SGPBUfileSize@fileSystem_api@@QAVstream@@@@Z 
01:00051958 ?setPosition$@inputStream_string@@SGXQAVstream@@@PBUfileSize@fileSystem_api@@@Z 
01:00051A1C ?getBuffer$@inputStream_string@@SGXQAVbufferSupport@@@PAPAXAAUbyteCount@core@@@Z 
01:00051A38 ?getBufferLocked$@inputStream_string@@SGXQAVbufferSupport@@@PAPAXAAUbyteCount@core@@@Z 
01:00051AC8 ?getCRLFconversion$@inputStream_string@@SGPAUboolean_struct@_builtIn@@QAVstream@@@@Z 
01:00051AD0 ?setCRLFconversion$@inputStream_string@@SGXQAVstream@@@PAUboolean_struct@_builtIn@@@Z 
01:00051AF8 ?_new@inputStream_string@@SAXPB_WPAPAVinputStream@@@@Z  (Idle)
01:00051B20 ?_new_segmented@inputStream_string@@SAXPAUsegmented_utf16_struct@3@PAPAVinputStream@@@@Z 
01:00051B48 ?_object_facts_initializer$@inputStream_string@@SGXQAV1@@@Z 
01:00051FE0 outputStream_string?_initObject@@@QAGXQAV1@H@Z 
01:00052010 ?@create_object@outputStream_string@@SGQAV1@@XZ 
01:0005202C outputStream_string?_InternalFinalizer@@@QAGXQAV1@@Z 
01:000522D8 inputStream_string?_initObject@@@QAGXQAV1@H@Z 
01:00052310 ?@create_object@inputStream_string@@SGQAV1@@XZ 
01:0005232C inputStream_string?_InternalFinalizer@@@QAGXQAV1@@Z 
--- From 'obj\Shell_api.E8D4E14B.obj'
01:00052340 ?shellOpen@shell_api@@SAXPB_W@Z  (Idle)
01:00052378 ?shellRun@shell_api@@SAXPB_W@Z  (Idle)
01:000523B0 ?shellExecute@shell_api@@SAXPBUhwnd@core@@PB_W111H@Z 
01:00052438 ?shellExecuteEx@shell_api@@SAXPAUshellExecuteInfo_struct@shell_native@@@Z  (Idle)
01:0005247C ?_shellExecuteErrorDescription@shell_api@@SAXIPAPB_W@Z 
01:000525B8 ?_sHCreateStreamOnFileEx@shell_api@@SAXPB_WIPAPAViStream_native@@@@Z  (Idle)
01:000525D8 ?_sHCreateStreamOnFileEx@shell_api@@SAXPB_WIIPAUboolean_struct@_builtIn@@PAPAViStream_native@@@@Z 
01:00052634 ?_commandLineToArgv@shell_api@@SAXPB_WPAPAU?$__packedList_struct@PAPB_W@@@Z 
01:00052710 ?_extractAssociatedIcon@shell_api@@SAXPB_WPAIPAPB_WAAUhIcon@gui_native@@@Z  (Idle)
01:0005277C ?_sHGetKnownFolderPath@shell_api@@SAXPAUnativeGuid_struct@core@@PBUknownFolderFlag@shell_native@@PBUhandle@_builtIn@@PAPB_W@Z  (Idle)
01:0005289C ?_tryGetKnownFolderPath@shell_api@@SAXPAUnativeGuid_struct@core@@PBUknownFolderFlag@shell_native@@PBUhandle@_builtIn@@PAPB_W@Z  (Idle)
--- From '..\..\..\_intermediate\sourceVS\vipInit\Win32\Release\VIPDll.obj'
01:000528E0 _PROLOG_Goal 
--- From 'obj\main.789E136F.obj'
01:000528FC ?pow@main@@SAXHHPAH@Z  (Idle)
01:000529A0 ?pow_int@main@@SAXHHPAH@Z  (Idle)
01:000529CC ?pow_rec@main@@SAXHHHHPAH@Z 
01:00052A20 ?run@main@@SAXXZ 
--- From 'obj\queueM_fact.744E8FC1.obj'
01:00052AF0 ?new$@queueM_fact@@SAXQAV1@@XQAVrTypeLibrary@TypeLibraries@RunTime@VIP@@@Z  (Idle)
01:00052B08 ?new$@queueM_fact@@SAXQAV1@@XQAVrTypeLibrary@TypeLibraries@RunTime@VIP@@PAU?$__packedList_struct@X@@@Z 
01:00052B38 ?contains$@queueM_fact@@SAXQAVcollection@@@XX@Z 
01:00052BC0 ?_getAll_nd_site$@queueM_fact@@SAXQAVcollectionSupportSite@@collectionSupport@@XPAX@Z 
01:00052C28 ?insert_site$@queueM_fact@@SAXQAVmodifiableSupportSite@@collectionSupport@@XX@Z 
01:00052C48 ?insertFirst$@queueM_fact@@SAXQAVqueueM@@@XX@Z 
01:00052C68 ?remove_site$@queueM_fact@@SAXQAVmodifiableSupportSite@@collectionSupport@@XX@Z 
01:00052D04 ?clear$@queueM_fact@@SAXQAVmodifiable@@@X@Z 
01:00052D54 ?_tryRemoveFirst$@queueM_fact@@SAXQAVmodifiable@@@XPAX@Z 
01:00052DF0 ?_new@queueM_fact@@SAXQAVrTypeLibrary@TypeLibraries@RunTime@VIP@@PAPAVqueueM@@@PAX@Z 
01:00052E1C ?_new@queueM_fact@@SAXQAVrTypeLibrary@TypeLibraries@RunTime@VIP@@PAU?$__packedList_struct@X@@PAPAVqueueM@@@PAX@Z  (Idle)
01:00052E4C ?_object_typelib_initializer$@queueM_fact@@SGXQAV1@@XQAVrTypeLibrary@TypeLibraries@RunTime@VIP@@@Z 
01:00053178 queueM_fact{@Type}?_initObject@@@QAGXQAV1@H@Z 
01:000531B8 ?@create_object@queueM_fact@@SGQAV1@@XQAVrTypeLibrary@TypeLibraries@RunTime@VIP@@@Z 
01:000531DC queueM_fact{@Type}?_InternalFinalizer@@@QAGXQAV1@@Z 
--- From 'obj\exceptionHandling.2B4136FF.obj'
01:000531F0 ?checkStdErrors@comExceptionCheck@@SAXPBUhResult@core@@PAPAUexception_struct@3@@Z  (Idle)
--- From 'obj\safeArray_api.9604C1AC.obj'
01:00055000 ?check2_explicit@comExceptionCheck@@SAXPAUprogramPoint_struct@core@@PBUhResult@3@@Z 
--- From 'obj\exceptionHandling.2B4136FF.obj'
01:00055018 ?check2_explicit@comExceptionCheck@@SAXPAUprogramPoint_struct@core@@PBUhResult@3@PAUnativeGuid_struct@3@QAViUnknown@@@PAU?$__packedList_struct@PAUnamedValue_struct@3@PAUvalue_struct@3@@@@Z  (Idle)
--- From 'obj\safeArray_api.9604C1AC.obj'
01:0005505C ?check2_explicit@comExceptionCheck@@SAXPAUprogramPoint_struct@core@@PBUhResult@3@PAU?$__packedList_struct@PAUnamedValue_struct@3@PAUvalue_struct@3@@@@Z 
--- From 'obj\exceptionHandling.2B4136FF.obj'
01:00055084 ?isOkCheck_explicit@comExceptionCheck@@SAXPAUprogramPoint_struct@core@@PBUhResult@3@@Z  (Idle)
01:000550A0 ?isOkCheck_explicit@comExceptionCheck@@SAXPAUprogramPoint_struct@core@@PBUhResult@3@PAUnativeGuid_struct@3@QAViUnknown@@@PAU?$__packedList_struct@PAUnamedValue_struct@3@PAUvalue_struct@3@@@@Z  (Idle)
01:000550BC ?raiseException@comExceptionCheck@@SAXPAUprogramPoint_struct@core@@PBUhResult@3@PAU?$__packedList_struct@PAUnamedValue_struct@3@PAUvalue_struct@3@@@@Z 
01:00055240 ?_checkFacilityWin32@comExceptionCheck@@SAXPBUhResult@core@@PAPB_W@Z 
01:0005526C ?_getExtraInfo@comExceptionCheck@@SAXPAUnativeGuid_struct@core@@QAViUnknown@@@PAU?$__packedList_struct@PAUnamedValue_struct@3@PAUvalue_struct@3@@@PAPAU?$__packedList_struct@PAPAU53@PAPAU73@@@@Z 
01:0005552C ?raiseSpecificException@comExceptionCheck@@SAXPAUprogramPoint_struct@core@@PAUexception_struct@3@PBUhResult@3@PAU?$__packedList_struct@PAUnamedValue_struct@3@PAUvalue_struct@3@@@@Z 
01:0005561C ?registerHresult@comExceptionCheck@@SAXPBUhResult@core@@PAUexception_struct@3@@Z  (Idle)
01:000556C8 ?unregisterHresult@comExceptionCheck@@SAXPBUhResult@core@@@Z  (Idle)
01:00055740 ?_getExceptionPredicateByHresult@comExceptionCheck@@SAXPBUhResult@core@@PAPAUexception_struct@3@@Z  (Idle)
01:000557FC ?_getHresultByExceptionPredicate@comExceptionCheck@@SAXPAUexception_struct@core@@AAUhResult@3@@Z  (Idle)
01:000558E4 ?_tryGetHresultByExceptionDescriptor@comExceptionCheck@@SAXPAUexception_struct@core@@AAUhResult@3@@Z  (Idle)
01:000559CC ?_hresultMerge@comExceptionCheck@@SAXPAUboolean_struct@_builtIn@@PBUunsigned16@core@@1AAUhResult@5@@Z  (Idle)
01:00055A54 ?hresultSplit@comExceptionCheck@@SAXPBUhResult@core@@PAPAUboolean_struct@_builtIn@@AAUunsigned16@3@2@Z  (Idle)
01:00055B24 ?_processTraceID@comExceptionCheck@@SAXQAVsupportErrorInfoManager@@@PAUnativeGuid_struct@core@@PBUtraceId@exception@@AAUhResult@4@@Z  (Idle)
01:00055B54 ?_processTraceID@comExceptionCheck@@SAXQAVsupportErrorInfoManager@@@PAUnativeGuid_struct@core@@PAUprogId_struct@comDomains@@PBUtraceId@exception@@AAUhResult@4@@Z 
01:00055BDC ?_processTraceIDtrapped@comExceptionCheck@@SAXQAVsupportErrorInfoManager@@@PAUnativeGuid_struct@core@@PAUprogId_struct@comDomains@@PBUtraceId@exception@@AAUhResult@4@@Z 
01:00055C84 ?setExportExceptionHandler@comExceptionCheck@@SAXX@Z  (Idle)
01:00055C94 ?_getHresultByTraceID@comExceptionCheck@@SAXPBUtraceId@exception@@AAUhResult@core@@@Z 
01:00055CF4 ?dumpAndClearTraceID@comExceptionCheck@@SAXPBUtraceId@exception@@@Z  (Idle)
01:00055D40 ?checkStdErrors@comExceptionCheck@@SAXAAUhResult@core@@PAUexception_struct@3@@Z 
01:0005AC0C ?registerErrorInfo@comErrorInfo@@SAXPB_WPAUnativeGuid_struct@core@@I0PAUprogId_struct@comDomains@@@Z 
01:0005B050 ?setSourceIfnonEmpty@comErrorInfo@@SAXQAViCreateErrorInfo_native@@@PAUprogId_struct@comDomains@@@Z 
01:0005B138 ?readErrorInfo@comErrorInfo@@SAXPAPB_WPAPAUnativeGuid_struct@core@@PAI0PAPAUprogId_struct@comDomains@@@Z 
--- From 'obj\com_api.B45865D0.obj'
01:0005B220 ?variantChangeType@com_api@@SAXPAUcomVariant_struct@comDomains@@PBUvariantType@3@@Z  (Idle)
01:0005B250 ?variantClear@com_api@@SAXPAUcomVariant_struct@comDomains@@@Z  (Idle)
01:0005B280 ?_cLSIDFromProgID@com_api@@SAXPB_WPAPAUnativeGuid_struct@core@@@Z  (Idle)
01:0005B2C0 ?_tryGetActiveObject@com_api@@SAXPAUnativeGuid_struct@core@@PAPAViUnknown@@@@Z  (Idle)
01:0005B2F8 ?_variantTimeToSystemTime@com_api@@SAXPAPBUoleDate@comDomains@@PAPAUsystemTime_struct@time_native@@@Z  (Idle)
01:0005B364 ?_systemTimeToVariantTime@com_api@@SAXPAUsystemTime_struct@time_native@@PAAAUoleDate@comDomains@@@Z  (Idle)
--- From 'obj\iStream_api.935D2F36.obj'
01:0005B3D0 ?new$@iStream_stream@@SAXQAV1@@PAUkindStream_struct@1@@Z  (Idle)
01:0005B3F0 ?new_inputStream$@iStream_stream@@SAXQAV1@@QAVinputStream@@@@Z  (Idle)
01:0005B414 ?new_outputStream$@iStream_stream@@SAXQAV1@@QAVoutputStream@@@@Z  (Idle)
01:0005B440 ?queryInterface$@iStream_stream@@SGPBUhResult@core@@QAViUnknown@@@PAUnativeGuid_struct@3@PAPAV4@@@Z 
01:0005B62C ?addRef$@iStream_stream@@SGIQAViUnknown@@@@Z 
01:0005B64C ?release$@iStream_stream@@SGIQAViUnknown@@@@Z 
01:0005B68C ?read$@iStream_stream@@SGPBUhResult@core@@QAViSequentialStream_native@@@PAXIPAI@Z 
01:0005B750 ?write$@iStream_stream@@SGPBUhResult@core@@QAViSequentialStream_native@@@PAXIPAI@Z 
01:0005B7F8 ?seek$@iStream_stream@@SGPBUhResult@core@@QAViStream_native@@@_JIPA_K@Z 
01:0005B818 ?setSize$@iStream_stream@@SGPBUhResult@core@@QAViStream_native@@@_K@Z 
01:0005B82C ?copyTo$@iStream_stream@@SGPBUhResult@core@@QAViStream_native@@@0_KPA_K3@Z 
01:0005B858 ?commit$@iStream_stream@@SGPBUhResult@core@@QAViStream_native@@@I@Z 
01:0005B86C ?revert$@iStream_stream@@SGPBUhResult@core@@QAViStream_native@@@@Z 
01:0005B874 ?lockRegion$@iStream_stream@@SGPBUhResult@core@@QAViStream_native@@@_K_KI@Z 
01:0005B888 ?unlockRegion$@iStream_stream@@SGPBUhResult@core@@QAViStream_native@@@_K_KI@Z 
01:0005B89C ?stat$@iStream_stream@@SGPBUhResult@core@@QAViStream_native@@@PAUstatStg_struct@comDomains@@I@Z 
01:0005B8B0 ?clone$@iStream_stream@@SGPBUhResult@core@@QAViStream_native@@@PAPAV4@@@Z 
01:0005B8CC ?_new_inputStream@iStream_stream@@SAXQAV2@@PAPAViStream_native@@@@Z  (Idle)
01:0005B8F4 ?_new_outputStream@iStream_stream@@SAXQAV2@@PAPAViStream_native@@@@Z  (Idle)
01:0005B91C ?_object_facts_initializer$@iStream_stream@@SGXQAV1@@@Z 
01:0005B934 ?_createStream_string@iStream_api@@SAXPB_WPAPAViStream_native@@@@Z  (Idle)
01:0005B980 ?_createStream_string8@iStream_api@@SAXPADPAPAViStream_native@@@@Z  (Idle)
01:0005B9A8 ?_createStream@iStream_api@@SAXQAEPAPAViStream_native@@@@Z  (Idle)
01:0005B9CC ?_createStream@iStream_api@@SAXPAXPBUbyteCount@core@@PAPAViStream_native@@@@Z  (Idle)
01:0005BA2C iStream_stream?_initObject@@@QAGXQAV1@H@Z 
01:0005BA64 ?@create_object@iStream_stream@@SGQAV1@@XZ 
01:0005BA80 iStream_stream?_InternalFinalizer@@@QAGXQAV1@@Z 
--- From 'obj\safeArray_api.9604C1AC.obj'
01:0005BA90 ?_convertToBoundsArray@safeArray_api@@SAXPAU?$__packedList_struct@PAUboundary_struct@comDomains@@@@PAPAU23@@Z  (Idle)
01:0005BB3C ?conversion_BoundArray@safeArray_api@@SAXPAXPAU?$__packedList_struct@PAUboundary_struct@comDomains@@@@@Z 
01:0005BC04 ?_checkNotNull_explicit@safeArray_api@@SAXQAVrTypeLibrary@TypeLibraries@RunTime@VIP@@PAUprogramPoint_struct@core@@XPAX@Z  (Idle)
01:0005BC78 ?_safeArrayCreate@safeArray_api@@SAXPBUvariantType@comDomains@@PAU?$__packedList_struct@PAUboundary_struct@3@@@PAPAUnativeSafeArray_struct@3@@Z  (Idle)
01:0005BCF0 ?_safeArrayCreateEx@safeArray_api@@SAXPBUvariantType@comDomains@@PAU?$__packedList_struct@PAUboundary_struct@3@@@PAXPAPAUnativeSafeArray_struct@3@@Z  (Idle)
01:0005BD58 ?safeArrayPutElement@safeArray_api@@SAXPAUnativeSafeArray_struct@comDomains@@PAU?$__packedList_struct@H@@PAX@Z  (Idle)
01:0005BE00 ?safeArrayGetElement@safeArray_api@@SAXPAUnativeSafeArray_struct@comDomains@@PAU?$__packedList_struct@H@@PAX@Z  (Idle)
01:0005BEA8 ?_getIndexArray@safeArray_api@@SAXPAU?$__packedList_struct@H@@PAPAX@Z 
01:0005BF18 ?setIndexInArray@safeArray_api@@SAXPAXPAU?$__packedList_struct@H@@@Z 
01:0005BF60 ?safeArrayDestroy@safeArray_api@@SAXPAUnativeSafeArray_struct@comDomains@@@Z  (Idle)
01:0005BF90 ?safeArrayDestroyData@safeArray_api@@SAXPAUnativeSafeArray_struct@comDomains@@@Z  (Idle)
01:0005BFC0 ?safeArrayDestroyDescriptor@safeArray_api@@SAXPAUnativeSafeArray_struct@comDomains@@@Z  (Idle)
01:0005BFF0 ?_safeArrayGetVarType@safeArray_api@@SAXPAUnativeSafeArray_struct@comDomains@@AAUvariantType@3@@Z  (Idle)
01:0005C018 ?_safeArrayGetDim@safeArray_api@@SAXPAUnativeSafeArray_struct@comDomains@@PAI@Z  (Idle)
01:0005C030 ?_safeArrayGetLBound@safeArray_api@@SAXPAUnativeSafeArray_struct@comDomains@@IPAH@Z  (Idle)
01:0005C05C ?_safeArrayGetUBound@safeArray_api@@SAXPAUnativeSafeArray_struct@comDomains@@IPAH@Z  (Idle)
01:0005C088 ?_safeArrayAccessData@safeArray_api@@SAXPAUnativeSafeArray_struct@comDomains@@PAPAX@Z  (Idle)
01:0005C0B0 ?safeArrayUnaccessData@safeArray_api@@SAXPAUnativeSafeArray_struct@comDomains@@@Z  (Idle)
--- From 'obj\boolean.DE5055E8.obj'
01:0005C0E0 ?_toBooleanInt@boolean@@SAXPAUboolean_struct@_builtIn@@AAUbooleanInt@core@@@Z 
01:0005C104 ?_fromBooleanInt@boolean@@SAXPBUbooleanInt@core@@PAPAUboolean_struct@_builtIn@@@Z 
01:0005C128 ?_logicalNot@boolean@@SAXPAUboolean_struct@_builtIn@@PAPAU23@@Z 
01:0005C13C ?_logicalAnd@boolean@@SAXPAUboolean_struct@_builtIn@@0PAPAU23@@Z 
01:0005C160 ?_logicalOr@boolean@@SAXPAUboolean_struct@_builtIn@@0PAPAU23@@Z 
01:0005C184 ?_logicalXor@boolean@@SAXPAUboolean_struct@_builtIn@@0PAPAU23@@Z 
--- From 'obj\math.5D7D6037.obj'
01:0005C1B0 ?raise_asinOutOfBounds_explicit@math_exception@@SAXPAUprogramPoint_struct@core@@PAN@Z  (Idle)
01:0005C224 ?raise_acoshOutOfBounds_explicit@math_exception@@SAXPAUprogramPoint_struct@core@@PAN@Z  (Idle)
01:0005C298 ?raise_atanhOutOfBounds_explicit@math_exception@@SAXPAUprogramPoint_struct@core@@PAN@Z  (Idle)
01:0005C30C ?raise_acotanhOutOfBounds_explicit@math_exception@@SAXPAUprogramPoint_struct@core@@PAN@Z  (Idle)
01:0005C380 ?raise_cotanhInfinityResult_explicit@math_exception@@SAXPAUprogramPoint_struct@core@@PAN@Z  (Idle)
01:0005C3F4 ?isNaN@math@@SAXPAN@Z  (Idle)
01:0005C468 ?_sign@math@@SAXHPAH@Z  (Idle)
01:0005C488 ?check_asin_nearBounds@math@@SAXPAPBUinCircle@1@@Z  (Idle)
01:0005C4D0 ?_getBoundsForValue@math@@SAXPAPBUinCircle@1@PAPAN@Z  (Idle)
01:0005C504 ?_arcsin@math@@SAXPAPBUinCircle@1@PAPAN@Z  (Idle)
01:0005C6CC ?_sinh@math@@SAXPANPAPAN@Z  (Idle)
01:0005C76C ?_prepareResultForBigValue@math@@SAXPANPAAAUuReal@1@@Z  (Idle)
01:0005C948 ?_arcsinh@math@@SAXPANPAPAN@Z  (Idle)
01:0005C9A0 ?_arccos@math@@SAXPAPBUinCircle@1@PAPAN@Z  (Idle)
01:0005C9E8 ?_cosh@math@@SAXPANPAAAUuReal@1@@Z  (Idle)
01:0005CAB8 ?_prepareResultForValue@math@@SAXPAPBUuReal@1@PAAAU21@@Z  (Idle)
01:0005CC3C ?_arccosh@math@@SAXPAPBUuReal@1@PAPAN@Z  (Idle)
01:0005CCB8 ?_get_tanhBoundsForValue@math@@SAXPANPAAAUinCircle@1@@Z  (Idle)
01:0005CCEC ?_tanh@math@@SAXPANPAAAUinCircle@1@@Z  (Idle)
01:0005CDBC ?_arctanh@math@@SAXPAPBUinCircle@1@PAPAN@Z  (Idle)
01:0005CEB4 ?_cotanh@math@@SAXPANPAPAN@Z  (Idle)
01:0005CF78 ?_arccotanh@math@@SAXPANPAPAN@Z  (Idle)
01:0005D070 ?_sqr@math@@SAXPANPAAAUuReal@1@@Z 
--- From 'obj\time.6AFD2988.obj'
01:0005D0AC ?_round@math@@SAXPANPAH@Z 
--- From 'obj\math.5D7D6037.obj'
01:0005D0F0 ?_roundToUnsigned@math@@SAXPANPAI@Z 
--- From 'obj\time.6AFD2988.obj'
01:0005D134 ?_roundToInteger64@math@@SAXPANPAPA_J@Z 
--- From 'obj\math.5D7D6037.obj'
01:0005D190 ?_roundToUnsigned64@math@@SAXPANPAPA_K@Z  (Idle)
--- From 'obj\time.6AFD2988.obj'
01:0005D1EC ?_trunc@math@@SAXPANPAH@Z 
01:0005D230 ?_fraction@math@@SAXPANPAPAN@Z 
--- From 'obj\math.5D7D6037.obj'
01:0005D284 ?_ceil@math@@SAXPANPAH@Z 
01:0005D2B4 ?_ceilToReal@math@@SAXPANPAPAN@Z 
--- From 'obj\time.6AFD2988.obj'
01:0005D368 ?_floor@math@@SAXPANPAH@Z 
--- From 'obj\math.5D7D6037.obj'
01:0005D3BC ?_floorToReal@math@@SAXPANPAPAN@Z  (Idle)
01:0005D428 ?_max@math@@SAXQAVrTypeLibrary@TypeLibraries@RunTime@VIP@@XXPAX@Z 
01:0005D458 ?_max@math@@SAXQAVrTypeLibrary@TypeLibraries@RunTime@VIP@@XXXPAX@Z  (Idle)
01:0005D484 ?_min@math@@SAXQAVrTypeLibrary@TypeLibraries@RunTime@VIP@@XXPAX@Z 
01:0005D4B4 ?_min@math@@SAXQAVrTypeLibrary@TypeLibraries@RunTime@VIP@@XXXPAX@Z  (Idle)
01:0005D4E0 ?_restrict@math@@SAXQAVrTypeLibrary@TypeLibraries@RunTime@VIP@@XXXPAX@Z  (Idle)
01:0005D518 ?divides_dt@math@@SAXHH@Z  (Idle)
01:0005D554 ?randomInit@math@@SAXI@Z  (Idle)
01:0005D57C ?_random@math@@SAXPAPAN@Z  (Idle)
01:0005D5C8 ?_random@math@@SAXIPAI@Z  (Idle)
01:0005D61C ?_sign@math@@SAXPANPAH@Z  (Idle)
01:0005D64C ?divides_dt@math@@SAXII@Z  (Idle)
01:0005D668 ?_random@math@@SAXPBUpositive@core@@AAU23@@Z  (Idle)
01:0005D6BC ?__lateFactInit$randomstate$0$math@classDB@1@SAXPAPAVrandom@@@@Z 
--- From 'obj\weakReference.0A1AF11C.obj'
01:0005D700 ?new$@weakReference@@SAXQAV1@@XQAVrTypeLibrary@TypeLibraries@RunTime@VIP@@X@Z  (Idle)
01:0005D738 ?_tryDeref$@weakReference@@SAXQAV1@@XPAX@Z 
01:0005D7AC ?doIfExist$@weakReference@@SAXQAV1@@XPA$?predicate$1@core@@SAXX@Z$@Z 
01:0005D828 ?released@weakReference@@SGQAVevent0@@@QAV1@@X@Z 
01:0005D878 ?finalize$@weakReference@@SGXQAV1@@X@Z 
01:0005D8E4 ?_new@weakReference@@SAXQAVrTypeLibrary@TypeLibraries@RunTime@VIP@@XPAPAV1@@PAX@Z 
01:0005D914 ?_object_typelib_initializer$@weakReference@@SGXQAV1@@XQAVrTypeLibrary@TypeLibraries@RunTime@VIP@@@Z 
01:0005D92C ?_object_facts_initializer$@weakReference@@SGXQAV1@@X@Z 
01:0005D94C weakReference{@Type}?_initObject@@@QAGXQAV1@H@Z 
01:0005D980 ?@create_object@weakReference@@SGQAV1@@XQAVrTypeLibrary@TypeLibraries@RunTime@VIP@@@Z 
01:0005D9A4 weakReference{@Type}?_InternalFinalizer@@@QAGXQAV1@@Z 
--- From 'obj\list.A75CEA31.obj'
01:0005DA00 ?_comparelexically/1nf$1@list@@SAXPAUcomparelexically/1nf$1_struct@1@PAU?$__packedList_struct@X@@1PAPAUcompareResult_struct@_builtIn@@@Z 
01:0005DA58 ?_compareLexically@list@@SAXQAVrTypeLibrary@TypeLibraries@RunTime@VIP@@0PA$?_comparator$2@core@@SAXXXPAPAUcompareResult_struct@_builtIn@@@Z$PAPA$?_comparator$2@core@@SAXPAU?$__packedList_struct@X@@0PAPAUcompareResult_struct@_builtIn@@@Z$@Z  (Idle)
01:0005DA98 ?_compareLexically@list@@SAXQAVrTypeLibrary@TypeLibraries@RunTime@VIP@@0PA$?_comparator$2@core@@SAXXXPAPAUcompareResult_struct@_builtIn@@@Z$PAU?$__packedList_struct@X@@3PAPAU23@@Z 
01:0005DB5C ?_length2@list@@SAXQAVrTypeLibrary@TypeLibraries@RunTime@VIP@@PAU?$__packedList_struct@X@@PBUpositive@core@@AAU23@@Z  (Idle)
01:0005DB90 ?_length@list@@SAXQAVrTypeLibrary@TypeLibraries@RunTime@VIP@@PAU?$__packedList_struct@X@@AAUpositive@core@@@Z 
01:0005DBA8 ?isMember@list@@SAXQAVrTypeLibrary@TypeLibraries@RunTime@VIP@@XPAU?$__packedList_struct@X@@@Z  (Idle)
01:0005DC04 ?isMemberEq@list@@SAXQAVrTypeLibrary@TypeLibraries@RunTime@VIP@@0PA$?predicate_dt$2@core@@SAXXX@Z$XPAU?$__packedList_struct@X@@@Z  (Idle)
01:0005DC7C ?isMemberBy@list@@SAXQAVrTypeLibrary@TypeLibraries@RunTime@VIP@@0PA$?_comparator$2@core@@SAXXXPAPAUcompareResult_struct@_builtIn@@@Z$XPAU?$__packedList_struct@X@@@Z  (Idle)
01:0005DCA8 ?comp2eq/1nf$1@list@@SAXPAUcomp2eq/1nf$1_struct@1@XX@Z 
01:0005DCE4 ?_comp2eq@list@@SAXQAVrTypeLibrary@TypeLibraries@RunTime@VIP@@0PA$?_comparator$2@core@@SAXXXPAPAUcompareResult_struct@_builtIn@@@Z$PAPA$?predicate_dt$2@core@@SAXXX@Z$@Z 
01:0005DD24 ?_tryGetMemberBy@list@@SAXQAVrTypeLibrary@TypeLibraries@RunTime@VIP@@00PA$?_comparator$2@core@@SAXXXPAPAUcompareResult_struct@_builtIn@@@Z$XPAU?$__packedList_struct@X@@PAX@Z  (Idle)
01:0005DD4C ?_tryGetMemberEq@list@@SAXQAVrTypeLibrary@TypeLibraries@RunTime@VIP@@00PA$?predicate_dt$2@core@@SAXXX@Z$XPAU?$__packedList_struct@X@@PAX@Z 
01:0005DDD0 ?_getMember_nd@list@@SAXQAVrTypeLibrary@TypeLibraries@RunTime@VIP@@PAU?$__packedList_struct@X@@PAX@Z  (Idle)
01:0005DE28 ?_getMemberIndex_nd@list@@SAXQAVrTypeLibrary@TypeLibraries@RunTime@VIP@@PAU?$__packedList_struct@X@@AAUpositive@core@@PAX@Z  (Idle)
01:0005DE58 ?_getTupleMember_nd@list@@SAXQAVrTypeLibrary@TypeLibraries@RunTime@VIP@@0PAUtuple_struct@core@@PAU?$__packedList_struct@X@@PAU?$__packedList_struct@X@@PAPAU23@PAXPAX@Z  (Idle)
01:0005DE8C ?memberIndexAcc_nd@list@@SAXQAVrTypeLibrary@TypeLibraries@RunTime@VIP@@PAXAAUpositive@core@@PAU?$__packedList_struct@X@@PBU23@@Z 
01:0005DEF8 ?memberIndex_nd@list@@SAXQAVrTypeLibrary@TypeLibraries@RunTime@VIP@@PAXAAUpositive@core@@PAU?$__packedList_struct@X@@@Z 
01:0005DF08 ?_zipHead_nd@list@@SAXQAVrTypeLibrary@TypeLibraries@RunTime@VIP@@0PAU?$__packedList_struct@X@@2PAPAUtuple_struct@core@@PAXPAX@Z  (Idle)
01:0005DFAC ?_zip_nd@list@@SAXQAVrTypeLibrary@TypeLibraries@RunTime@VIP@@0PAU?$__packedList_struct@X@@2PAPAUtuple_struct@core@@PAXPAX@Z 
01:0005E078 ?_zip_nd@list@@SAXQAVrTypeLibrary@TypeLibraries@RunTime@VIP@@00PAU?$__packedList_struct@X@@33PAPAUtuple_struct@core@@PAXPAXPAX@Z  (Idle)
01:0005E1DC ?_zip_nd@list@@SAXQAVrTypeLibrary@TypeLibraries@RunTime@VIP@@000PAU?$__packedList_struct@X@@444PAPAUtuple_struct@core@@PAXPAXPAXPAX@Z  (Idle)
01:0005E470 ?_zip_nd@list@@SAXQAVrTypeLibrary@TypeLibraries@RunTime@VIP@@0000PAU?$__packedList_struct@X@@5555PAPAUtuple_struct@core@@PAXPAXPAXPAXPAX@Z  (Idle)
01:0005E884 ?_zip_nd@list@@SAXQAVrTypeLibrary@TypeLibraries@RunTime@VIP@@00000PAU?$__packedList_struct@X@@66666PAPAUtuple_struct@core@@PAXPAXPAXPAXPAXPAX@Z  (Idle)
01:0005EC1C ?_zip_nd@list@@SAXQAVrTypeLibrary@TypeLibraries@RunTime@VIP@@000000PAU?$__packedList_struct@X@@777777PAPAUtuple_struct@core@@PAXPAXPAXPAXPAXPAXPAX@Z  (Idle)
01:0005F040 ?_zip_nd@list@@SAXQAVrTypeLibrary@TypeLibraries@RunTime@VIP@@0000000PAU?$__packedList_struct@X@@8888888PAPAUtuple_struct@core@@PAXPAXPAXPAXPAXPAXPAXPAX@Z  (Idle)
01:0005F508 ?_zip_nd@list@@SAXQAVrTypeLibrary@TypeLibraries@RunTime@VIP@@00000000PAU?$__packedList_struct@X@@99999999PAPAUtuple_struct@core@@PAXPAXPAXPAXPAXPAXPAXPAXPAX@Z  (Idle)
01:0005FA28 ?_zip_nd@list@@SAXQAVrTypeLibrary@TypeLibraries@RunTime@VIP@@000000000PAU?$__packedList_struct@X@@101010101010101010PAPAUtuple_struct@core@@PAXPAXPAXPAXPAXPAXPAXPAXPAXPAX@Z  (Idle)
01:00060074 ?_zip_nd@list@@SAXQAVrTypeLibrary@TypeLibraries@RunTime@VIP@@0000000000PAU?$__packedList_struct@X@@11111111111111111111PAPAUtuple_struct@core@@PAXPAXPAXPAXPAXPAXPAXPAXPAXPAXPAX@Z  (Idle)
01:00060764 ?_zip_nd@list@@SAXQAVrTypeLibrary@TypeLibraries@RunTime@VIP@@00000000000PAU?$__packedList_struct@X@@1212121212121212121212PAPAUtuple_struct@core@@PAXPAXPAXPAXPAXPAXPAXPAXPAXPAXPAXPAX@Z  (Idle)
01:00060EFC ?_zipWith@list@@SAXQAVrTypeLibrary@TypeLibraries@RunTime@VIP@@00PA$?_function$3@core@@SAXXXPAX@Z$PAU?$__packedList_struct@X@@4PAPAU?$__packedList_struct@PAX@@@Z  (Idle)
01:00060FA8 ?_zip@list@@SAXQAVrTypeLibrary@TypeLibraries@RunTime@VIP@@0PAU?$__packedList_struct@X@@2PAPAU?$__packedList_struct@PAPAUtuple_struct@core@@PAXPAX@@@Z  (Idle)
01:0006100C ?_zip@list@@SAXQAVrTypeLibrary@TypeLibraries@RunTime@VIP@@00PAU?$__packedList_struct@X@@33PAPAU?$__packedList_struct@PAPAUtuple_struct@core@@PAXPAXPAX@@@Z  (Idle)
01:00061078 ?_zip@list@@SAXQAVrTypeLibrary@TypeLibraries@RunTime@VIP@@000PAU?$__packedList_struct@X@@444PAPAU?$__packedList_struct@PAPAUtuple_struct@core@@PAXPAXPAXPAX@@@Z  (Idle)
01:000610E8 ?_zip@list@@SAXQAVrTypeLibrary@TypeLibraries@RunTime@VIP@@0000PAU?$__packedList_struct@X@@5555PAPAU?$__packedList_struct@PAPAUtuple_struct@core@@PAXPAXPAXPAXPAX@@@Z  (Idle)
01:00061160 ?_zip@list@@SAXQAVrTypeLibrary@TypeLibraries@RunTime@VIP@@00000PAU?$__packedList_struct@X@@66666PAPAU?$__packedList_struct@PAPAUtuple_struct@core@@PAXPAXPAXPAXPAXPAX@@@Z  (Idle)
01:000611DC ?_zip@list@@SAXQAVrTypeLibrary@TypeLibraries@RunTime@VIP@@000000PAU?$__packedList_struct@X@@777777PAPAU?$__packedList_struct@PAPAUtuple_struct@core@@PAXPAXPAXPAXPAXPAXPAX@@@Z  (Idle)
01:00061260 ?_zip@list@@SAXQAVrTypeLibrary@TypeLibraries@RunTime@VIP@@0000000PAU?$__packedList_struct@X@@8888888PAPAU?$__packedList_struct@PAPAUtuple_struct@core@@PAXPAXPAXPAXPAXPAXPAXPAX@@@Z  (Idle)
01:000612E8 ?_zip@list@@SAXQAVrTypeLibrary@TypeLibraries@RunTime@VIP@@00000000PAU?$__packedList_struct@X@@99999999PAPAU?$__packedList_struct@PAPAUtuple_struct@core@@PAXPAXPAXPAXPAXPAXPAXPAXPAX@@@Z  (Idle)
01:00061378 ?_zip@list@@SAXQAVrTypeLibrary@TypeLibraries@RunTime@VIP@@000000000PAU?$__packedList_struct@X@@101010101010101010PAPAU?$__packedList_struct@PAPAUtuple_struct@core@@PAXPAXPAXPAXPAXPAXPAXPAXPAXPAX@@@Z  (Idle)
01:0006140C ?_zip@list@@SAXQAVrTypeLibrary@TypeLibraries@RunTime@VIP@@0000000000PAU?$__packedList_struct@X@@11111111111111111111PAPAU?$__packedList_struct@PAPAUtuple_struct@core@@PAXPAXPAXPAXPAXPAXPAXPAXPAXPAXPAX@@@Z  (Idle)
01:000614A8 ?_zip@list@@SAXQAVrTypeLibrary@TypeLibraries@RunTime@VIP@@00000000000PAU?$__packedList_struct@X@@1212121212121212121212PAPAU?$__packedList_struct@PAPAUtuple_struct@core@@PAXPAXPAXPAXPAXPAXPAXPAXPAXPAXPAXPAX@@@Z  (Idle)
01:00061548 ?unzip@list@@SAXQAVrTypeLibrary@TypeLibraries@RunTime@VIP@@0PAU?$__packedList_struct@PAUtuple_struct@core@@XX@@PAPAU?$__packedList_struct@PAX@@3@Z  (Idle)
01:000615F8 ?unzip@list@@SAXQAVrTypeLibrary@TypeLibraries@RunTime@VIP@@00PAU?$__packedList_struct@PAUtuple_struct@core@@XXX@@PAPAU?$__packedList_struct@PAX@@44@Z  (Idle)
01:000616EC ?unzip@list@@SAXQAVrTypeLibrary@TypeLibraries@RunTime@VIP@@000PAU?$__packedList_struct@PAUtuple_struct@core@@XXXX@@PAPAU?$__packedList_struct@PAX@@555@Z  (Idle)
01:00061820 ?unzip@list@@SAXQAVrTypeLibrary@TypeLibraries@RunTime@VIP@@0000PAU?$__packedList_struct@PAUtuple_struct@core@@XXXXX@@PAPAU?$__packedList_struct@PAX@@6666@Z  (Idle)
01:00061998 ?unzip@list@@SAXQAVrTypeLibrary@TypeLibraries@RunTime@VIP@@00000PAU?$__packedList_struct@PAUtuple_struct@core@@XXXXXX@@PAPAU?$__packedList_struct@PAX@@77777@Z  (Idle)
01:00061B54 ?unzip@list@@SAXQAVrTypeLibrary@TypeLibraries@RunTime@VIP@@000000PAU?$__packedList_struct@PAUtuple_struct@core@@XXXXXXX@@PAPAU?$__packedList_struct@PAX@@888888@Z  (Idle)
01:00061D54 ?unzip@list@@SAXQAVrTypeLibrary@TypeLibraries@RunTime@VIP@@0000000PAU?$__packedList_struct@PAUtuple_struct@core@@XXXXXXXX@@PAPAU?$__packedList_struct@PAX@@9999999@Z  (Idle)
01:00061FBC ?unzip@list@@SAXQAVrTypeLibrary@TypeLibraries@RunTime@VIP@@00000000PAU?$__packedList_struct@PAUtuple_struct@core@@XXXXXXXXX@@PAPAU?$__packedList_struct@PAX@@1010101010101010@Z  (Idle)
01:00062284 ?unzip@list@@SAXQAVrTypeLibrary@TypeLibraries@RunTime@VIP@@000000000PAU?$__packedList_struct@PAUtuple_struct@core@@XXXXXXXXXX@@PAPAU?$__packedList_struct@PAX@@111111111111111111@Z  (Idle)
01:000625C0 ?unzip@list@@SAXQAVrTypeLibrary@TypeLibraries@RunTime@VIP@@0000000000PAU?$__packedList_struct@PAUtuple_struct@core@@XXXXXXXXXXX@@PAPAU?$__packedList_struct@PAX@@12121212121212121212@Z  (Idle)
01:00062964 ?unzip@list@@SAXQAVrTypeLibrary@TypeLibraries@RunTime@VIP@@00000000000PAU?$__packedList_struct@PAUtuple_struct@core@@XXXXXXXXXXXX@@PAPAU?$__packedList_struct@PAX@@1313131313131313131313@Z  (Idle)
01:00062D74 ?_sortby/3nf$1@list@@SAXPAUsortby/3nf$1_struct@1@XXPAPAUcompareResult_struct@_builtIn@@@Z 
01:00062DC4 ?_sortBy@list@@SAXQAVrTypeLibrary@TypeLibraries@RunTime@VIP@@0PA$?_comparator$1@core@@SAXXXPAPAUcompareResult_struct@_builtIn@@@Z$PAU?$__packedList_struct@X@@PAUsortOrder_struct@3@PAPAU?$__packedList_struct@PAX@@@Z  (Idle)
01:00062E50 ?_sort/2$1@list@@SAXPAUsort/2$1_struct@1@XXPAPAUcompareResult_struct@_builtIn@@@Z 
01:00062E68 ?_sort@list@@SAXQAVrTypeLibrary@TypeLibraries@RunTime@VIP@@PAU?$__packedList_struct@X@@PAUsortOrder_struct@core@@PAPAU?$__packedList_struct@PAX@@@Z  (Idle)
01:00062EC8 ?_merge@list@@SAXQAVrTypeLibrary@TypeLibraries@RunTime@VIP@@0PA$?_comparator$1@core@@SAXXXPAPAUcompareResult_struct@_builtIn@@@Z$PAU?$__packedList_struct@PAU?$__packedList_struct@X@@@@PAPAU?$__packedList_struct@PAX@@@Z 
01:00062F2C ?mergeL@list@@SAXQAVrTypeLibrary@TypeLibraries@RunTime@VIP@@0PA$?_comparator$1@core@@SAXXXPAPAUcompareResult_struct@_builtIn@@@Z$PAU?$__packedList_struct@PAU?$__packedList_struct@X@@@@PAPAU?$__packedList_struct@PAPAU?$__packedList_struct@PAX@@@@@Z 
01:00062FB8 ?_merge2@list@@SAXQAVrTypeLibrary@TypeLibraries@RunTime@VIP@@0PA$?_comparator$1@core@@SAXXXPAPAUcompareResult_struct@_builtIn@@@Z$PAU?$__packedList_struct@X@@3PAPAU?$__packedList_struct@PAX@@@Z 
01:000630B0 ?_mkRuns@list@@SAXQAVrTypeLibrary@TypeLibraries@RunTime@VIP@@0PA$?_comparator$1@core@@SAXXXPAPAUcompareResult_struct@_builtIn@@@Z$PAU?$__packedList_struct@X@@PAPAU?$__packedList_struct@PAPAU?$__packedList_struct@PAX@@@@@Z 
01:000631E0 ?takeRun@list@@SAXQAVrTypeLibrary@TypeLibraries@RunTime@VIP@@0PA$?_comparator$1@core@@SAXXXPAPAUcompareResult_struct@_builtIn@@@Z$XPAU?$__packedList_struct@X@@PAPAU?$__packedList_struct@PAX@@5@Z 
01:000632D8 ?takeRunDown@list@@SAXQAVrTypeLibrary@TypeLibraries@RunTime@VIP@@0PA$?_comparator$1@core@@SAXXXPAPAUcompareResult_struct@_builtIn@@@Z$XPAU?$__packedList_struct@X@@4PAPAU?$__packedList_struct@PAX@@6@Z 
01:000633BC ?_append@list@@SAXQAVrTypeLibrary@TypeLibraries@RunTime@VIP@@PAU?$__packedList_struct@X@@1PAPAU?$__packedList_struct@PAX@@@Z 
01:000633DC ?_append1@list@@SAXQAVrTypeLibrary@TypeLibraries@RunTime@VIP@@PAU?$__packedList_struct@X@@1PAPAU?$__packedList_struct@PAX@@@Z 
01:0006344C ?_append@list@@SAXQAVrTypeLibrary@TypeLibraries@RunTime@VIP@@PAU?$__packedList_struct@X@@11PAPAU?$__packedList_struct@PAX@@@Z  (Idle)
01:00063480 ?_append@list@@SAXQAVrTypeLibrary@TypeLibraries@RunTime@VIP@@PAU?$__packedList_struct@X@@111PAPAU?$__packedList_struct@PAX@@@Z  (Idle)
01:000634B0 ?_append@list@@SAXQAVrTypeLibrary@TypeLibraries@RunTime@VIP@@PAU?$__packedList_struct@X@@1111PAPAU?$__packedList_struct@PAX@@@Z  (Idle)
01:000634E0 ?_appendList@list@@SAXQAVrTypeLibrary@TypeLibraries@RunTime@VIP@@PAU?$__packedList_struct@PAU?$__packedList_struct@X@@@@PAPAU?$__packedList_struct@PAX@@@Z 
01:00063540 ?_appendList2@list@@SAXQAVrTypeLibrary@TypeLibraries@RunTime@VIP@@PAU?$__packedList_struct@X@@PAU?$__packedList_struct@PAU?$__packedList_struct@X@@@@PAPAU?$__packedList_struct@PAX@@@Z 
01:000635B8 ?_reverse@list@@SAXQAVrTypeLibrary@TypeLibraries@RunTime@VIP@@PAU?$__packedList_struct@X@@PAPAU?$__packedList_struct@PAX@@@Z 
01:00063608 ?_reverse1@list@@SAXQAVrTypeLibrary@TypeLibraries@RunTime@VIP@@PAU?$__packedList_struct@X@@1PAPAU?$__packedList_struct@PAX@@@Z 
01:00063668 ?_remove@list@@SAXQAVrTypeLibrary@TypeLibraries@RunTime@VIP@@PAU?$__packedList_struct@X@@XPAPAU?$__packedList_struct@PAX@@@Z  (Idle)
01:00063724 ?_removeBy@list@@SAXQAVrTypeLibrary@TypeLibraries@RunTime@VIP@@00PA$?_comparator$2@core@@SAXXXPAPAUcompareResult_struct@_builtIn@@@Z$PAU?$__packedList_struct@X@@XPAPAU?$__packedList_struct@PAX@@@Z  (Idle)
01:00063750 ?_removeEq@list@@SAXQAVrTypeLibrary@TypeLibraries@RunTime@VIP@@00PA$?predicate_dt$2@core@@SAXXX@Z$PAU?$__packedList_struct@X@@XPAPAU?$__packedList_struct@PAX@@@Z 
01:00063814 ?_removeAll@list@@SAXQAVrTypeLibrary@TypeLibraries@RunTime@VIP@@PAU?$__packedList_struct@X@@XPAPAU?$__packedList_struct@PAX@@@Z  (Idle)
01:000638DC ?_removeAllBy@list@@SAXQAVrTypeLibrary@TypeLibraries@RunTime@VIP@@00PA$?_comparator$2@core@@SAXXXPAPAUcompareResult_struct@_builtIn@@@Z$PAU?$__packedList_struct@X@@XPAPAU?$__packedList_struct@PAX@@@Z  (Idle)
01:00063908 ?_removeAllEq@list@@SAXQAVrTypeLibrary@TypeLibraries@RunTime@VIP@@00PA$?predicate_dt$2@core@@SAXXX@Z$PAU?$__packedList_struct@X@@XPAPAU?$__packedList_struct@PAX@@@Z 
01:000639D4 ?_removeDuplicates@list@@SAXQAVrTypeLibrary@TypeLibraries@RunTime@VIP@@PAU?$__packedList_struct@X@@PAPAU?$__packedList_struct@PAX@@@Z  (Idle)
01:00063A1C ?_removeDuplicatesBy@list@@SAXQAVrTypeLibrary@TypeLibraries@RunTime@VIP@@0PA$?_comparator$1@core@@SAXXXPAPAUcompareResult_struct@_builtIn@@@Z$PAU?$__packedList_struct@X@@PAPAU?$__packedList_struct@PAX@@@Z  (Idle)
01:00063A68 ?_removeDuplicates1@list@@SAXQAVrTypeLibrary@TypeLibraries@RunTime@VIP@@0PAU?$__packedList_struct@X@@QAVsetM@@@XPAPAU?$__packedList_struct@PAX@@@Z 
01:00063B50 ?_removeDuplicatesEq@list@@SAXQAVrTypeLibrary@TypeLibraries@RunTime@VIP@@0PA$?predicate_dt$2@core@@SAXXX@Z$PAU?$__packedList_struct@X@@PAPAU?$__packedList_struct@PAX@@@Z  (Idle)
01:00063C1C ?_removeConsecutiveDuplicates/1$1@list@@SAXPAUremoveConsecutiveDuplicates/1$1_struct@1@XXPAPAUcompareResult_struct@_builtIn@@@Z 
01:00063C34 ?_removeConsecutiveDuplicates@list@@SAXQAVrTypeLibrary@TypeLibraries@RunTime@VIP@@PAU?$__packedList_struct@X@@PAPAU?$__packedList_struct@PAX@@@Z  (Idle)
01:00063C8C ?_removeConsecutiveDuplicatesEq@list@@SAXQAVrTypeLibrary@TypeLibraries@RunTime@VIP@@0PA$?predicate_dt$2@core@@SAXXX@Z$PAU?$__packedList_struct@X@@PAPAU?$__packedList_struct@PAX@@@Z  (Idle)
01:00063D9C ?_removeConsecutiveDuplicatesBy@list@@SAXQAVrTypeLibrary@TypeLibraries@RunTime@VIP@@0PA$?_comparator$1@core@@SAXXXPAPAUcompareResult_struct@_builtIn@@@Z$PAU?$__packedList_struct@X@@PAPAU?$__packedList_struct@PAX@@@Z 
01:00063E9C ?_difference@list@@SAXQAVrTypeLibrary@TypeLibraries@RunTime@VIP@@PAU?$__packedList_struct@X@@1PAPAU?$__packedList_struct@PAX@@@Z  (Idle)
01:00063F6C ?_differenceBy@list@@SAXQAVrTypeLibrary@TypeLibraries@RunTime@VIP@@00PA$?_comparator$2@core@@SAXXXPAPAUcompareResult_struct@_builtIn@@@Z$PAU?$__packedList_struct@X@@4PAPAU?$__packedList_struct@PAX@@@Z  (Idle)
01:00063F98 ?_differenceEq@list@@SAXQAVrTypeLibrary@TypeLibraries@RunTime@VIP@@00PA$?predicate_dt$2@core@@SAXXX@Z$PAU?$__packedList_struct@X@@4PAPAU?$__packedList_struct@PAX@@@Z 
01:00064070 ?_nDuplicates@list@@SAXQAVrTypeLibrary@TypeLibraries@RunTime@VIP@@XPBUpositive@core@@PAPAU?$__packedList_struct@PAX@@@Z  (Idle)
01:000640C0 ?_tryGetIndex@list@@SAXQAVrTypeLibrary@TypeLibraries@RunTime@VIP@@XPAU?$__packedList_struct@X@@AAUpositive@core@@@Z 
01:000640DC ?_tryGetIndex@list@@SAXQAVrTypeLibrary@TypeLibraries@RunTime@VIP@@XPAU?$__packedList_struct@X@@PBUpositive@core@@AAU23@@Z 
01:0006414C ?_tryGetIndexBy@list@@SAXQAVrTypeLibrary@TypeLibraries@RunTime@VIP@@0PA$?_comparator$2@core@@SAXXXPAPAUcompareResult_struct@_builtIn@@@Z$XPAU?$__packedList_struct@X@@AAUpositive@3@@Z  (Idle)
01:0006419C ?_tryGetIndexEq@list@@SAXQAVrTypeLibrary@TypeLibraries@RunTime@VIP@@0PA$?predicate_dt$2@core@@SAXXX@Z$XPAU?$__packedList_struct@X@@AAUpositive@3@@Z  (Idle)
01:000641B8 ?_tryGetIndexEq@list@@SAXQAVrTypeLibrary@TypeLibraries@RunTime@VIP@@0PA$?predicate_dt$2@core@@SAXXX@Z$XPAU?$__packedList_struct@X@@PBUpositive@3@AAU23@@Z 
01:00064248 ?_tryGetLast@list@@SAXQAVrTypeLibrary@TypeLibraries@RunTime@VIP@@PAU?$__packedList_struct@X@@PAX@Z 
01:00064294 ?_nth@list@@SAXQAVrTypeLibrary@TypeLibraries@RunTime@VIP@@PBUpositive@core@@PAU?$__packedList_struct@X@@PAX@Z 
01:0006431C ?_tryGetNth@list@@SAXQAVrTypeLibrary@TypeLibraries@RunTime@VIP@@PBUpositive@core@@PAU?$__packedList_struct@X@@PAX@Z 
01:00064378 ?_tryGetSublist@1@SAXQAVrTypeLibrary@TypeLibraries@RunTime@VIP@@PAU?$__packedList_struct@PBUpositive@core@@@@PAU?$__packedList_struct@X@@PAPAU?$__packedList_struct@PAX@@@Z  (Idle)
01:000643B0 ?_tryGetSublist1@list@@SAXQAVrTypeLibrary@TypeLibraries@RunTime@VIP@@PBUpositive@core@@PAU?$__packedList_struct@PBU23@@@PAU?$__packedList_struct@X@@3PAPAU?$__packedList_struct@PAX@@@Z 
01:00064508 ?_setNth@list@@SAXQAVrTypeLibrary@TypeLibraries@RunTime@VIP@@PBUpositive@core@@PAU?$__packedList_struct@X@@XPAPAU?$__packedList_struct@PAX@@@Z  (Idle)
01:000645F8 ?split@list@@SAXQAVrTypeLibrary@TypeLibraries@RunTime@VIP@@PBUpositive@core@@PAU?$__packedList_struct@X@@PAPAU?$__packedList_struct@PAX@@3@Z  (Idle)
01:00064698 ?_take@list@@SAXQAVrTypeLibrary@TypeLibraries@RunTime@VIP@@PBUpositive@core@@PAU?$__packedList_struct@X@@PAPAU?$__packedList_struct@PAX@@@Z 
01:000646BC ?_takeWhile@list@@SAXQAVrTypeLibrary@TypeLibraries@RunTime@VIP@@0PAU?$__packedList_struct@X@@PA$?predicate_dt$1@core@@SAXX@Z$PAPAU?$__packedList_struct@PAX@@@Z  (Idle)
01:0006476C ?_drop@list@@SAXQAVrTypeLibrary@TypeLibraries@RunTime@VIP@@PBUpositive@core@@PAU?$__packedList_struct@X@@PAPAU?$__packedList_struct@PAX@@@Z  (Idle)
01:000647AC ?splitAfter@list@@SAXQAVrTypeLibrary@TypeLibraries@RunTime@VIP@@0PA$?predicate_dt$1@core@@SAXX@Z$PAU?$__packedList_struct@X@@PAPAU?$__packedList_struct@PAX@@4@Z  (Idle)
01:0006489C ?_splitafter/2nf$1@list@@SAXPAUsplitafter/2nf$1_struct@1@PAU?$__packedList_struct@X@@PAPAUtuple_struct@core@@PAPAU?$__packedList_struct@PAX@@PAPAU?$__packedList_struct@PAX@@@Z 
01:0006491C ?_splitAfter@list@@SAXQAVrTypeLibrary@TypeLibraries@RunTime@VIP@@PA$?predicate_dt$1@core@@SAXX@Z$PAU?$__packedList_struct@X@@PAPAU?$__packedList_struct@PAPAU?$__packedList_struct@PAX@@@@@Z  (Idle)
01:000649A8 ?_maximumBy@list@@SAXQAVrTypeLibrary@TypeLibraries@RunTime@VIP@@0PA$?_comparator$1@core@@SAXXXPAPAUcompareResult_struct@_builtIn@@@Z$PAU?$__packedList_struct@X@@PAX@Z  (Idle)
01:00064A08 ?_maximum/1$1@list@@SAXPAUmaximum/1$1_struct@1@XXPAPAUcompareResult_struct@_builtIn@@@Z 
01:00064A20 ?_maximum@list@@SAXQAVrTypeLibrary@TypeLibraries@RunTime@VIP@@PAU?$__packedList_struct@X@@PAX@Z  (Idle)
01:00064A78 ?_minimumby/2nf$1@list@@SAXPAUminimumby/2nf$1_struct@1@XXPAPAUcompareResult_struct@_builtIn@@@Z 
01:00064AC8 ?_minimumBy@list@@SAXQAVrTypeLibrary@TypeLibraries@RunTime@VIP@@0PA$?_comparator$1@core@@SAXXXPAPAUcompareResult_struct@_builtIn@@@Z$PAU?$__packedList_struct@X@@PAX@Z  (Idle)
01:00064B74 ?_minimum/1$1@list@@SAXPAUminimum/1$1_struct@1@XXPAPAUcompareResult_struct@_builtIn@@@Z 
01:00064B8C ?_minimum@list@@SAXQAVrTypeLibrary@TypeLibraries@RunTime@VIP@@PAU?$__packedList_struct@X@@PAX@Z  (Idle)
01:00064BE4 ?_extremum@list@@SAXQAVrTypeLibrary@TypeLibraries@RunTime@VIP@@0PA$?_comparator$1@core@@SAXXXPAPAUcompareResult_struct@_builtIn@@@Z$XPAU?$__packedList_struct@X@@PAX@Z 
01:00064C64 ?_sum/1nf0$1@list@@SAXHHPAH@Z 
01:00064C78 ?_sum@list@@SAXPAU?$__packedList_struct@H@@PAH@Z  (Idle)
01:00064CB8 ?_union@list@@SAXQAVrTypeLibrary@TypeLibraries@RunTime@VIP@@PAU?$__packedList_struct@X@@1PAPAU?$__packedList_struct@PAX@@@Z  (Idle)
01:00064D88 ?_unionBy@list@@SAXQAVrTypeLibrary@TypeLibraries@RunTime@VIP@@0PA$?_comparator$1@core@@SAXXXPAPAUcompareResult_struct@_builtIn@@@Z$PAU?$__packedList_struct@X@@3PAPAU?$__packedList_struct@PAX@@@Z  (Idle)
01:00064DB4 ?_unionEq@list@@SAXQAVrTypeLibrary@TypeLibraries@RunTime@VIP@@0PA$?predicate_dt$2@core@@SAXXX@Z$PAU?$__packedList_struct@X@@3PAPAU?$__packedList_struct@PAX@@@Z 
01:00064E88 ?_intersection@list@@SAXQAVrTypeLibrary@TypeLibraries@RunTime@VIP@@PAU?$__packedList_struct@X@@1PAPAU?$__packedList_struct@PAX@@@Z  (Idle)
01:00064F40 ?_intersectionBy@list@@SAXQAVrTypeLibrary@TypeLibraries@RunTime@VIP@@0PA$?_comparator$1@core@@SAXXXPAPAUcompareResult_struct@_builtIn@@@Z$PAU?$__packedList_struct@X@@3PAPAU?$__packedList_struct@PAX@@@Z  (Idle)
01:00064F6C ?_intersectionEq@list@@SAXQAVrTypeLibrary@TypeLibraries@RunTime@VIP@@0PA$?predicate_dt$2@core@@SAXXX@Z$PAU?$__packedList_struct@X@@3PAPAU?$__packedList_struct@PAX@@@Z 
01:0006502C ?_filter@list@@SAXQAVrTypeLibrary@TypeLibraries@RunTime@VIP@@0PAU?$__packedList_struct@X@@PA$?predicate_dt$1@core@@SAXX@Z$PAPAU?$__packedList_struct@PAX@@@Z  (Idle)
01:000650A4 ?filter@list@@SAXQAVrTypeLibrary@TypeLibraries@RunTime@VIP@@0PAU?$__packedList_struct@X@@PA$?predicate_dt$1@core@@SAXX@Z$PAPAU?$__packedList_struct@PAX@@4@Z  (Idle)
01:000651AC ?_decompose@list@@SAXQAVrTypeLibrary@TypeLibraries@RunTime@VIP@@00PAU?$__packedList_struct@X@@PA$?_function$2@core@@SAXXPAX@Z$PAPAU?$__packedList_struct@PAPAUtuple_struct@3@PAXPAPAU?$__packedList_struct@PAX@@@@@Z  (Idle)
01:000653D8 ?_identityTransformation@list@@SAXQAVrTypeLibrary@TypeLibraries@RunTime@VIP@@XPAX@Z  (Idle)
01:000653E8 ?_countBy@list@@SAXQAVrTypeLibrary@TypeLibraries@RunTime@VIP@@00PAU?$__packedList_struct@X@@PA$?_function$2@core@@SAXXPAX@Z$PAPAU?$__packedList_struct@PAPAUtuple_struct@3@PAXAAUpositive@3@@@@Z  (Idle)
01:00065534 ?_interleave@list@@SAXQAVrTypeLibrary@TypeLibraries@RunTime@VIP@@PAU?$__packedList_struct@X@@XPAPAU?$__packedList_struct@PAX@@@Z  (Idle)
01:000655EC ?groupbyeq/2nf$1@list@@SAXPAUgroupbyeq/2nf$1_struct@1@X@Z 
01:00065630 ?_groupByEq@list@@SAXQAVrTypeLibrary@TypeLibraries@RunTime@VIP@@0PA$?predicate_dt$2@core@@SAXXX@Z$PAU?$__packedList_struct@X@@PAPAU?$__packedList_struct@PAPAU?$__packedList_struct@PAX@@@@@Z  (Idle)
01:00065704 ?groupbycmp/2nf$1@list@@SAXPAUgroupbycmp/2nf$1_struct@1@XX@Z 
01:00065740 ?_groupByCmp@list@@SAXQAVrTypeLibrary@TypeLibraries@RunTime@VIP@@0PA$?_comparator$1@core@@SAXXXPAPAUcompareResult_struct@_builtIn@@@Z$PAU?$__packedList_struct@X@@PAPAU?$__packedList_struct@PAPAU?$__packedList_struct@PAX@@@@@Z  (Idle)
01:0006578C ?_map@list@@SAXQAVrTypeLibrary@TypeLibraries@RunTime@VIP@@0PAU?$__packedList_struct@X@@PA$?_function$2@core@@SAXXPAX@Z$PAPAU?$__packedList_struct@PAX@@@Z 
01:00065804 ?_filteredMap@list@@SAXQAVrTypeLibrary@TypeLibraries@RunTime@VIP@@0PAU?$__packedList_struct@X@@PA$?_function_dt$2@core@@SAXXPAX@Z$PAPAU?$__packedList_struct@PAX@@@Z  (Idle)
01:00065880 ?_tryMap@list@@SAXQAVrTypeLibrary@TypeLibraries@RunTime@VIP@@0PAU?$__packedList_struct@X@@PA$?_function_dt$2@core@@SAXXPAX@Z$PAPAU?$__packedList_struct@PAX@@@Z  (Idle)
01:000658FC ?_mapacc@list@@SAXQAVrTypeLibrary@TypeLibraries@RunTime@VIP@@00PAU?$__packedList_struct@X@@XPA$?_function$3@core@@SAXXXPAPAUtuple_struct@1@PAXPAX@Z$PAXPAPAU?$__packedList_struct@PAX@@@Z  (Idle)
01:000659C4 ?_fold@list@@SAXQAVrTypeLibrary@TypeLibraries@RunTime@VIP@@0PAU?$__packedList_struct@X@@PA$?_function$3@core@@SAXXXPAX@Z$XPAX@Z  (Idle)
01:000659CC ?_foldl@list@@SAXQAVrTypeLibrary@TypeLibraries@RunTime@VIP@@0PAU?$__packedList_struct@X@@PA$?_function$3@core@@SAXXXPAX@Z$XPAX@Z 
01:00065A34 ?_foldl1@list@@SAXQAVrTypeLibrary@TypeLibraries@RunTime@VIP@@PAU?$__packedList_struct@X@@PA$?_function$3@core@@SAXXXPAX@Z$PAX@Z  (Idle)
01:00065AA4 ?_foldl_dt@list@@SAXQAVrTypeLibrary@TypeLibraries@RunTime@VIP@@0PAU?$__packedList_struct@X@@PA$?_function_dt$3@core@@SAXXXPAX@Z$XPAX@Z  (Idle)
01:00065B0C ?_foldr/3nf$1@list@@SAXPAUfoldr/3nf$1_struct@1@XXPAX@Z 
01:00065B5C ?_foldr@list@@SAXQAVrTypeLibrary@TypeLibraries@RunTime@VIP@@0PAU?$__packedList_struct@X@@PA$?_function$3@core@@SAXXXPAX@Z$XPAX@Z 
01:00065BBC ?_unfold@list@@SAXQAVrTypeLibrary@TypeLibraries@RunTime@VIP@@0XPA$?_function_dt$2@core@@SAXXPAPAUtuple_struct@1@PAXPAX@Z$PAPAU?$__packedList_struct@PAX@@@Z 
01:00065C60 ?forAll@list@@SAXQAVrTypeLibrary@TypeLibraries@RunTime@VIP@@PAU?$__packedList_struct@X@@PA$?predicate$1@core@@SAXX@Z$@Z  (Idle)
01:00065CA4 ?_exists@list@@SAXQAVrTypeLibrary@TypeLibraries@RunTime@VIP@@PAU?$__packedList_struct@X@@PA$?predicate_dt$1@core@@SAXX@Z$PAX@Z  (Idle)
01:00065D24 ?exists@list@@SAXQAVrTypeLibrary@TypeLibraries@RunTime@VIP@@PAU?$__packedList_struct@X@@PA$?predicate_dt$1@core@@SAXX@Z$@Z  (Idle)
01:00065D48 ?all@list@@SAXQAVrTypeLibrary@TypeLibraries@RunTime@VIP@@PAU?$__packedList_struct@X@@PA$?predicate_dt$1@core@@SAXX@Z$@Z  (Idle)
01:00065D9C ?_head@list@@SAXQAVrTypeLibrary@TypeLibraries@RunTime@VIP@@PAU?$__packedList_struct@X@@PAX@Z  (Idle)
01:00065E00 ?_tryHead@list@@SAXQAVrTypeLibrary@TypeLibraries@RunTime@VIP@@PAU?$__packedList_struct@X@@PAX@Z  (Idle)
01:00065E30 ?_tail@list@@SAXQAVrTypeLibrary@TypeLibraries@RunTime@VIP@@PAU?$__packedList_struct@X@@PAPAU?$__packedList_struct@PAX@@@Z  (Idle)
01:00065E84 ?_tryTail@list@@SAXQAVrTypeLibrary@TypeLibraries@RunTime@VIP@@PAU?$__packedList_struct@X@@PAPAU?$__packedList_struct@PAX@@@Z  (Idle)
01:00065EA4 ?exceptionDifferentLength_explicit@list@@SAXPAUprogramPoint_struct@core@@@Z 
01:00065ED8 ?exceptionEmpty_explicit@list@@SAXPAUprogramPoint_struct@core@@@Z 
01:00065F0C ?_sum/1nf1$1@list@@SAXPANPANPAPAN@Z 
01:00065F40 ?_sum@list@@SAXPAU?$__packedList_struct@PAN@@PAPAN@Z  (Idle)
--- From 'obj\time.6AFD2988.obj'
01:00065F90 ?new_UTC$@timeFormatter@@SAXQAV1@@@Z  (Idle)
01:00065FBC ?new_UTC$@timeFormatter@@SAXQAV1@@PBUlcId@locale_native@@@Z  (Idle)
01:00065FF4 ?new$@timeFormatter@@SAXQAV1@@PAUtimeZoneAPI_struct@time_native@@@Z 
01:00066018 ?new$@timeFormatter@@SAXQAV1@@PAUtimeZoneAPI_struct@time_native@@PBUlcId@locale_native@@@Z 
01:00066030 ?_getDefaultLCID@timeFormatter@@SAXPAI@Z 
01:00066078 ?getDateWeekAndTime$@timeFormatter@@SAXQAV1@@QAVgmtTime@@@PAHPAHPAHPAHPAHPAH@Z  (Idle)
01:000660F4 ?getDateAndTime$@timeFormatter@@SAXQAV1@@QAVgmtTime@@@PAHPAHPAHPAHPAH@Z 
01:00066124 ?getDateAndTime$@timeFormatter@@SAXQAV1@@QAVgmtTime@@@PAHPAHPAHPAHPAHPAH@Z 
01:00066164 ?getDateAndTimeDetailed$@timeFormatter@@SAXQAV1@@QAVgmtTime@@@PAHPAHPAHPAHPAHPAPAN@Z 
01:00066204 ?setDateAndTime$@timeFormatter@@SAXQAV1@@QAVgmtTime@@@HHHHHH@Z 
01:00066258 ?setDateAndTimeDetailed$@timeFormatter@@SAXQAV1@@QAVgmtTime@@@HHHHHPAN@Z 
01:0006628C ?getTime$@timeFormatter@@SAXQAV1@@QAVgmtTime@@@PAHPAHPAH@Z 
01:000662C0 ?setTime$@timeFormatter@@SAXQAV1@@QAVgmtTime@@@HHH@Z 
01:00066330 ?_getTime$@timeFormatter@@SAXQAV1@@QAVgmtTime@@@PAAAUlocalTimeValue@core@@@Z 
01:00066338 ?setTime$@timeFormatter@@SAXQAV1@@QAVgmtTime@@@PAPBUlocalTimeValue@core@@@Z 
01:00066340 ?getTimeDetailed$@timeFormatter@@SAXQAV1@@QAVgmtTime@@@PAHPAHPAPAN@Z 
01:00066374 ?setTimeDetailed$@timeFormatter@@SAXQAV1@@QAVgmtTime@@@HHPAN@Z 
01:000663E4 ?getDate$@timeFormatter@@SAXQAV1@@QAVgmtTime@@@PAHPAHPAH@Z 
01:00066418 ?setDate$@timeFormatter@@SAXQAV1@@QAVgmtTime@@@HHH@Z 
01:000664C8 ?isDaylightTime$@timeFormatter@@SAXQAV1@@QAVgmtTime@@@@Z 
01:00066504 ?isLeapYear$@timeFormatter@@SAXQAV1@@QAVgmtTime@@@@Z 
01:00066538 ?_getLocalTime$@timeFormatter@@SAXQAV1@@QAVgmtTime@@@PAAAUlocalTimeValue@core@@@Z 
01:00066570 ?_getLocalTimeAsStruct$@timeFormatter@@SAXQAV1@@QAVgmtTime@@@PAPAUsystemTime_struct@time_native@@@Z  (Idle)
01:0006659C ?setLocalTime$@timeFormatter@@SAXQAV1@@QAVgmtTime@@@PAPBUlocalTimeValue@core@@@Z 
01:000665D8 ?getMonthByDayOfYear@timeFormatter@@SAXIHIPAHPAI@Z  (Idle)
01:00066678 ?weekRule$@timeFormatter@@SGPAUweekRule_struct@1@QAV1@@@Z 
01:000666D0 ?getWeek$@timeFormatter@@SAXQAV1@@QAVgmtTime@@@PAHPAHPAH@Z 
01:00066714 ?getWeek_rule$@timeFormatter@@SAXQAV1@@PAUweekRule_struct@1@QAVgmtTime@@@PAHPAHPAH@Z 
01:0006678C ?getWeek_firstDay$@timeFormatter@@SAXQAV1@@QAVgmtTime@@@PAHPAHPAH@Z 
01:000668EC ?getWeek_firstFullWeek$@timeFormatter@@SAXQAV1@@QAVgmtTime@@@PAHPAHPAH@Z 
01:00066A7C ?getWeek_iso8601$@timeFormatter@@SAXQAV1@@QAVgmtTime@@@PAHPAHPAH@Z 
01:00066C50 ?_localeWeekday$@timeFormatter@@SAXQAV1@@HPAH@Z 
01:00066CBC ?_daysBeforeFirstWeek$@timeFormatter@@SAXQAV1@@HPAH@Z 
01:00066D50 ?daysBeforeFirstWeek_use1JanWeek@timeFormatter@@SAXPAUweekRule_struct@1@H@Z 
01:00066D74 ?setWeek$@timeFormatter@@SAXQAV1@@QAVgmtTime@@@HHH@Z 
01:00066E58 ?_toSimpleString$@timeFormatter@@SAXQAV1@@QAVgmtTime@@@PAPB_W@Z 
01:00066EA8 ?setFromSimpleString$@timeFormatter@@SAXQAV1@@QAVgmtTime@@@PB_W@Z 
01:0006701C ?_formatDateTime$@timeFormatter@@SAXQAV1@@QAVgmtTime@@@PB_W2PAPB_W@Z 
01:00067070 ?_formatLongDate$@timeFormatter@@SAXQAV1@@QAVgmtTime@@@PAPB_W@Z 
01:000670C4 ?_formatShortDate$@timeFormatter@@SAXQAV1@@QAVgmtTime@@@PAPB_W@Z 
01:00067118 ?_formatDate$@timeFormatter@@SAXQAV1@@QAVgmtTime@@@PB_WPAPB_W@Z 
01:0006716C ?_formatTime$@timeFormatter@@SAXQAV1@@QAVgmtTime@@@PAPB_W@Z 
01:000671BC ?_formatTime$@timeFormatter@@SAXQAV1@@QAVgmtTime@@@PB_WPAPB_W@Z 
01:00067220 ?_addFractionsIfPresent@timeFormatter@@SAXPB_WPAUsystemTime_struct@time_native@@PAPB_W@Z 
01:00067288 ?replaceFractionsInStringList@timeFormatter@@SAXQAVoutputStream_string@@@PAU?$__packedList_struct@PB_W@@PBUunsigned16@core@@@Z 
01:00067330 ?performReplacements@timeFormatter@@SAXQAVoutputStream_string@@@PB_W1PBUunsigned16@core@@@Z 
01:000674A8 ?setFromString$@timeFormatter@@SAXQAV1@@QAVgmtTime@@@PB_W@Z 
01:000675E4 ?wrongStringException@timeFormatter@@SAXPBUtraceId@exception@@@Z 
01:00067650 ?setFromString$@timeFormatter@@SAXQAV1@@QAVgmtTime@@@PB_W2@Z 
01:00067AA4 ?getCommentPositionList@timeFormatter@@SAXPB_WHPAPAU?$__packedList_struct@PAPAUdateTimePos_struct@1@@@PAPB_W@Z 
01:00067D10 ?_getNextQuote@timeFormatter@@SAXPB_WPAI@Z 
01:00067D9C ?_checkDoubleQuote@timeFormatter@@SAXPBUcharCount@core@@HPAI@Z 
01:00067DC0 ?_addTemplatePosition@timeFormatter@@SAXPB_WPAU?$__packedList_struct@0@@PAUdateTime_struct@1@PAU?$__packedList_struct@PAUdateTimePos_struct@1@@@PAPAU?$__packedList_struct@PAPAU41@@@@Z 
01:00067E80 ?_addDayTemplatePosition@timeFormatter@@SAXPB_WPAU?$__packedList_struct@PAUdateTimePos_struct@1@@@PAPAU?$__packedList_struct@PAPAU21@@@@Z 
01:00067F70 ?_getOrderedList@timeFormatter@@SAXPAU?$__packedList_struct@PAUdateTimePos_struct@1@@@PAPAU?$__packedList_struct@PAPAU21@@@@Z 
01:0006801C ?_getOrderedListEx@timeFormatter@@SAXPAU?$__packedList_struct@PAUdateTimePos_struct@1@@@PAU21@0PAPAU?$__packedList_struct@PAPAU21@@@@Z 
01:000680C0 ?tryGetValues$@timeFormatter@@SAXQAV1@@PAU?$__packedList_struct@PAUdateTimePos_struct@1@@@PB_WIHHHHHHHPAN2PAUtimeDesignator_struct@1@PAHPAHPAHPAHPAHPAHPAPANPAPB_WPAPAU51@@Z 
01:000681F4 ?tryGetValueForListItem$@timeFormatter@@SAXQAV1@@PAUdateTime_struct@1@PAUtemplateAndPosition_struct@1@PB_WIHHHHHHHPAN3PAUtimeDesignator_struct@1@PAHPAHPAHPAHPAHPAHPAHPAPANPAPB_WPAPAU71@@Z 
01:00068598 ?checkComment@timeFormatter@@SAXPAUtemplateAndPosition_struct@1@PB_WIH@Z 
01:00068668 ?_tryGetYearValue@timeFormatter@@SAXPAUtemplateAndPosition_struct@1@PB_WIHPAH@Z 
01:000686C8 ?_handlingCentury@timeFormatter@@SAXPBUcharCount@core@@HPAH@Z 
01:000686F4 ?_tryGetFractionValue@timeFormatter@@SAXPAUtemplateAndPosition_struct@1@PB_WIHPAPAN@Z 
01:000687D4 ?tryGetValueFromTemplate@timeFormatter@@SAXPAUtemplateAndPosition_struct@1@PB_WIHPAHPAH@Z 
01:00068874 ?tryGetValueForOneCharTemplate@timeFormatter@@SAXPB_WIPBUcharCount@core@@HPAHPAH@Z 
01:00068970 ?_tryGetValue@timeFormatter@@SAXPB_WIPBUcharCount@core@@H2PAH@Z 
01:00068A28 ?tryGetMonthValue$@timeFormatter@@SAXQAV1@@PAUtemplateAndPosition_struct@1@PB_WIHPAHPAH@Z 
01:00068B58 ?tryGetMonthFromString$@timeFormatter@@SAXQAV1@@IPB_WIPBUcharCount@core@@PAHPAI@Z 
01:00068CD4 ?tryGetDayValue$@timeFormatter@@SAXQAV1@@PAUtemplateAndPosition_struct@1@PB_WIHHPAHPAH@Z 
01:00068E8C ?_tryGetDayNameLength$@timeFormatter@@SAXQAV1@@PBUlcType@locale_native@@PB_WIPBUcharCount@core@@PAI@Z 
01:00068F6C ?tryGetTimeMarkerValue$@timeFormatter@@SAXQAV1@@PAUtemplateAndPosition_struct@1@PB_WIHPAPAUtimeDesignator_struct@1@PAH@Z 
01:00069020 ?tryGetTimeMarker$@timeFormatter@@SAXQAV1@@PB_WIPBUcharCount@core@@HPAPAUtimeDesignator_struct@1@PAI@Z 
01:000690E0 ?_checkTimeMarker$@timeFormatter@@SAXQAV1@@PB_WI1PBUcharCount@core@@HPAI@Z 
01:000691D8 ?_convertTo24FormatIfNeeded@timeFormatter@@SAXIPB_WPAUtimeDesignator_struct@1@PAI@Z 
01:00069264 ?_pm_am@timeFormatter@@SAXIPAUtimeDesignator_struct@1@PAI@Z 
01:000692BC ?_getAvailableTimeZones@timeFormatter@@SAXPAPAU?$__packedList_struct@PAPAUtimeZoneAPI_struct@time_native@@@@@Z  (Idle)
01:00069340 ?_getTimeZoneInformation@timeFormatter@@SAXPAPAUtimeZoneAPI_struct@time_native@@@Z  (Idle)
01:00069348 ?_getTimeZoneInformation@timeFormatter@@SAXPB_WPAPAUtimeZoneAPI_struct@time_native@@@Z 
01:00069350 ?_gmtTimeToLocalTime$@timeFormatter@@SAXQAV1@@PAPBUgmtTimeValue@core@@PAAAUlocalTimeValue@4@@Z 
01:00069370 ?_localTimeToGmtTime$@timeFormatter@@SAXQAV1@@PAPBUlocalTimeValue@core@@PAAAUgmtTimeValue@4@@Z 
01:00069390 ?_getTimeZoneOffset$@timeFormatter@@SAXQAV1@@PAPBUgmtTimeValue@core@@PAH@Z 
01:000693BC ?_newFromLocalTime$@timeFormatter@@SAXQAV1@@PAPBUlocalTimeValue@core@@PAPAVtime@@@@Z 
01:000693FC ?_iso8601_date$@timeFormatter@@SAXQAV1@@QAVgmtTime@@@PAUboolean_struct@_builtIn@@PAPB_W@Z 
01:00069460 ?_iso8601_time$@timeFormatter@@SAXQAV1@@QAVgmtTime@@@PAUiso8601_seconds_struct@time@@PAUboolean_struct@_builtIn@@3PAPB_W@Z 
01:000694E8 ?_iso8601_dateTime$@timeFormatter@@SAXQAV1@@QAVgmtTime@@@PAUiso8601_seconds_struct@time@@PAUboolean_struct@_builtIn@@3PAPB_W@Z 
01:00069570 ?iso8601_date_stream$@timeFormatter@@SAXQAV1@@QAVoutputStream@@@QAVgmtTime@@@PAUboolean_struct@_builtIn@@@Z 
01:00069600 ?iso8601_time_stream$@timeFormatter@@SAXQAV1@@QAVoutputStream@@@QAVgmtTime@@@PAUiso8601_seconds_struct@time@@PAUboolean_struct@_builtIn@@4@Z 
01:000696E8 ?iso8601_seconds_stream@timeFormatter@@SAXQAVoutputStream@@@PANPB_WPAUiso8601_seconds_struct@time@@@Z 
01:00069890 ?iso8601_dateTime_stream$@timeFormatter@@SAXQAV1@@QAVoutputStream@@@QAVgmtTime@@@PAUiso8601_seconds_struct@time@@PAUboolean_struct@_builtIn@@4@Z 
01:000698E4 ?iso8601_timezone@timeFormatter@@SAXQAVoutputStream@@@HPB_W@Z 
01:00069A18 ?_new_UTC@timeFormatter@@SAXPAPAV1@@@Z  (Idle)
01:00069A40 ?_new_UTC@timeFormatter@@SAXPBUlcId@locale_native@@PAPAV1@@@Z  (Idle)
01:00069A68 ?_new@timeFormatter@@SAXPAUtimeZoneAPI_struct@time_native@@PAPAV1@@@Z  (Idle)
01:00069A90 ?_new@timeFormatter@@SAXPAUtimeZoneAPI_struct@time_native@@PBUlcId@locale_native@@PAPAV1@@@Z  (Idle)
01:00069ABC ?__lateFactInit$defaultformatter$0$timeFormatter@classDB@1@SAXPAPAV1@@@Z 
01:00069AEC ?defaultFormatter@timeFormatter@@SGXQAV1@@@Z  (Idle)
01:00069AF8 ?defaultFormatter@timeFormatter@@SGQAV1@@XZ 
01:00069B30 ?timeZone@timeFormatter@@SGPAUtimeZoneAPI_struct@time_native@@QAV1@@@Z 
01:00069B3C ?locale@timeFormatter@@SGPBUlcId@locale_native@@QAV1@@@Z 
01:00069B48 ?raise_wrongStringFormat_explicit@time_exception@@SAXPAUprogramPoint_struct@core@@PB_W1@Z 
01:00069C10 ?raise_cannotGetTimeZoneInformation_explicit@time_exception@@SAXPAUprogramPoint_struct@core@@PB_WI@Z  (Idle)
01:00069CD8 ?now$@time@@SAXQAV1@@@Z  (Idle)
01:00069D0C ?newZero$@time@@SAXQAV1@@@Z  (Idle)
01:00069D24 ?newFromGMT$@time@@SAXQAV1@@PAPBUgmtTimeValue@core@@@Z 
01:00069D38 ?new$@time@@SAXQAV1@@QAVgmtTime@@@@Z  (Idle)
01:00069D60 ?newFromLocalTime$@time@@SAXQAV1@@PAPBUlocalTimeValue@core@@@Z  (Idle)
01:00069DBC ?newFromTimeZone$@time@@SAXQAV1@@PAPBUlocalTimeValue@core@@PAUtimeZoneAPI_struct@time_native@@@Z  (Idle)
01:00069E1C ?new$@time@@SAXQAV1@@HHHHHPAN@Z  (Idle)
01:00069EB0 ?newGMT$@time@@SAXQAV1@@HHHHHPAN@Z  (Idle)
01:00069ECC ?newDate$@time@@SAXQAV1@@HHH@Z  (Idle)
01:00069EEC ?newTime$@time@@SAXQAV1@@HHPAN@Z  (Idle)
01:00069F08 ?newFromSimpleString$@time@@SAXQAV1@@PB_W@Z  (Idle)
01:00069F24 ?_newFromISO8601String@time@@SAXPB_WPAPAV1@@@Z  (Idle)
01:00069F2C ?_getCurrentGmtTimeValue@time@@SAXPAAAUgmtTimeValue@core@@@Z 
01:00069F64 ?_compare$@time@@SAXQAVgmtTime@@@0PAPAUcompareResult_struct@_builtIn@@@Z 
01:00069FD0 ?before$@time@@SAXQAVgmtTime@@@0@Z 
01:00069FFC ?beforeOrSameTime$@time@@SAXQAVgmtTime@@@0@Z 
01:0006A028 ?sameTime$@time@@SAXQAVgmtTime@@@0@Z 
01:0006A054 ?_getDuration$@time@@SAXQAVgmtTime@@@0PAPAVduration@@@@Z 
01:0006A07C ?_compare_lowRes$@time@@SAXQAVgmtTime@@@0PAPBUdurationValue@core@@PAPAUcompareResult_struct@_builtIn@@@Z 
01:0006A168 ?before_lowRes$@time@@SAXQAVgmtTime@@@0PAPBUdurationValue@core@@@Z 
01:0006A198 ?beforeOrSameTime_lowRes$@time@@SAXQAVgmtTime@@@0PAPBUdurationValue@core@@@Z 
01:0006A1C8 ?sameTime_lowRes$@time@@SAXQAVgmtTime@@@0PAPBUdurationValue@core@@@Z 
01:0006A1F8 ?addDuration$@time@@SAXQAVgmtTime@@@QAVduration@@@@Z 
01:0006A28C ?subtractDuration$@time@@SAXQAVgmtTime@@@QAVduration@@@@Z 
01:0006A320 ?getGmtDateAndTime$@time@@SAXQAVgmtTime@@@PAHPAHPAHPAHPAHPAPAN@Z 
01:0006A398 ?getGmtDateAndTime@time@@SAXPAPBUgmtTimeValue@core@@PAHPAHPAHPAHPAHPAPAN@Z 
01:0006A4A8 ?setGmtDateAndTime$@time@@SAXQAVgmtTime@@@HHHHHPAN@Z 
01:0006A504 ?setDate$@time@@SAXQAV1@@HHH@Z 
01:0006A564 ?getDate$@time@@SAXQAV1@@PAHPAHPAH@Z 
01:0006A5C4 ?setTime$@time@@SAXQAV1@@HHH@Z 
01:0006A624 ?getTime$@time@@SAXQAV1@@PAHPAHPAH@Z 
01:0006A684 ?setTime_localTimeValue$@time@@SAXQAV1@@PAPBUlocalTimeValue@core@@@Z 
01:0006A6D4 ?_getTime$@time@@SAXQAV1@@PAAAUlocalTimeValue@core@@@Z 
01:0006A724 ?setTimeDetailed$@time@@SAXQAV1@@HHPAN@Z 
01:0006A784 ?getTimeDetailed$@time@@SAXQAV1@@PAHPAHPAPAN@Z 
01:0006A7E4 ?getWeek$@time@@SAXQAV1@@PAHPAHPAH@Z 
01:0006A844 ?setWeek$@time@@SAXQAV1@@HHH@Z 
01:0006A8A4 ?setDateAndTime$@time@@SAXQAV1@@HHHHHH@Z 
01:0006A928 ?getDateAndTime$@time@@SAXQAV1@@PAHPAHPAHPAHPAHPAH@Z 
01:0006A9AC ?setDateAndTimeDetailed$@time@@SAXQAV1@@HHHHHPAN@Z 
01:0006AA30 ?getDateAndTimeDetailed$@time@@SAXQAV1@@PAHPAHPAHPAHPAHPAPAN@Z 
01:0006AAB4 ?setSystemClock@time@@SAXQAV1@@@Z  (Idle)
01:0006ACFC ?_formatLongDate$@time@@SAXQAV1@@PAPB_W@Z 
01:0006AD4C ?_formatShortDate$@time@@SAXQAV1@@PAPB_W@Z 
01:0006AD9C ?_formatDate$@time@@SAXQAV1@@PB_WPAPB_W@Z 
01:0006ADF4 ?_formatTime$@time@@SAXQAV1@@PAPB_W@Z 
01:0006AE44 ?_formatTime$@time@@SAXQAV1@@PB_WPAPB_W@Z 
01:0006AE9C ?_toSimpleString$@time@@SAXQAV1@@PAPB_W@Z 
01:0006AEEC ?setFromSimpleString$@time@@SAXQAV1@@PB_W@Z 
01:0006AF3C ?_formatDateTime$@time@@SAXQAV1@@PB_W1PAPB_W@Z 
01:0006AF9C ?setFromString$@time@@SAXQAV1@@PB_W1@Z 
01:0006AFF4 ?setFromString$@time@@SAXQAV1@@PB_W@Z 
01:0006B044 ?_iso8601_date$@time@@SAXQAV1@@PAUboolean_struct@_builtIn@@PAPB_W@Z 
01:0006B0A0 ?_iso8601_time$@time@@SAXQAV1@@PAUiso8601_seconds_struct@1@PAUboolean_struct@_builtIn@@2PAPB_W@Z 
01:0006B10C ?_iso8601_dateTime$@time@@SAXQAV1@@PAUiso8601_seconds_struct@1@PAUboolean_struct@_builtIn@@2PAPB_W@Z 
01:0006B178 ?isDaylightTime$@time@@SAXQAV1@@@Z 
01:0006B1C0 ?isLeapYear$@time@@SAXQAV1@@@Z 
01:0006B1F0 ?isLeapYear@time@@SAXH@Z 
01:0006B2CC ?_getDayOfWeek@time@@SAXHHHPAH@Z 
01:0006B31C ?_dayOfYear@time@@SAXHHHPAH@Z  (Idle)
01:0006B3AC ?_dayOfYearEx@time@@SAXIIHPAH@Z 
01:0006B460 ?_getDaysInMonth@time@@SAXHHPAH@Z 
01:0006B4EC ?_daysInMonth_nonLeap@time@@SAXHPAH@Z 
01:0006B628 ?isValidDate@time@@SAXHHH@Z  (Idle)
01:0006B668 ?_calculateLocalTimeValue@time@@SAXHHHHHPANPAAAUlocalTimeValue@core@@@Z 
01:0006B9CC ?normalize@time@@SAXHHHHHPANPAHPAHPAHPAHPAHPAPAN@Z 
01:0006BA6C ?divNormRest_integer@time@@SAXHHPAHPAH@Z  (Idle)
01:0006BAC8 ?divNormRest_real@time@@SAXPANHPAHPAPAN@Z 
01:0006BBB8 ?normalizeMonth@time@@SAXHPAHPAH@Z 
01:0006BBF0 ?addCalendarDuration$@time@@SAXQAV1@@QAVcalendarDuration@@@@Z 
01:0006BC08 ?subtractCalendarDuration$@time@@SAXQAV1@@QAVcalendarDuration@@@@Z 
01:0006BC1C ?addCalendarDurationWithSign$@time@@SAXQAV1@@QAVcalendarDuration@@@H@Z 
01:0006BDA0 ?setTime$@time@@SAXQAV1@@0@Z 
01:0006BE28 ?_tickclock_init/0nf$1@time@@SAXPAPA_K@Z 
01:0006BE48 ?_tickclock_init/0nf$2@time@@SAXPAPA_K@Z 
01:0006BE8C ?_tickClock_init@time@@SAXPAPA$?_function$1@core@@SAXPAPA_K@Z$@Z  (Idle)
01:0006BED4 ?_getTickCount@time@@SAXPAPA_K@Z  (Idle)
01:0006BF28 ?_getTickCountInMSec@time@@SAXPAPA_K@Z  (Idle)
01:0006BF70 ?_queryTickResolution@time@@SAXPAPA_K@Z  (Idle)
01:0006BF94 ?presenter$@time@@SGPAUpresentation_struct@presenter@@QAVgmtTime@@@@Z 
01:0006C038 ?presenter_gmtTimeValue@time@@SGPAUpresentation_struct@presenter@@PBU4core@@@Z 
01:0006C11C ?presenter_localTimeValue@time@@SGPAUpresentation_struct@presenter@@PBU4core@@@Z 
01:0006C1F4 ?_now@time@@SAXPAPAV1@@@Z  (Idle)
01:0006C21C ?_newZero@time@@SAXPAPAV1@@@Z 
01:0006C244 ?_new@time@@SAXQAVgmtTime@@@PAPAV1@@@Z  (Idle)
01:0006C26C ?_newFromGMT@time@@SAXPAPBUgmtTimeValue@core@@PAPAV1@@@Z 
01:0006C294 ?_newFromLocalTime@time@@SAXPAPBUlocalTimeValue@core@@PAPAV1@@@Z  (Idle)
01:0006C2BC ?_newFromTimeZone@time@@SAXPAPBUlocalTimeValue@core@@PAUtimeZoneAPI_struct@time_native@@PAPAV1@@@Z  (Idle)
01:0006C2E8 ?_new@time@@SAXHHHHHPANPAPAV1@@@Z  (Idle)
01:0006C320 ?_newGMT@time@@SAXHHHHHPANPAPAV1@@@Z 
01:0006C358 ?_newDate@time@@SAXHHHPAPAV1@@@Z 
01:0006C388 ?_newTime@time@@SAXHHPANPAPAV1@@@Z  (Idle)
01:0006C3B8 ?_newFromSimpleString@time@@SAXPB_WPAPAV1@@@Z  (Idle)
01:0006C3E0 ?__lateFactInit$tickclock$0$time@classDB@1@SAXPAPA$?_function$1@core@@SAXPAPA_K@Z$@Z 
01:0006C3E8 ?__lateFactInit$gmttimeformatter$0$time@classDB@1@SAXPAPAVtimeFormatter@@@@Z 
01:0006C3F0 ?gmtNowFunction@time@@SGXX@Z  (Idle)
01:0006C3FC ?gmtNowFunction@time@@SGXXZ  (Idle)
01:0006C404 ?gmtTimeValue@time@@SAXQAVgmtTime@@@PAPBU0core@@@Z 
01:0006C418 ?_gmtTimeValue@time@@SAXQAVgmtTime@@@PAAAU0core@@@Z 
01:0006C42C ?_get$@duration@@SAXQAV1@@PAAAUdurationValue@core@@@Z 
01:0006C440 ?new$@duration@@SAXQAV1@@@Z  (Idle)
01:0006C448 ?new$@duration@@SAXQAV1@@PAPBUdurationValue@core@@@Z  (Idle)
01:0006C45C ?new$@duration@@SAXQAV1@@HHHPAN@Z  (Idle)
01:0006C464 ?new$@duration@@SAXQAV1@@QAVgmtTime@@@1@Z  (Idle)
01:0006C50C ?less$@duration@@SAXQAV1@@0@Z 
01:0006C55C ?lessOrEqual$@duration@@SAXQAV1@@0@Z 
01:0006C5AC ?equal$@duration@@SAXQAV1@@0@Z 
01:0006C5FC ?between$@duration@@SAXQAV1@@00@Z 
01:0006C68C ?add$@duration@@SAXQAV1@@0@Z 
01:0006C6F4 ?subtract$@duration@@SAXQAV1@@0@Z 
01:0006C75C ?multiply$@duration@@SAXQAV1@@PAN@Z 
01:0006C7D8 ?setInterval$@duration@@SAXQAV1@@HHHH@Z 
01:0006C82C ?setIntervalDetailed$@duration@@SAXQAV1@@HHHPAN@Z 
01:0006C834 ?getInterval$@duration@@SAXQAV1@@PAHPAHPAHPAH@Z 
01:0006C868 ?getIntervalDetailed$@duration@@SAXQAV1@@PAHPAHPAHPAPAN@Z 
01:0006C870 ?getFields$@duration@@SAXQAV1@@PAHPAHPAHPAPAN@Z 
01:0006C8D0 ?getFields2@duration@@SAXPAPBUdurationValue@core@@PAHPAHPAHPAPAN@Z 
01:0006CA10 ?setFields$@duration@@SAXQAV1@@HHHPAN@Z 
01:0006CB20 ?presenter$@duration@@SGPAUpresentation_struct@presenter@@QAV1@@@Z 
01:0006CC30 ?iso8601@duration@@SGPB_WQAV1@@@Z 
01:0006CC74 ?_format$@duration@@SAXQAV1@@PB_W11111PAPB_W@Z 
01:0006D084 ?_new@duration@@SAXPAPAV1@@@Z  (Idle)
01:0006D0AC ?_new@duration@@SAXPAPBUdurationValue@core@@PAPAV1@@@Z 
01:0006D0D4 ?_new@duration@@SAXHHHPANPAPAV1@@@Z 
01:0006D108 ?_new@duration@@SAXQAVgmtTime@@@0PAPAV1@@@Z 
01:0006D134 ?_object_facts_initializer$@duration@@SGXQAV1@@@Z 
01:0006D14C ?new$@calendarDuration@@SAXQAV1@@@Z  (Idle)
01:0006D154 ?new$@calendarDuration@@SAXQAV1@@HHHHHPAN@Z  (Idle)
01:0006D15C ?setInterval$@calendarDuration@@SAXQAV1@@HHHHHPAN@Z 
01:0006D18C ?getInterval$@calendarDuration@@SAXQAV1@@PAHPAHPAHPAHPAHPAPAN@Z 
01:0006D1C8 ?less$@calendarDuration@@SAXQAV1@@0QAVgmtTime@@@@Z 
01:0006D250 ?lessOrEqual$@calendarDuration@@SAXQAV1@@0QAVgmtTime@@@@Z 
01:0006D2D8 ?equal$@calendarDuration@@SAXQAV1@@0QAVgmtTime@@@@Z 
01:0006D360 ?add$@calendarDuration@@SAXQAV1@@0@Z 
01:0006D42C ?subtract$@calendarDuration@@SAXQAV1@@0@Z 
01:0006D4F8 ?_new@calendarDuration@@SAXPAPAV1@@@Z  (Idle)
01:0006D520 ?_new@calendarDuration@@SAXHHHHHPANPAPAV1@@@Z  (Idle)
01:0006D558 ?_object_facts_initializer$@calendarDuration@@SGXQAV1@@@Z 
01:0006D5BC timeFormatter?_initObject@@@QAGXQAV1@H@Z 
01:0006D5D4 ?@create_object@timeFormatter@@SGQAV1@@XZ 
01:0006D5F0 timeFormatter?_InternalFinalizer@@@QAGXQAV1@@Z 
01:0006D6E4 time?_initObject@@@QAGXQAV1@H@Z 
01:0006D6FC ?@create_object@time@@SGQAV1@@XZ 
01:0006D718 time?_InternalFinalizer@@@QAGXQAV1@@Z 
01:0006D72C duration?_initObject@@@QAGXQAV1@H@Z 
01:0006D750 ?@create_object@duration@@SGQAV1@@XZ 
01:0006D76C duration?_InternalFinalizer@@@QAGXQAV1@@Z 
01:0006D780 calendarDuration?_initObject@@@QAGXQAV1@H@Z 
01:0006D7A4 ?@create_object@calendarDuration@@SGQAV1@@XZ 
01:0006D7C0 calendarDuration?_InternalFinalizer@@@QAGXQAV1@@Z 
--- From 'obj\uncollectable.CD38F31A.obj'
01:0006D7D0 ?new$@uncollectable@@SAXQAV1@@@Z 
01:0006D7F0 ?new$@uncollectable@@SAXQAV1@@QAVrTypeLibrary@TypeLibraries@RunTime@VIP@@X@Z 
01:0006D818 ?release$@uncollectable@@SAXQAV1@@@Z 
01:0006D894 ?_new@uncollectable@@SAXPAPAV1@@@Z  (Idle)
01:0006D8BC ?_new@uncollectable@@SAXQAVrTypeLibrary@TypeLibraries@RunTime@VIP@@XPAPAV1@@@Z  (Idle)
01:0006D8E8 ?_object_facts_initializer$@uncollectable@@SGXQAV1@@@Z 
01:0006D920 uncollectable?_initObject@@@QAGXQAV1@H@Z 
01:0006D944 ?@create_object@uncollectable@@SGQAV1@@XZ 
01:0006D960 uncollectable?_InternalFinalizer@@@QAGXQAV1@@Z 
--- From 'obj\exceptionDump.2B9C9E40.obj'
01:0006D970 ?dump@exceptionDump@@SAXQAVoutputStream@@@PBUtraceId@exception@@@Z 
01:0006D998 ?dump_info@exceptionDump@@SAXQAVoutputStream@@@PAUtraceInfo_struct@exception@@@Z 
01:0006D9FC ?dump_programPoint@exceptionDump@@SAXQAVoutputStream@@@PAUprogramPoint_struct@core@@@Z 
01:0006DA74 ?dumpToStdOutput@exceptionDump@@SAXPBUtraceId@exception@@@Z 
01:0006DA9C ?dumpToStdOutput_info@exceptionDump@@SAXPAUtraceInfo_struct@exception@@@Z 
01:0006DAC4 ?dumpToStdOutput_programpoint@exceptionDump@@SAXPAUprogramPoint_struct@core@@@Z  (Idle)
01:0006DAEC ?_dumpToString@exceptionDump@@SAXPBUtraceId@exception@@PAPB_W@Z 
01:0006DB14 ?_dumpToString_info@exceptionDump@@SAXPAUtraceInfo_struct@exception@@PAPB_W@Z 
01:0006DB48 ?_dumpToString_programpoint@exceptionDump@@SAXPAUprogramPoint_struct@core@@PAPB_W@Z  (Idle)
01:0006DB7C ?dumpToStdOutputInTrap@exceptionDump@@SAXQAVrTypeLibrary@TypeLibraries@RunTime@VIP@@XPA$?predicate$2@core@@SAXQAVoutputStream@@@X@Z$@Z 
01:0006DC7C ?processErrorOnDumpToStdOutTrapped@exceptionDump@@SAXPBUtraceId@exception@@@Z 
01:0006DD40 ?_formatDescriptorList@exceptionDump@@SAXPAU?$__packedList_struct@PAUdescriptor_struct@exception@@@@PAPB_W@Z  (Idle)
01:0006DD74 ?_formatDescriptor@exceptionDump@@SAXPAUdescriptor_struct@exception@@PAPB_W@Z  (Idle)
01:0006DDA8 ?_formatExtraInfo@exceptionDump@@SAXPAU?$__packedList_struct@PAUnamedValue_struct@core@@PAUvalue_struct@3@@@PAPB_W@Z  (Idle)
01:0006DDDC ?_formatLineInfoList@exceptionDump@@SAXPAU?$__packedList_struct@PAUlineInfo_struct@exception@@@@PAPB_W@Z  (Idle)
01:0006DE10 ?_substituteTag@exceptionDump@@SAXPB_WPAU?$__packedList_struct@PAUnamedValue_struct@core@@PAUvalue_struct@3@@@PAPB_W@Z  (Idle)
01:0006DE7C ?_value2String@exceptionDump@@SAXPAUvalue_struct@core@@PAPB_W@Z 
01:0006DEE4 ?getusermsg/1nf$1@exceptionDump@@SAXPAUgetusermsg/1nf$1_struct@1@QAVoutputStream@@@@Z 
01:0006DF04 ?_getUserMsg@exceptionDump@@SAXPAU?$__packedList_struct@PAUdescriptor_struct@exception@@@@PAPB_W@Z  (Idle)
01:0006DF3C ?writeUserMsg@exceptionDump@@SAXQAVoutputStream@@@PAU?$__packedList_struct@PAUdescriptor_struct@exception@@@@@Z 
01:0006DF88 ?writeUserMsg_nvl@exceptionDump@@SAXQAVoutputStream@@@PAU?$__packedList_struct@PAUnamedValue_struct@core@@PAUvalue_struct@4@@@@Z 
01:0006E034 ?formatUserMessage@exceptionDump@@SAXQAVoutputStream@@@PB_WPAU?$__packedList_struct@PAUnamedValue_struct@core@@PAUvalue_struct@4@@@@Z 
01:0006E13C ?_tryGetUserMessage@exceptionDump@@SAXPBUtraceId@exception@@PAPB_W@Z  (Idle)
01:0006E164 ?_tryGetUserMessage_info@exceptionDump@@SAXPAUtraceInfo_struct@exception@@PAPB_W@Z 
01:0006E17C ?_tryGetUserMessageFromDescriptorList@exceptionDump@@SAXPAU?$__packedList_struct@PAUdescriptor_struct@exception@@@@PAPB_W@Z 
01:0006E1A8 ?writeTraceInfo@exceptionDump@@SAXQAVoutputStream@@@PAUtraceInfo_struct@exception@@@Z 
01:0006E204 ?writeDescriptor_list@exceptionDump@@SAXQAVoutputStream@@@PAU?$__packedList_struct@PAUdescriptor_struct@exception@@@@@Z 
01:0006E244 ?writeErrorDescriptorInformation@exceptionDump@@SAXQAVoutputStream@@@PAUdescriptor_struct@exception@@@Z 
01:0006E4DC ?writeOSInformation@exceptionDump@@SAXQAVoutputStream@@@PB_W@Z 
01:0006E518 ?writeLineInfo_list@exceptionDump@@SAXQAVoutputStream@@@PAU?$__packedList_struct@PAUlineInfo_struct@exception@@@@@Z 
01:0006E5C0 ?writeExtraInfo@exceptionDump@@SAXQAVoutputStream@@@PAU?$__packedList_struct@PAUnamedValue_struct@core@@PAUvalue_struct@4@@@@Z 
01:0006E644 ?writePosition@exceptionDump@@SAXQAVoutputStream@@@IPB_W@Z  (Idle)
01:0006E688 ?writeNamedValue@exceptionDump@@SAXQAVoutputStream@@@PAUnamedValue_struct@core@@PAUvalue_struct@4@@Z 
01:0006E734 ?writeValue_or_NULL@exceptionDump@@SAXQAVoutputStream@@@PB_W@Z  (Idle)
01:0006E7AC ?writeValue@exceptionDump@@SAXQAVoutputStream@@@PAUvalue_struct@core@@@Z 
01:0006EADC ?writeLineInfo@exceptionDump@@SAXQAVoutputStream@@@PAUlineInfo_struct@exception@@@Z 
01:0006EB94 ?writeValue_or_NULL@exceptionDump@@SAXQAVoutputStream@@@PAD@Z 
01:0006EC0C ?writeValue_or_NULL@exceptionDump@@SAXQAVoutputStream@@@QAE@Z 
01:0006EC84 ?writeValue_or_NULL@exceptionDump@@SAXQAVoutputStream@@@PBUbinaryNonAtomic@_builtIn@@@Z 
01:0006ECFC ?writeValue_or_NULL@exceptionDump@@SAXQAVoutputStream@@@QAVobject@@@@Z 
--- From 'obj\srwLock.8CC714FD.obj'
01:0006ED80 ?new$@srwLock@@SAXQAV1@@@Z  (Idle)
01:0006ED98 ?enter$@srwLock@@SAXQAVcriticalSection@@@@Z 
01:0006EDAC ?tryEnter$@srwLock@@SAXQAVcriticalSection@@@@Z 
01:0006EDCC ?leave$@srwLock@@SAXQAVcriticalSection@@@@Z 
01:0006EDE0 ?enterShared$@srwLock@@SAXQAV1@@@Z 
01:0006EDF4 ?tryEnterShared$@srwLock@@SAXQAV1@@@Z 
01:0006EE14 ?leaveShared$@srwLock@@SAXQAV1@@@Z 
01:0006EE28 ?synchronizeShared$@srwLock@@SAXQAV1@@X@Z 
01:0006EEA0 ?_synchronizeShared$@srwLock@@SAXQAV1@@QAVrTypeLibrary@TypeLibraries@RunTime@VIP@@PA$?_function$1@core@@SAXPAX@Z$PAX@Z 
01:0006EF20 ?synchronizeShared_dt$@srwLock@@SAXQAV1@@X@Z 
01:0006EFCC ?_synchronizeShared_dt$@srwLock@@SAXQAV1@@QAVrTypeLibrary@TypeLibraries@RunTime@VIP@@PA$?_function_dt$1@core@@SAXPAX@Z$PAX@Z 
01:0006F078 ?close$@srwLock@@SAXQAVcriticalSection@@@@Z 
01:0006F080 ?_new@srwLock@@SAXPAPAV1@@@Z 
01:0006F0A8 ?_object_facts_initializer$@srwLock@@SGXQAV1@@@Z 
01:0006F1CC srwLock?_initObject@@@QAGXQAV1@H@Z 
01:0006F204 ?@create_object@srwLock@@SGQAV1@@XZ 
01:0006F220 srwLock?_InternalFinalizer@@@QAGXQAV1@@Z 
--- From 'obj\redBlackSet.DC1C3622.obj'
01:0006F230 ?_empty/0$1@redBlackSet@@SAXPAUempty/0$1_struct@1@XXPAPAUcompareResult_struct@_builtIn@@@Z 
01:0006F248 ?_empty@redBlackSet@@SAXQAVrTypeLibrary@TypeLibraries@RunTime@VIP@@PAPAUset_struct@1@PAX@Z 
01:0006F29C ?_emptyCustom@redBlackSet@@SAXQAVrTypeLibrary@TypeLibraries@RunTime@VIP@@PA$?_comparator$1@core@@SAXXXPAPAUcompareResult_struct@_builtIn@@@Z$PAPAUset_struct@1@PAX@Z 
01:0006F2C8 ?_emptySameKind@redBlackSet@@SAXQAVrTypeLibrary@TypeLibraries@RunTime@VIP@@PAUset_struct@1@XPAPAU21@PAX@Z 
01:0006F300 ?isEmpty@redBlackSet@@SAXQAVrTypeLibrary@TypeLibraries@RunTime@VIP@@PAUset_struct@1@X@Z  (Idle)
01:0006F318 ?_insert@redBlackSet@@SAXQAVrTypeLibrary@TypeLibraries@RunTime@VIP@@PAUset_struct@1@XXPAPAU21@PAX@Z 
01:0006F39C ?_delete@redBlackSet@@SAXQAVrTypeLibrary@TypeLibraries@RunTime@VIP@@PAUset_struct@1@XXPAPAU21@PAX@Z 
01:0006F420 ?_tryDeleteFirst@redBlackSet@@SAXQAVrTypeLibrary@TypeLibraries@RunTime@VIP@@PAUset_struct@1@XPAXPAPAU21@PAX@Z  (Idle)
01:0006F4A8 ?isMember@redBlackSet@@SAXQAVrTypeLibrary@TypeLibraries@RunTime@VIP@@XPAUset_struct@1@X@Z 
01:0006F4DC ?_getAll_nd@redBlackSet@@SAXQAVrTypeLibrary@TypeLibraries@RunTime@VIP@@PAUset_struct@1@XPAX@Z 
01:0006F4F4 ?_getAll_multi@redBlackSet@@SAXQAVrTypeLibrary@TypeLibraries@RunTime@VIP@@PAUset_struct@1@XPAX@Z  (Idle)
01:0006F50C ?_upFrom_nd@redBlackSet@@SAXQAVrTypeLibrary@TypeLibraries@RunTime@VIP@@PAUset_struct@1@XXPAX@Z 
01:0006F548 ?_downFrom_nd@redBlackSet@@SAXQAVrTypeLibrary@TypeLibraries@RunTime@VIP@@PAUset_struct@1@XXPAX@Z 
01:0006F584 ?_up_nd@redBlackSet@@SAXQAVrTypeLibrary@TypeLibraries@RunTime@VIP@@PAUset_struct@1@XPAX@Z  (Idle)
01:0006F59C ?_down_nd@redBlackSet@@SAXQAVrTypeLibrary@TypeLibraries@RunTime@VIP@@PAUset_struct@1@XPAX@Z  (Idle)
01:0006F5B4 ?_tryGetMin@redBlackSet@@SAXQAVrTypeLibrary@TypeLibraries@RunTime@VIP@@PAUset_struct@1@XPAX@Z  (Idle)
01:0006F5E4 ?_tryGetMax@redBlackSet@@SAXQAVrTypeLibrary@TypeLibraries@RunTime@VIP@@PAUset_struct@1@XPAX@Z  (Idle)
01:0006F614 ?isMember_rep@redBlackSet@@SAXQAVrTypeLibrary@TypeLibraries@RunTime@VIP@@PA$?_comparator$1@core@@SAXXXPAPAUcompareResult_struct@_builtIn@@@Z$XPAUsetRep_struct@1@X@Z 
01:0006F71C ?isMember_node_rep@redBlackSet@@SAXQAVrTypeLibrary@TypeLibraries@RunTime@VIP@@PA$?_comparator$1@core@@SAXXXPAPAUcompareResult_struct@_builtIn@@@Z$PAU23@XPAUsetRep_struct@1@X4@Z 
01:0006F75C ?_getAll_nd_rep@redBlackSet@@SAXQAVrTypeLibrary@TypeLibraries@RunTime@VIP@@PAUsetRep_struct@1@XPAX@Z 
01:0006F828 ?_get_multi_rep@redBlackSet@@SAXQAVrTypeLibrary@TypeLibraries@RunTime@VIP@@PAUsetRep_struct@1@XPAX@Z 
01:0006F92C ?_get_node_multi_rep@redBlackSet@@SAXQAVrTypeLibrary@TypeLibraries@RunTime@VIP@@PAUsetRep_struct@1@XX1PAX@Z 
01:0006F998 ?_upFrom_nd_rep@redBlackSet@@SAXQAVrTypeLibrary@TypeLibraries@RunTime@VIP@@PA$?_comparator$1@core@@SAXXXPAPAUcompareResult_struct@_builtIn@@@Z$XPAUsetRep_struct@1@XPAX@Z 
01:0006FAC8 ?_upFrom_node_nd_rep@redBlackSet@@SAXQAVrTypeLibrary@TypeLibraries@RunTime@VIP@@PA$?_comparator$1@core@@SAXXXPAPAUcompareResult_struct@_builtIn@@@Z$PAU23@XPAUsetRep_struct@1@XX4PAX@Z 
01:0006FBBC ?_downFrom_nd_rep@redBlackSet@@SAXQAVrTypeLibrary@TypeLibraries@RunTime@VIP@@PA$?_comparator$1@core@@SAXXXPAPAUcompareResult_struct@_builtIn@@@Z$XPAUsetRep_struct@1@XPAX@Z 
01:0006FCEC ?_downFrom_node_nd_rep@redBlackSet@@SAXQAVrTypeLibrary@TypeLibraries@RunTime@VIP@@PA$?_comparator$1@core@@SAXXXPAPAUcompareResult_struct@_builtIn@@@Z$PAU23@XPAUsetRep_struct@1@XX4PAX@Z 
01:0006FDDC ?_down_nd_rep@redBlackSet@@SAXQAVrTypeLibrary@TypeLibraries@RunTime@VIP@@PAUsetRep_struct@1@XPAX@Z 
01:0006FEA8 ?_down_node_multi_rep@redBlackSet@@SAXQAVrTypeLibrary@TypeLibraries@RunTime@VIP@@PAUsetRep_struct@1@XX1PAX@Z 
01:0006FF1C ?_tryInsert_rep@redBlackSet@@SAXQAVrTypeLibrary@TypeLibraries@RunTime@VIP@@PA$?_comparator$1@core@@SAXXXPAPAUcompareResult_struct@_builtIn@@@Z$XPAUsetRep_struct@1@XPAPAU21@PAX@Z 
01:0006FF50 ?_tryIns@redBlackSet@@SAXQAVrTypeLibrary@TypeLibraries@RunTime@VIP@@PA$?_comparator$1@core@@SAXXXPAPAUcompareResult_struct@_builtIn@@@Z$XPAUsetRep_struct@1@XPAPAU21@PAX@Z 
01:000700B4 ?_tryIns_black@redBlackSet@@SAXQAVrTypeLibrary@TypeLibraries@RunTime@VIP@@PA$?_comparator$1@core@@SAXXXPAPAUcompareResult_struct@_builtIn@@@Z$PAU23@XPAUsetRep_struct@1@XX4PAPAU41@PAX@Z 
01:0007014C ?_tryIns_red@redBlackSet@@SAXQAVrTypeLibrary@TypeLibraries@RunTime@VIP@@PA$?_comparator$1@core@@SAXXXPAPAUcompareResult_struct@_builtIn@@@Z$PAU23@XPAUsetRep_struct@1@XX4PAPAU41@PAX@Z 
01:000701F4 ?_balance@redBlackSet@@SAXQAVrTypeLibrary@TypeLibraries@RunTime@VIP@@PAUsetRep_struct@1@XX1PAPAU21@PAX@Z 
01:000706A0 ?_makeblack@redBlackSet@@SAXQAVrTypeLibrary@TypeLibraries@RunTime@VIP@@PAUsetRep_struct@1@XPAPAU21@PAX@Z 
01:0007071C ?_tryDelete_rep@redBlackSet@@SAXQAVrTypeLibrary@TypeLibraries@RunTime@VIP@@PA$?_comparator$1@core@@SAXXXPAPAUcompareResult_struct@_builtIn@@@Z$XPAUsetRep_struct@1@XPAPAU21@PAX@Z 
01:00070750 ?_tryDel_rep@redBlackSet@@SAXQAVrTypeLibrary@TypeLibraries@RunTime@VIP@@PA$?_comparator$1@core@@SAXXXPAPAUcompareResult_struct@_builtIn@@@Z$XPAUsetRep_struct@1@XPAPAU21@PAX@Z 
01:00070880 ?_tryDel_node_rep@redBlackSet@@SAXQAVrTypeLibrary@TypeLibraries@RunTime@VIP@@PA$?_comparator$1@core@@SAXXXPAPAUcompareResult_struct@_builtIn@@@Z$PAU23@XPAUsetRep_struct@1@XX4PAPAU41@PAX@Z 
01:000708FC ?_tryDelLeft_rep@redBlackSet@@SAXQAVrTypeLibrary@TypeLibraries@RunTime@VIP@@PA$?_comparator$1@core@@SAXXXPAPAUcompareResult_struct@_builtIn@@@Z$XPAUsetRep_struct@1@XX3PAPAU21@PAX@Z 
01:0007099C ?_tryDelRight_rep@redBlackSet@@SAXQAVrTypeLibrary@TypeLibraries@RunTime@VIP@@PA$?_comparator$1@core@@SAXXXPAPAUcompareResult_struct@_builtIn@@@Z$XPAUsetRep_struct@1@XX3PAPAU21@PAX@Z 
01:00070A48 ?_balLeft@redBlackSet@@SAXQAVrTypeLibrary@TypeLibraries@RunTime@VIP@@PAUsetRep_struct@1@XX1PAPAU21@PAX@Z 
01:00070C84 ?_balRight@redBlackSet@@SAXQAVrTypeLibrary@TypeLibraries@RunTime@VIP@@PAUsetRep_struct@1@XX1PAPAU21@PAX@Z 
01:00070EBC ?_sub1@redBlackSet@@SAXQAVrTypeLibrary@TypeLibraries@RunTime@VIP@@PAUsetRep_struct@1@XPAPAU21@PAX@Z 
01:00070F54 ?_mkNode@redBlackSet@@SAXQAVrTypeLibrary@TypeLibraries@RunTime@VIP@@PAUsetRep_struct@1@X1PAPAU21@PAX@Z 
01:000711EC ?_mkNodeRR_BC@redBlackSet@@SAXQAVrTypeLibrary@TypeLibraries@RunTime@VIP@@PAUsetRep_struct@1@XX1X1PAPAU21@PAX@Z 
01:000712E8 ?_mkNodeBB_BC@redBlackSet@@SAXQAVrTypeLibrary@TypeLibraries@RunTime@VIP@@PAUsetRep_struct@1@XX1X1PAPAU21@PAX@Z 
01:000713E0 ?present_set@redBlackSet@@SGPAUpresentation_struct@presenter@@QAVrTypeLibrary@TypeLibraries@RunTime@VIP@@PAUset_struct@1@X@Z 
01:00071400 ?_present_setrep/1nf$1@redBlackSet@@SAXPAUpresent_setrep/1nf$1_struct@1@PAX@Z 
01:00071434 ?present_setRep@redBlackSet@@SGPAUpresentation_struct@presenter@@QAVrTypeLibrary@TypeLibraries@RunTime@VIP@@PAUsetRep_struct@1@X@Z 
--- From 'obj\collectionMsupport.3A44ED4E.obj'
01:00071490 ?new$@collectionMsupport@collectionSupport@@SAXQAV1@2@XQAVrTypeLibrary@TypeLibraries@RunTime@VIP@@QAVcollectionMsupportSite@@2@X@Z 
01:000714D8 ?_new@collectionMsupport@collectionSupport@@SAXQAVrTypeLibrary@TypeLibraries@RunTime@VIP@@QAVcollectionMsupportSite@@2@XPAPAV1@2@PAX@Z  (Idle)
01:00071504 ?_object_typelib_initializer$@collectionMsupport@collectionSupport@@SGXQAV1@2@XQAVrTypeLibrary@TypeLibraries@RunTime@VIP@@@Z 
01:00071694 collectionSupport\collectionMsupport{@Type}?_initObject@@@QAGXQAV1@H@Z 
01:00071700 ?@create_object@collectionMsupport@collectionSupport@@SGQAV1@2@XQAVrTypeLibrary@TypeLibraries@RunTime@VIP@@@Z 
01:00071724 collectionSupport\collectionMsupport{@Type}?_InternalFinalizer@@@QAGXQAV1@@Z 
--- From 'obj\guid_api.488B7439.obj'
01:00071740 ?check_explicit@guid_api@@SAXPAUprogramPoint_struct@core@@PBUhResult@3@PAU?$__packedList_struct@PAUnamedValue_struct@3@PAUvalue_struct@3@@@@Z 
--- From 'obj\outputStreamSupport.6F229CFB.obj'
01:000717D0 ?new$@outputStreamSupport@@SAXQAV1@@QAVoutputStreamSupportSite@@@PAUmode_struct@stream@@@Z 
01:000717E8 ?new_flush$@outputStreamSupport@@SAXQAV1@@QAVoutputStreamSupportSite@@@PAUmode_struct@stream@@@Z 
01:00071820 ?newEx$@outputStreamSupport@@SAXQAV1@@QAVoutputStreamSupportSite@@@PAUmode_struct@stream@@X@Z 
01:00071858 ?getBuffer$@outputStreamSupport@@SGXQAVbufferSupport@@@PAPAXAAUbyteCount@core@@@Z 
01:00071880 ?getBufferLocked$@outputStreamSupport@@SGXQAVbufferSupport@@@PAPAXAAUbyteCount@core@@@Z 
01:000718A8 ?allowNullPointersBufferSupport@outputStreamSupport@@SGPAUboolean_struct@_builtIn@@QAVbufferSupport@@@@Z 
01:000718B4 ?setMode$@outputStreamSupport@@SGXQAVstream@@@PAUmode_struct@2@@Z 
01:000718E8 ?getMode$@outputStreamSupport@@SGPAUmode_struct@stream@@QAV3@@@Z 
01:000718F4 ?flush$@outputStreamSupport@@SAXQAVoutputStream@@@@Z 
01:0007191C ?getPosition$@outputStreamSupport@@SGPBUfileSize@fileSystem_api@@QAVstream@@@@Z 
01:00071934 ?setPosition$@outputStreamSupport@@SGXQAVstream@@@PBUfileSize@fileSystem_api@@@Z 
01:0007194C ?getCRLFconversion$@outputStreamSupport@@SGPAUboolean_struct@_builtIn@@QAVstream@@@@Z 
01:00071954 ?setCRLFconversion$@outputStreamSupport@@SGXQAVstream@@@PAUboolean_struct@_builtIn@@@Z 
01:0007197C ?close$@outputStreamSupport@@SGXQAVstream@@@@Z 
01:000719B4 ?write$@outputStreamSupport@@SAXQAVoutputStream@@@@Z 
01:00071A08 ?writeQuoted$@outputStreamSupport@@SAXQAVoutputStream@@@@Z 
01:00071A54 ?writef$@outputStreamSupport@@SAXQAVoutputStream@@@PB_W@Z 
01:00071ADC ?nl$@outputStreamSupport@@SAXQAVoutputStream@@@@Z 
01:00071B10 ?save$@outputStreamSupport@@SAXQAVoutputStream@@@PBUfactDB@_builtIn@@@Z 
01:00071B54 ?writeBytes$@outputStreamSupport@@SAXQAVoutputStream@@@PAXPBUbyteCount@core@@@Z 
01:00071BA0 ?checkClosed_explicit$@outputStreamSupport@@SAXQAV1@@PAUprogramPoint_struct@core@@@Z 
01:00071BE8 ?checkMode_text_explicit$@outputStreamSupport@@SAXQAV1@@PAUprogramPoint_struct@core@@@Z 
01:00071C20 ?streamFromInputBuffer$@outputStreamSupport@@SAXQAVoutputStream@@@QAVinputBuffer@@@@Z 
01:00071C38 ?present$@outputStreamSupport@@SAXQAVoutputStream@@@@Z 
01:00071CD4 ?writePresentation@outputStreamSupport@@SAXQAVoutputStream@@@PAUpresentation_struct@presenter@@@Z  (Idle)
01:00071CDC ?presentation2stream@outputStreamSupport@@SAXQAVoutputStream@@@PAUpresentation_struct@presenter@@@Z 
01:00071E44 ?structuredPresentation2stream@outputStreamSupport@@SAXQAVoutputStream@@@PB_WPAUsubPresenter_struct@presenter@@@Z 
01:00072004 ?fieldPresent2stream@outputStreamSupport@@SAXQAVoutputStream@@@PAUfieldPresentation_struct@presenter@@@Z 
01:00072074 ?subLazy2stream@outputStreamSupport@@SAXQAVoutputStream@@@PAUsubPresentation_struct@presenter@@PA$?_function$1@core@@SAXPAPAUpresentation_struct@4@@Z$@Z 
01:000720D4 ?subPresentation2stream@outputStreamSupport@@SAXQAVoutputStream@@@PAUsubPresentation_struct@presenter@@PAUpresentation_struct@4@@Z 
01:0007211C ?functorPresentation2stream@outputStreamSupport@@SAXQAVoutputStream@@@PB_WPAU?$__packedList_struct@PBUany@_builtIn@@@@@Z 
01:00072290 ?bufferNotFound_exception_explicit@outputStreamSupport@@SAXPAUprogramPoint_struct@core@@I@Z 
01:000722CC ?initRuntimePresenters@outputStreamSupport@@SAXXZ  (Idle)
01:000722DC ?_presentation2stringSerializer@outputStreamSupport@@SAXPAUpresentation_struct@presenter@@PAPB_W@Z 
01:00072310 ?_new@outputStreamSupport@@SAXQAVoutputStreamSupportSite@@@PAUmode_struct@stream@@PAPAV1@@@Z  (Idle)
01:0007233C ?_new_flush@outputStreamSupport@@SAXQAVoutputStreamSupportSite@@@PAUmode_struct@stream@@PAPAV1@@@Z  (Idle)
01:00072368 ?_newEx@outputStreamSupport@@SAXQAVoutputStreamSupportSite@@@PAUmode_struct@stream@@XPAPAV1@@@Z  (Idle)
01:00072398 ?_object_facts_initializer$@outputStreamSupport@@SGXQAV1@@@Z 
01:000723B8 ?allowNullPointers@outputStreamSupport@@SGXQAVstream@@@PAUboolean_struct@_builtIn@@@Z 
01:000723C8 ?allowNullPointers@outputStreamSupport@@SGPAUboolean_struct@_builtIn@@QAVstream@@@@Z 
01:000723D4 ?getBuffer$@outputStreamSupport@@SGPAXQAVoutputBuffer@@@@Z 
01:000723F4 ?getLength$@outputStreamSupport@@SGPBUbyteCount@core@@QAVoutputBuffer@@@@Z 
01:00072414 ?getOffset$@outputStreamSupport@@SGPBUbyteCount@core@@QAVoutputBuffer@@@@Z 
01:00072434 ?setOffset$@outputStreamSupport@@SGXQAVoutputBuffer@@@PBUbyteCount@core@@@Z 
01:00072458 ?setCurrentBuffer$@outputStreamSupport@@SGXQAVoutputBuffer@@@PAXPBUbyteCount@core@@@Z 
01:00072480 ?flushBuffer$@outputStreamSupport@@SGXQAVoutputBuffer@@@@Z 
01:000724A0 ?_class_initializer@outputStreamSupport@@SGXXZ 
01:000724B8 ?new$@outputStreamSegmentedSupport@@SAXQAV1@@XQAVrTypeLibrary@TypeLibraries@RunTime@VIP@@PAUmode_struct@stream@@QAVsegmentedSupport@@@X@Z 
01:0007250C ?doFlush$@outputStreamSegmentedSupport@@SAXQAVoutputStreamSupportSite@@@@Z 
01:00072640 ?getPosition$@outputStreamSegmentedSupport@@SGPBUfileSize@fileSystem_api@@QAVstream@@@@Z 
01:00072690 ?setPosition$@outputStreamSegmentedSupport@@SGXQAVstream@@@PBUfileSize@fileSystem_api@@@Z 
01:00072764 ?getBuffer$@outputStreamSegmentedSupport@@SGXQAVoutputStreamSupportSite@@@PAPAXAAUbyteCount@core@@@Z 
01:00072798 ?_getSegmented$@outputStreamSegmentedSupport@@SAXQAV1@@XPAPAUsegmented_struct@segmented@@PAX@Z 
01:000727BC ?_size@outputStreamSegmentedSupport@@SAXQAV1@@XPAAAUfileSize@fileSystem_api@@@Z 
01:00072830 ?size32@outputStreamSegmentedSupport@@SGPBUbyteCount@core@@QAV1@@X@Z 
01:00072874 ?_copyToBuffer$@outputStreamSegmentedSupport@@SAXQAV1@@XQAVrTypeLibrary@TypeLibraries@RunTime@VIP@@XPAPAX@Z 
01:000728D0 ?_presenter/0nf$1@outputStreamSegmentedSupport@@SAXPAUpresenter/0nf$1_struct@1/1@PAPAUpresentation_struct@presenter@@@Z 
01:00072928 ?presenter$@outputStreamSegmentedSupport@@SGPAUpresentation_struct@presenter@@QAV1@@X@Z 
01:000729FC ?_new@outputStreamSegmentedSupport@@SAXQAVrTypeLibrary@TypeLibraries@RunTime@VIP@@PAUmode_struct@stream@@QAVsegmentedSupport@@@XPAPAV1@@PAX@Z  (Idle)
01:00072A30 ?_object_typelib_initializer$@outputStreamSegmentedSupport@@SGXQAV1@@XQAVrTypeLibrary@TypeLibraries@RunTime@VIP@@@Z 
01:00072A48 ?_object_facts_initializer$@outputStreamSegmentedSupport@@SGXQAV1@@X@Z 
01:00072AD8 outputStreamSupport?_initObject@@@QAGXQAV1@H@Z 
01:00072B04 ?@create_object@outputStreamSupport@@SGQAV1@@XZ 
01:00072B20 outputStreamSupport?_InternalFinalizer@@@QAGXQAV1@@Z 
01:00072D6C outputStreamSegmentedSupport{@Segment}?_initObject@@@QAGXQAV1@H@Z 
01:00072DC0 ?@create_object@outputStreamSegmentedSupport@@SGQAV1@@XQAVrTypeLibrary@TypeLibraries@RunTime@VIP@@@Z 
01:00072DE4 outputStreamSegmentedSupport{@Segment}?_InternalFinalizer@@@QAGXQAV1@@Z 
--- From 'obj\segmentedSupport.2BAFE67D.obj'
01:00072E00 ?new$@segmentedSupport@@SAXQAV1@@XQAVrTypeLibrary@TypeLibraries@RunTime@VIP@@QAVsegmentedSupportSite@@@X@Z  (Idle)
01:00072E14 ?_mkSegment$@segmentedSupport@@SAXQAV1@@XXPAPAUsegmented_struct@segmented@@PAX@Z 
01:00072E30 ?_mkFromBuffer$@segmentedSupport@@SAXQAV1@@XPAXPBUbyteCount@core@@PAPAUsegmented_struct@segmented@@PAX@Z 
01:00072E94 ?_concat$@segmentedSupport@@SAXQAV1@@XPAUsegmented_struct@segmented@@X1PAPAU34@PAX@Z 
01:00073040 ?_concat2$@segmentedSupport@@SAXQAV1@@XPAUcompareResult_struct@_builtIn@@PAUsegmented_struct@segmented@@X2PAPAU56@PAX@Z 
01:000730A4 ?_concat_inRight$@segmentedSupport@@SAXQAV1@@XPAUsegmented_struct@segmented@@X1PAPAU34@PAX@Z 
01:00073388 ?_concat_inLeft$@segmentedSupport@@SAXQAV1@@XPAUsegmented_struct@segmented@@X1PAPAU34@PAX@Z 
01:0007366C ?_front$@segmentedSupport@@SAXQAV1@@XPAUsegmented_struct@segmented@@XPBUbyteCount@core@@PAPAU34@PAX@Z 
01:000739E4 ?_rear$@segmentedSupport@@SAXQAV1@@XPAUsegmented_struct@segmented@@XPBUbyteCount@core@@PAPAU34@PAX@Z 
01:00073D7C ?_subSegment$@segmentedSupport@@SAXQAV1@@XPAUsegmented_struct@segmented@@XPBUbyteCount@core@@2PAPAU34@PAX@Z 
01:00073DB4 ?split$@segmentedSupport@@SAXQAV1@@XPAUsegmented_struct@segmented@@XPBUbyteCount@core@@PAPAU34@PAX3@Z 
01:00073DE0 ?_insert$@segmentedSupport@@SAXQAV1@@XPAUsegmented_struct@segmented@@XPBUbyteCount@core@@1PAPAU34@PAX@Z 
01:00073E4C ?_getAll_nd$@segmentedSupport@@SAXQAV1@@XPAUsegmented_struct@segmented@@XPAX@Z 
01:00073EA8 ?_getAllLeafs_nd@segmentedSupport@@SAXQAVrTypeLibrary@TypeLibraries@RunTime@VIP@@PAUsegmented_struct@segmented@@XPAPAU23@PAX@Z 
01:00073FE8 ?_mkIterator$@segmentedSupport@@SAXQAV1@@XPAUsegmented_struct@segmented@@XPBUbyteCount@core@@PAPAViterator@@@PAPAUtuple_struct@6@AAU56@PAX@Z 
01:00074018 ?_mkNode2$@segmentedSupport@@SAXQAV1@@XPAUsegmented_struct@segmented@@X1PAPAU34@PAX@Z 
01:000740CC ?_mkNode3$@segmentedSupport@@SAXQAV1@@XPAUsegmented_struct@segmented@@X11PAPAU34@PAX@Z 
01:000741A8 ?_getHeight$@segmentedSupport@@SAXQAV1@@XPAUsegmented_struct@segmented@@XPAI@Z 
01:00074200 ?_copyToBuffer$@segmentedSupport@@SAXQAV1@@XQAVrTypeLibrary@TypeLibraries@RunTime@VIP@@PAUsegmented_struct@segmented@@XXPAPAX@Z 
01:000742F0 ?_getSegmentDataPointer@segmentedSupport@@SAXQAVrTypeLibrary@TypeLibraries@RunTime@VIP@@XPAPAX@Z 
01:00074334 ?validate$@segmentedSupport@@SAXQAV1@@XPAUsegmented_struct@segmented@@X@Z 
01:0007436C ?_validate2$@segmentedSupport@@SAXQAV1@@XIPAUsegmented_struct@segmented@@XAAUbyteCount@core@@@Z 
01:000746B0 ?notEmpty$@segmentedSupport@@SAXQAV1@@XPAUsegmented_struct@segmented@@X@Z 
01:000746F4 ?_new@segmentedSupport@@SAXQAVrTypeLibrary@TypeLibraries@RunTime@VIP@@QAVsegmentedSupportSite@@@XPAPAV1@@PAX@Z 
01:00074724 ?_object_typelib_initializer$@segmentedSupport@@SGXQAV1@@XQAVrTypeLibrary@TypeLibraries@RunTime@VIP@@@Z 
01:0007473C ?new$@segmentedIterator@@SAXQAV1@@XQAVrTypeLibrary@TypeLibraries@RunTime@VIP@@PAUsegmented_struct@segmented@@XPBUbyteCount@core@@@Z  (Idle)
01:000747C0 ?_findSegment$@segmentedIterator@@SAXQAV1@@XPAUsegmented_struct@segmented@@XPBUbyteCount@core@@AAU56@@Z 
01:00074848 ?_tryFindSegment$@segmentedIterator@@SAXQAV1@@XPAUsegmented_struct@segmented@@XPBUbyteCount@core@@AAU56@@Z 
01:00074B4C ?_siteTryGetNext$@segmentedIterator@@SAXQAV1@@XPAPAUtuple_struct@core@@AAUbyteCount@4@PAX@Z 
01:00074BE8 ?_tryGetNext2$@segmentedIterator@@SAXQAV1@@XPAUsegmented_struct@segmented@@XPAPAUtuple_struct@core@@AAUbyteCount@6@PAX@Z 
01:00074D0C ?_new@segmentedIterator@@SAXQAVrTypeLibrary@TypeLibraries@RunTime@VIP@@PAUsegmented_struct@segmented@@XPBUbyteCount@core@@PAPAViterator@@@PAPAUtuple_struct@5@AAU45@PAX@Z 
01:00074D40 ?_object_typelib_initializer$@segmentedIterator@@SGXQAV1@@XQAVrTypeLibrary@TypeLibraries@RunTime@VIP@@@Z 
01:00074D58 ?_mk_tl_0_iterator{@Elem}$imp$$@segmentedIterator@@SGQAVrTypeLibrary@TypeLibraries@RunTime@VIP@@QAV1@@X@Z 
01:00074D9C ?_object_facts_initializer$@segmentedIterator@@SGXQAV1@@X@Z 
01:00074DB8 segmentedSupport{@Segment}?_initObject@@@QAGXQAV1@H@Z 
01:00074DE0 ?@create_object@segmentedSupport@@SGQAV1@@XQAVrTypeLibrary@TypeLibraries@RunTime@VIP@@@Z 
01:00074E04 segmentedSupport{@Segment}?_InternalFinalizer@@@QAGXQAV1@@Z 
01:00074E78 segmentedIterator{@Segment}?_initObject@@@QAGXQAV1@H@Z 
01:00074ED4 ?@create_object@segmentedIterator@@SGQAV1@@XQAVrTypeLibrary@TypeLibraries@RunTime@VIP@@@Z 
01:00074EF8 segmentedIterator{@Segment}?_InternalFinalizer@@@QAGXQAV1@@Z 
--- From 'obj\iterator.60C55021.obj'
01:00074F10 ?new$@iterator@@SAXQAV1@@XQAVrTypeLibrary@TypeLibraries@RunTime@VIP@@PA$?_function_dt$1@core@@SAXPAX@Z$@Z 
01:00074F24 ?new$@iterator@@SAXQAV1@@XQAVrTypeLibrary@TypeLibraries@RunTime@VIP@@PA$?_function_dt$1@core@@SAXPAX@Z$X@Z  (Idle)
01:00074F48 ?_list/1np$1@iterator@@SAXPAUlist/1np$1_struct@1/1@PAX@Z 
01:00074FB4 ?list$@iterator@@SAXQAV1@@XQAVrTypeLibrary@TypeLibraries@RunTime@VIP@@PAU?$__packedList_struct@X@@@Z  (Idle)
01:00075028 ?_tryGetNext$@iterator@@SAXQAV1@@XPAX@Z 
01:00075094 ?_getAll_nd$@iterator@@SAXQAV1@@XPAX@Z 
01:000750DC ?_getAll_nd2$@iterator@@SAXQAV1@@XXPAX@Z 
01:00075130 ?_getAsList$@iterator@@SAXQAV1@@XPAPAU?$__packedList_struct@PAX@@@Z 
01:00075198 ?close/1np$1@iterator@@SAXPAUclose/1np$1_struct@1/1@@Z 
01:000751C8 ?close@iterator@@SGXQAV1@@XX@Z 
01:0007520C ?close@iterator@@SGXQAV1@@X@Z 
01:00075218 ?finalize$@iterator@@SGXQAV1@@X@Z 
01:00075244 ?_new@iterator@@SAXQAVrTypeLibrary@TypeLibraries@RunTime@VIP@@PA$?_function_dt$1@core@@SAXPAX@Z$PAPAV1@@PAX@Z  (Idle)
01:00075274 ?_new@iterator@@SAXQAVrTypeLibrary@TypeLibraries@RunTime@VIP@@PA$?_function_dt$1@core@@SAXPAX@Z$XPAPAV1@@PAX@Z  (Idle)
01:000752A8 ?_list@iterator@@SAXQAVrTypeLibrary@TypeLibraries@RunTime@VIP@@PAU?$__packedList_struct@X@@PAPAV1@@PAX@Z  (Idle)
01:000752D8 ?_object_typelib_initializer$@iterator@@SGXQAV1@@XQAVrTypeLibrary@TypeLibraries@RunTime@VIP@@@Z 
01:000752F0 ?_object_facts_initializer$@iterator@@SGXQAV1@@X@Z 
01:00075310 iterator{@Elem}?_initObject@@@QAGXQAV1@H@Z 
01:00075344 ?@create_object@iterator@@SGQAV1@@XQAVrTypeLibrary@TypeLibraries@RunTime@VIP@@@Z 
01:00075368 iterator{@Elem}?_InternalFinalizer@@@QAGXQAV1@@Z 
--- From 'obj\string8_api.53D65538.obj'
01:000753C0 ?toWideChar@string8_api@@SAXPBUcodePage@core@@PADPBUbyteCountOptional@3@PB_WPBUcharCount@3@@Z 
01:00075418 ?_lenWideChar@string8_api@@SAXPBUcodePage@core@@PADPBUbyteCountOptional@3@AAUcharCount@3@@Z 
01:0007549C ?toMultiByte@string8_api@@SAXPBUcodePage@core@@PB_WPBUcharCountOptional@3@PADPBUbyteCount@3@@Z 
01:000754F8 ?_lenMultiByte@string8_api@@SAXPBUcodePage@core@@PB_WPBUcharCountOptional@3@AAUbyteCount@3@@Z 
01:00075580 ?_charNextExA@string8_api@@SAXPBUcodePage@core@@PADPAPAD@Z 
001000:0745A0 0001B0   .text$mn::CODE::<no group> F=4
--- From '..\..\..\_intermediate\sourceVS\vipInit\Win32\Release\VIPMain.obj'
01:000755A0 _VIPStartUp@0  (Idle)
--- From '..\..\..\_intermediate\sourceVS\vipInit\Win32\Release\VIPDll.obj'
01:00075600 ?VIPDllGetHandleModule@RunTime@VIP@@YAPAXXZ 
01:00075610 ?tryCallHook@VIPDllHook_s@RunTime@VIP@@QBEHPAXK0@Z 
01:00075650 _VIPDllMain@12  (Idle)
01:00075730 _VIPSetDllHook@4  (Idle)
Frame 076000   Size 07E7A0.  Name=<  .rdata>, 	Chars=40000040h. [IR]
076000:000000 0286D0   .rdata::.rdata::.rdata F=4
--- From 'obj\comSupport.C599FD18.obj'
02:000773EC v$$stgmMap@comConversion@@SAXPAPAUstgm_struct@compoundFile@@I@Z$flag$1$$type_expression$class$compoundFile::stgm$  (Idle)
--- From 'obj\exception.B6F320E8.obj'
02:0007F784 v$$_getTrapInformationObject@exception@@SAXPBUtraceId@1@PAPAVtrapInformationObject@@@@Z$externalexception$1$$type_expression$class$core::exception$  (Idle)
--- From '..\..\..\_intermediate\sourceVS\vipInit\Win32\Release\VIPDll.obj'
02:0008FB36 _VIPStartOfDictionary 
076000:0286D0 00B590   VIPInter::VIPInter::.rdata F=4
--- From 'obj\srwLock.8CC714FD.obj'
02:0009E6D0 interface$srwLock 
02:0009E760 $srwLock$_global_class$0$domain$ 
--- From 'obj\comSupport.C599FD18.obj'
02:0009E790 interface$supportErrorInfoManager 
02:0009E860 $supportErrorInfoManager$_global_class$0$domain$ 
--- From 'obj\collectionMsupport.3A44ED4E.obj'
02:0009E8B0 interface$collectionSupport\collectionMsupport{@Type} 
02:0009E9C0 $collectionSupport\collectionMsupport{@Type}$_global_class$1$domain$ 
--- From 'obj\queueM_fact.744E8FC1.obj'
02:0009EA30 interface$collectionSupport\collectionMsupportSite{@Type} 
--- From 'obj\setM_redBlack.16EF8DC5.obj'
02:0009EB50 $collectionSupport\collectionMsupportSite{@Type}$_global_class$1$domain$ 
--- From 'obj\srwLock.8CC714FD.obj'
02:0009EBC0 interface$criticalSectionSupport 
--- From 'obj\multiThread.32507C62.obj'
02:0009ECA0 $criticalSectionSupport$_global_class$0$domain$ 
--- From 'obj\srwLock.8CC714FD.obj'
02:0009ECF0 interface$criticalSectionSupportSite 
--- From 'obj\multiThread.32507C62.obj'
02:0009EDE0 $criticalSectionSupportSite$_global_class$0$domain$ 
--- From 'obj\list.A75CEA31.obj'
02:0009EE30 interface$collection{@Type} 
--- From 'obj\commandLineParser.67E728BA.obj'
02:0009EEC0 $collection{@Type}$_global_class$1$domain$ 
--- From 'obj\mapM_redBlack.875A0474.obj'
02:0009EEF0 interface$map{@Key,@Data} 
--- From 'obj\vpiDomains.E7102A6D.obj'
02:0009EF70 $map{@Key,@Data}$_global_class$2$domain$ 
--- From 'obj\mapM_redBlack.875A0474.obj'
02:0009EF90 interface$mapM{@Key,@Data} 
02:0009F010 $mapM{@Key,@Data}$_global_class$2$domain$ 
--- From 'obj\commandLineParser.67E728BA.obj'
02:0009F040 interface$mapP{@Key,@Data} 
02:0009F0C0 $mapP{@Key,@Data}$_global_class$2$domain$ 
02:0009F0F0 interface$mapSetM{@Key,@Data} 
02:0009F180 $mapSetM{@Key,@Data}$_global_class$2$domain$ 
--- From 'obj\queueM_fact.744E8FC1.obj'
02:0009F1B0 interface$modifiable{@Type} 
--- From 'obj\commandLineParser.67E728BA.obj'
02:0009F240 $modifiable{@Type}$_global_class$1$domain$ 
02:0009F270 interface$multiMapM{@Key,@Data} 
02:0009F310 $multiMapM{@Key,@Data}$_global_class$2$domain$ 
02:0009F340 interface$persistent{@Self,@Type} 
02:0009F3E0 $persistent{@Self,@Type}$_global_class$2$domain$ 
--- From 'obj\queueM_fact.744E8FC1.obj'
02:0009F410 interface$queueM{@Type} 
02:0009F490 $queueM{@Type}$_global_class$1$domain$ 
--- From 'obj\commandLineParser.67E728BA.obj'
02:0009F4C0 interface$queueP{@Type} 
02:0009F540 $queueP{@Type}$_global_class$1$domain$ 
02:0009F570 interface$set{@Type} 
02:0009F5E0 $set{@Type}$_global_class$1$domain$ 
02:0009F600 interface$setM{@Type} 
02:0009F680 $setM{@Type}$_global_class$1$domain$ 
02:0009F6B0 interface$setP{@Type} 
02:0009F730 $setP{@Type}$_global_class$1$domain$ 
--- From 'obj\string.19AABD3B.obj'
02:0009F760 interface$outputStream_string 
02:0009F800 $outputStream_string$_global_class$0$domain$ 
--- From 'obj\weakReference.0A1AF11C.obj'
02:0009F840 interface$weakReference{@Type} 
02:0009F8F0 $weakReference{@Type}$_global_class$1$domain$ 
--- From 'obj\iterator.60C55021.obj'
02:0009F930 interface$iterator{@Elem} 
02:0009F9C0 $iterator{@Elem}$_global_class$1$domain$ 
--- From 'obj\segmentedSupport.2BAFE67D.obj'
02:0009F9F0 interface$segmentedSupport{@Segment} 
02:0009FAD0 $segmentedSupport{@Segment}$_global_class$1$domain$ 
--- From 'obj\console.E8EB4F3C.obj'
02:0009FB10 interface$segmentedSupportSite{@Segment} 
--- From 'obj\segmentedSupport.2BAFE67D.obj'
02:0009FC00 $segmentedSupportSite{@Segment}$_global_class$1$domain$ 
--- From 'obj\outputStreamSupport.6F229CFB.obj'
02:0009FC50 interface$outputBuffer 
--- From 'obj\console.E8EB4F3C.obj'
02:0009FD00 $outputBuffer$_global_class$0$domain$ 
--- From 'obj\outputStreamSupport.6F229CFB.obj'
02:0009FD40 interface$outputStreamSegmentedSupport{@Segment} 
02:0009FE40 $outputStreamSegmentedSupport{@Segment}$_global_class$1$domain$ 
02:0009FEA0 interface$outputStreamSupport 
02:0009FF70 $outputStreamSupport$_global_class$0$domain$ 
02:0009FFB0 interface$outputStreamSupportSite 
--- From 'obj\console.E8EB4F3C.obj'
02:000A0090 $outputStreamSupportSite$_global_class$0$domain$ 
--- From 'obj\time.6AFD2988.obj'
02:000A00E0 interface$calendarDuration 
02:000A0170 $calendarDuration$_global_class$0$domain$ 
02:000A01B0 interface$duration 
02:000A0220 $duration$_global_class$0$domain$ 
02:000A0250 interface$gmtTime 
--- From 'obj\core.5D9B9483.obj'
02:000A02C0 $gmtTime$_global_class$0$domain$ 
02:000A02F0 interface$timeInterval 
02:000A0370 $timeInterval$_global_class$0$domain$ 
02:000A03B0 interface$calendarInterval 
02:000A0430 $calendarInterval$_global_class$0$domain$ 
--- From 'obj\time.6AFD2988.obj'
02:000A0470 interface$time 
02:000A04D0 $time$_global_class$0$domain$ 
--- From 'obj\core.5D9B9483.obj'
02:000A052E $iso8601_seconds$time_interface$0$domain$ 
--- From 'obj\time.6AFD2988.obj'
02:000A05F0 interface$timeFormatter 
02:000A0670 $timeFormatter$_global_class$0$domain$ 
--- From 'obj\core.5D9B9483.obj'
02:000A06B0 interface$resourceIdentifiers 
02:000A0740 $resourceIdentifiers$_global_class$0$domain$ 
--- From 'obj\exception.B6F320E8.obj'
02:000A0780 interface$outputStream_binary 
02:000A0820 $outputStream_binary$_global_class$0$domain$ 
02:000A0860 interface$arrayM_inline{@ItemType} 
02:000A0920 $arrayM_inline{@ItemType}$_global_class$1$domain$ 
--- From 'obj\srwLock.8CC714FD.obj'
02:000A0960 interface$criticalSection 
--- From 'obj\exception.B6F320E8.obj'
02:000A0A00 $criticalSection$_global_class$0$domain$ 
02:000A0A40 interface$event 
02:000A0AB0 $event$_global_class$0$domain$ 
02:000A0AE0 interface$mutex 
02:000A0B50 $mutex$_global_class$0$domain$ 
02:000A0B80 interface$semaphore 
02:000A0C00 $semaphore$_global_class$0$domain$ 
02:000A0C30 interface$syncObject 
02:000A0CB0 $syncObject$_global_class$0$domain$ 
02:000A0CE0 interface$thread 
02:000A0D50 $thread$_global_class$0$domain$ 
02:000A0D80 interface$waitableTimer 
02:000A0E10 $waitableTimer$_global_class$0$domain$ 
--- From 'obj\mapM_redBlack.875A0474.obj'
02:000A0E50 interface$collectionSupport\mapMSupport{@Key,@Data} 
02:000A0F40 $collectionSupport\mapMSupport{@Key,@Data}$_global_class$2$domain$ 
02:000A0FA0 interface$collectionSupport\mapMSupportSite{@Key,@Data} 
02:000A10A0 $collectionSupport\mapMSupportSite{@Key,@Data}$_global_class$2$domain$ 
--- From 'obj\collectionMsupport.3A44ED4E.obj'
02:000A1100 interface$collectionSupport\collectionSupport{@Type} 
--- From 'obj\mapM_redBlack.875A0474.obj'
02:000A1200 $collectionSupport\collectionSupport{@Type}$_global_class$1$domain$ 
--- From 'obj\collectionMsupport.3A44ED4E.obj'
02:000A1260 interface$collectionSupport\collectionSupportSite{@Type} 
--- From 'obj\mapM_redBlack.875A0474.obj'
02:000A1370 $collectionSupport\collectionSupportSite{@Type}$_global_class$1$domain$ 
02:000A13E0 interface$collectionSupport\mapSupport{@Key,@Data} 
02:000A14C0 $collectionSupport\mapSupport{@Key,@Data}$_global_class$2$domain$ 
02:000A1520 interface$collectionSupport\mapSupportSite{@Key,@Data} 
02:000A1610 $collectionSupport\mapSupportSite{@Key,@Data}$_global_class$2$domain$ 
--- From 'obj\collectionMsupport.3A44ED4E.obj'
02:000A1670 interface$collectionSupport\modifiableSupport{@Type} 
--- From 'obj\mapM_redBlack.875A0474.obj'
02:000A1770 $collectionSupport\modifiableSupport{@Type}$_global_class$1$domain$ 
--- From 'obj\collectionMsupport.3A44ED4E.obj'
02:000A17D0 interface$collectionSupport\modifiableSupportSite{@Type} 
--- From 'obj\mapM_redBlack.875A0474.obj'
02:000A18E0 $collectionSupport\modifiableSupportSite{@Type}$_global_class$1$domain$ 
--- From 'obj\fileSystem.5B0F823E.obj'
02:000A1950 interface$inputSupport_mode 
02:000A1A10 $inputSupport_mode$_global_class$0$domain$ 
02:000A1A50 interface$inputSupportSite_mode 
02:000A1B20 $inputSupportSite_mode$_global_class$0$domain$ 
--- From 'obj\Shell_api.E8D4E14B.obj'
02:000A1B70 interface$comDispInterface 
02:000A1C00 $comDispInterface$_global_class$0$domain$ 
02:000A1C40 interface$comInterface 
02:000A1CC0 $comInterface$_global_class$0$domain$ 
02:000A1D00 interface$comMemoryArray{@Type} 
02:000A1DB0 $comMemoryArray{@Type}$_global_class$1$domain$ 
02:000A1DF0 interface$iAdviseSink2_native 
02:000A1ED0 $iAdviseSink2_native$_global_class$0$domain$ 
02:000A1F10 interface$iAdviseSink_native 
02:000A1FF0 $iAdviseSink_native$_global_class$0$domain$ 
02:000A2030 interface$iAdviseSinkEx_native 
02:000A2110 $iAdviseSinkEx_native$_global_class$0$domain$ 
02:000A2160 interface$iAuthenticate_native 
02:000A2240 $iAuthenticate_native$_global_class$0$domain$ 
02:000A2290 interface$iBindCtx_native 
02:000A2360 $iBindCtx_native$_global_class$0$domain$ 
02:000A23A0 interface$iClassFactory2_native 
02:000A2480 $iClassFactory2_native$_global_class$0$domain$ 
02:000A24D0 interface$iClassFactory_native 
02:000A25B0 $iClassFactory_native$_global_class$0$domain$ 
02:000A2600 interface$iClientSecurity_native 
02:000A26F0 $iClientSecurity_native$_global_class$0$domain$ 
02:000A2740 interface$iConnectionPoint_native 
02:000A2830 $iConnectionPoint_native$_global_class$0$domain$ 
02:000A2880 interface$iConnectionPointContainer_native 
02:000A2990 $iConnectionPointContainer_native$_global_class$0$domain$ 
02:000A29F0 interface$iCreateErrorInfo_native 
02:000A2AE0 $iCreateErrorInfo_native$_global_class$0$domain$ 
02:000A2B30 interface$iCreateTypeInfo2_native 
02:000A2C20 $iCreateTypeInfo2_native$_global_class$0$domain$ 
02:000A2C70 interface$iCreateTypeInfo_native 
02:000A2D60 $iCreateTypeInfo_native$_global_class$0$domain$ 
02:000A2DB0 interface$iCreateTypeLib2_native 
02:000A2EA0 $iCreateTypeLib2_native$_global_class$0$domain$ 
02:000A2EF0 interface$iCreateTypeLib_native 
02:000A2FD0 $iCreateTypeLib_native$_global_class$0$domain$ 
02:000A3020 interface$iDataAdviseHolder_native 
02:000A3110 $iDataAdviseHolder_native$_global_class$0$domain$ 
02:000A3160 interface$iDataObject_native 
02:000A3240 $iDataObject_native$_global_class$0$domain$ 
02:000A3280 interface$iDispatchEx 
02:000A3340 $iDispatchEx$_global_class$0$domain$ 
02:000A3370 interface$iDropSource_native 
02:000A3450 $iDropSource_native$_global_class$0$domain$ 
02:000A3490 interface$iDropTarget_native 
02:000A3570 $iDropTarget_native$_global_class$0$domain$ 
02:000A35B0 interface$iEnumConnectionPoints_native 
02:000A36C0 $iEnumConnectionPoints_native$_global_class$0$domain$ 
02:000A3720 interface$iEnumConnections_native 
02:000A3820 $iEnumConnections_native$_global_class$0$domain$ 
02:000A389C $connectdata$iEnumConnections_native_interface$0$domain$ 
02:000A38E0 interface$iEnumFormatEtc_native 
02:000A39E0 $iEnumFormatEtc_native$_global_class$0$domain$ 
02:000A3A30 interface$iEnumMoniker_native 
02:000A3B20 $iEnumMoniker_native$_global_class$0$domain$ 
02:000A3B60 interface$iEnumOLEVERB_native 
02:000A3C50 $iEnumOLEVERB_native$_global_class$0$domain$ 
02:000A3C90 interface$iEnumSTATDATA_native 
02:000A3D80 $iEnumSTATDATA_native$_global_class$0$domain$ 
02:000A3E0C $statdata$iEnumSTATDATA_native_interface$0$domain$ 
02:000A3E40 interface$iEnumStatstg_native 
02:000A3F30 $iEnumStatstg_native$_global_class$0$domain$ 
02:000A3F70 interface$iEnumString_native 
02:000A4060 $iEnumString_native$_global_class$0$domain$ 
02:000A40A0 interface$iEnumUnknown_native 
02:000A4190 $iEnumUnknown_native$_global_class$0$domain$ 
02:000A41D0 interface$iEnumVariant_native 
02:000A42C0 $iEnumVariant_native$_global_class$0$domain$ 
02:000A4300 interface$iErrorInfo_native 
02:000A43D0 $iErrorInfo_native$_global_class$0$domain$ 
02:000A4410 interface$iFillLockBytes_native 
02:000A44F0 $iFillLockBytes_native$_global_class$0$domain$ 
02:000A4540 interface$iFont_native 
02:000A4600 $iFont_native$_global_class$0$domain$ 
02:000A4640 interface$iFontDisp_native 
02:000A4710 $iFontDisp_native$_global_class$0$domain$ 
02:000A4750 interface$iGlobalInterfaceTable_native 
02:000A4850 $iGlobalInterfaceTable_native$_global_class$0$domain$ 
02:000A48B0 interface$iLockBytes_native 
02:000A4980 $iLockBytes_native$_global_class$0$domain$ 
02:000A49C0 interface$iMalloc_native 
02:000A4A90 $iMalloc_native$_global_class$0$domain$ 
02:000A4AD0 interface$iMallocSpy_native 
02:000A4BA0 $iMallocSpy_native$_global_class$0$domain$ 
02:000A4BE0 interface$iMarshal_native 
02:000A4CB0 $iMarshal_native$_global_class$0$domain$ 
02:000A4CF0 interface$iMoniker_native 
02:000A4DC0 $iMoniker_native$_global_class$0$domain$ 
02:000A4E00 interface$iMultiQI_native 
02:000A4ED0 $iMultiQI_native$_global_class$0$domain$ 
02:000A4F10 interface$iParseDisplayName_native 
02:000A5000 $iParseDisplayName_native$_global_class$0$domain$ 
02:000A5050 interface$iPersist_native 
02:000A5120 $iPersist_native$_global_class$0$domain$ 
02:000A5160 interface$iPersistStorage_native 
02:000A5250 $iPersistStorage_native$_global_class$0$domain$ 
02:000A52A0 interface$iPersistStream_native 
02:000A5380 $iPersistStream_native$_global_class$0$domain$ 
02:000A53D0 interface$iPersistStreamInit_native 
02:000A54C0 $iPersistStreamInit_native$_global_class$0$domain$ 
02:000A5510 interface$iPicture_native 
02:000A55E0 $iPicture_native$_global_class$0$domain$ 
02:000A5620 interface$iPictureDisp_native 
02:000A5700 $iPictureDisp_native$_global_class$0$domain$ 
02:000A5740 interface$iPropertyNotifySink_native 
02:000A5840 $iPropertyNotifySink_native$_global_class$0$domain$ 
02:000A5890 interface$iProvideClassInfo2_native 
02:000A5980 $iProvideClassInfo2_native$_global_class$0$domain$ 
02:000A59D0 interface$iProvideClassInfo_native 
02:000A5AC0 $iProvideClassInfo_native$_global_class$0$domain$ 
02:000A5B10 interface$iRecordInfo_native 
02:000A5BF0 $iRecordInfo_native$_global_class$0$domain$ 
02:000A5C30 interface$iRootStorage_native 
02:000A5D10 $iRootStorage_native$_global_class$0$domain$ 
02:000A5D50 interface$iROTData_native 
02:000A5E20 $iROTData_native$_global_class$0$domain$ 
02:000A5E60 interface$iRunningObjectTable_native 
02:000A5F60 $iRunningObjectTable_native$_global_class$0$domain$ 
02:000A5FB0 interface$iServerSecurity_native 
02:000A60A0 $iServerSecurity_native$_global_class$0$domain$ 
02:000A60F0 interface$iServiceProvider_native 
02:000A61E0 $iServiceProvider_native$_global_class$0$domain$ 
02:000A6230 interface$iStdMarshalInfo_native 
02:000A6320 $iStdMarshalInfo_native$_global_class$0$domain$ 
02:000A6370 interface$iStorage_native 
02:000A6440 $iStorage_native$_global_class$0$domain$ 
02:000A6480 interface$iSupportErrorInfo_native 
02:000A6570 $iSupportErrorInfo_native$_global_class$0$domain$ 
02:000A65C0 interface$iTypeInfo2_native 
02:000A6690 $iTypeInfo2_native$_global_class$0$domain$ 
02:000A66D0 interface$iTypeLib2_native 
02:000A67A0 $iTypeLib2_native$_global_class$0$domain$ 
02:000A67E0 interface$picture_native 
02:000A68B0 $picture_native$_global_class$0$domain$ 
--- From 'obj\iterator.60C55021.obj'
02:000A68F0 interface$object 
--- From 'obj\main.789E136F.obj'
02:000A6930 $object$_global_class$0$domain$ 
02:000A6960 interface$heapframe 
02:000A69B0 $heapframe$_global_class$0$domain$ 
02:000A69E0 interface$varM{@Term} 
--- From 'obj\iterator.60C55021.obj'
02:000A6A70 $varM{@Term}$_global_class$1$domain$ 
--- From 'obj\main.789E136F.obj'
02:000A6AA0 interface$varM_boolean 
02:000A6B40 $varM_boolean$_global_class$0$domain$ 
02:000A6B80 interface$varM_integer 
02:000A6C20 $varM_integer$_global_class$0$domain$ 
02:000A6C60 interface$varM_lazy{@Term} 
02:000A6D00 $varM_lazy{@Term}$_global_class$1$domain$ 
02:000A6D30 interface$varM_optional{@Term} 
02:000A6DE0 $varM_optional{@Term}$_global_class$1$domain$ 
02:000A6E20 interface$varM_unsigned 
02:000A6EC0 $varM_unsigned$_global_class$0$domain$ 
02:000A6F00 interface$commandLineParser 
02:000A6FB0 $commandLineParser$_global_class$0$domain$ 
02:000A6FF0 interface$event0 
02:000A7060 $event0$_global_class$0$domain$ 
02:000A7090 $listener$event0_interface$0$domain$ 
02:000A70C0 interface$event1{@Type1} 
02:000A7140 $event1{@Type1}$_global_class$1$domain$ 
02:000A7170 $listener$event1{@Type1}_interface$0$domain$ 
02:000A71A0 interface$event2{@Type1,@Type2} 
02:000A7230 $event2{@Type1,@Type2}$_global_class$2$domain$ 
02:000A7260 $listener$event2{@Type1,@Type2}_interface$0$domain$ 
02:000A7290 interface$event3{@Type1,@Type2,@Type3} 
02:000A7320 $event3{@Type1,@Type2,@Type3}$_global_class$3$domain$ 
02:000A7350 $listener$event3{@Type1,@Type2,@Type3}_interface$0$domain$ 
02:000A7380 interface$event4{@Type1,@Type2,@Type3,@Type4} 
02:000A7420 $event4{@Type1,@Type2,@Type3,@Type4}$_global_class$4$domain$ 
02:000A7450 $listener$event4{@Type1,@Type2,@Type3,@Type4}_interface$0$domain$ 
02:000A7480 interface$event5{@Type1,@Type2,@Type3,@Type4,@Type5} 
02:000A7530 $event5{@Type1,@Type2,@Type3,@Type4,@Type5}$_global_class$5$domain$ 
02:000A7560 $listener$event5{@Type1,@Type2,@Type3,@Type4,@Type5}_interface$0$domain$ 
02:000A7590 interface$event6{@Type1,@Type2,@Type3,@Type4,@Type5,@Type6} 
02:000A7650 $event6{@Type1,@Type2,@Type3,@Type4,@Type5,@Type6}$_global_class$6$domain$ 
02:000A7680 $listener$event6{@Type1,@Type2,@Type3,@Type4,@Type5,@Type6}_interface$0$domain$ 
02:000A76B0 interface$event7{@Type1,@Type2,@Type3,@Type4,@Type5,@Type6,@Type7} 
02:000A7780 $event7{@Type1,@Type2,@Type3,@Type4,@Type5,@Type6,@Type7}$_global_class$7$domain$ 
02:000A77B0 $listener$event7{@Type1,@Type2,@Type3,@Type4,@Type5,@Type6,@Type7}_interface$0$domain$ 
02:000A77E0 interface$errorDescriptorInformation 
02:000A78A0 $errorDescriptorInformation$_global_class$0$domain$ 
02:000A78F0 interface$trapInformationObject 
02:000A79A0 $trapInformationObject$_global_class$0$domain$ 
02:000A79F0 interface$pfc\reflection\factDescriptor 
02:000A7AC0 $pfc\reflection\factDescriptor$_global_class$0$domain$ 
02:000A7B20 interface$pfc\reflection\functorDescriptor 
02:000A7BF0 $pfc\reflection\functorDescriptor$_global_class$0$domain$ 
02:000A7C7E $factRepresentationKind$pfc\reflection\functorDescriptor_interface$0$domain$ 
02:000A7DA0 interface$pfc\reflection\scopeDescriptor 
02:000A7E70 $pfc\reflection\scopeDescriptor$_global_class$0$domain$ 
02:000A7EF2 $scopeKind$pfc\reflection\scopeDescriptor_interface$0$domain$ 
02:000A7F90 interface$pfc\reflection\typeDescriptor 
02:000A8060 $pfc\reflection\typeDescriptor$_global_class$0$domain$ 
02:000A80C0 interface$pfc\reflection\typeDescriptor_arrow 
02:000A81A0 $pfc\reflection\typeDescriptor_arrow$_global_class$0$domain$ 
02:000A8264 $callTypeDescriptor$pfc\reflection\typeDescriptor_arrow_interface$0$domain$ 
02:000A82E8 $callArgumentDescriptor$pfc\reflection\typeDescriptor_arrow_interface$0$domain$ 
02:000A8340 interface$pfc\reflection\typeLibrary 
02:000A8400 $pfc\reflection\typeLibrary$_global_class$0$domain$ 
02:000A8450 $presenter$pfc\reflection\typeLibrary_interface$0$domain$ 
02:000A8480 interface$pfc\reflection\typeLibrary_arrow 
02:000A8550 $pfc\reflection\typeLibrary_arrow$_global_class$0$domain$ 
02:000A85EC $formalParameter$pfc\reflection\typeLibrary_arrow_interface$0$domain$ 
02:000A86C4 $typePattern$pfc\reflection\typeLibrary_arrow_interface$0$domain$ 
02:000A8750 interface$pfc\reflection\typeLibrary_functor 
02:000A8830 $pfc\reflection\typeLibrary_functor$_global_class$0$domain$ 
02:000A8890 interface$pfc\reflection\typeLibrary_numeric 
02:000A8970 $pfc\reflection\typeLibrary_numeric$_global_class$0$domain$ 
--- From 'obj\outputStreamSupport.6F229CFB.obj'
02:000A89D0 interface$bufferSupport 
--- From 'obj\main.789E136F.obj'
02:000A8A60 $bufferSupport$_global_class$0$domain$ 
02:000A8AA0 interface$inputStream 
02:000A8B20 $inputStream$_global_class$0$domain$ 
02:000A8B50 interface$inputBuffer 
02:000A8BF0 $inputBuffer$_global_class$0$domain$ 
02:000A8C20 interface$inputSupport 
02:000A8CD0 $inputSupport$_global_class$0$domain$ 
--- From 'obj\outputStreamSupport.6F229CFB.obj'
02:000A8D10 interface$outputStream 
--- From 'obj\main.789E136F.obj'
02:000A8D90 $outputStream$_global_class$0$domain$ 
02:000A8DD0 $outputSerializer$outputStream_interface$0$domain$ 
02:000A8E10 interface$outputStreamSegmented{@Segment} 
02:000A8ED0 $outputStreamSegmented{@Segment}$_global_class$1$domain$ 
02:000A8F20 interface$stdioState 
02:000A8FA0 $stdioState$_global_class$0$domain$ 
--- From 'obj\outputStreamSupport.6F229CFB.obj'
02:000A8FD0 interface$stream 
--- From 'obj\main.789E136F.obj'
02:000A9040 $stream$_global_class$0$domain$ 
02:000A90CC $mode$stream_interface$0$domain$ 
02:000A9130 interface$iDispatch 
02:000A91E0 $iDispatch$_global_class$0$domain$ 
--- From 'obj\iStream_api.935D2F36.obj'
02:000A9210 interface$iSequentialStream_native 
--- From 'obj\main.789E136F.obj'
02:000A9300 $iSequentialStream_native$_global_class$0$domain$ 
--- From 'obj\iStream_api.935D2F36.obj'
02:000A9350 interface$iStream_native 
02:000A9410 $iStream_native$_global_class$0$domain$ 
--- From 'obj\main.789E136F.obj'
02:000A9450 interface$iTypeComp_native 
02:000A9520 $iTypeComp_native$_global_class$0$domain$ 
02:000A9560 interface$iTypeInfo_native 
02:000A9630 $iTypeInfo_native$_global_class$0$domain$ 
02:000A9670 interface$iTypeLib_native 
02:000A9740 $iTypeLib_native$_global_class$0$domain$ 
--- From 'obj\iStream_api.935D2F36.obj'
02:000A9780 interface$iUnknown 
--- From 'obj\main.789E136F.obj'
02:000A9830 $iUnknown$_global_class$0$domain$ 
02:000A9860 interface$linknames_vipKernel 
02:000A98F0 $linknames_vipKernel$_global_class$0$domain$ 
02:000A9930 interface$linknames_vipRun 
02:000A99C0 $linknames_vipRun$_global_class$0$domain$ 
--- From 'obj\uncollectable.CD38F31A.obj'
02:000A9A00 interface$uncollectable 
02:000A9AA0 $uncollectable$_global_class$0$domain$ 
--- From 'obj\math.5D7D6037.obj'
02:000A9AE0 interface$random 
02:000A9B50 $random$_global_class$0$domain$ 
--- From 'obj\time.6AFD2988.obj'
02:000A9B80 interface$iso8601Parser 
02:000A9C20 $iso8601Parser$_global_class$0$domain$ 
076000:033C60 000090   VIPBrow::VIPBrow::.rdata F=4
--- From 'obj\memory.568C55F8.obj'
02:000A9C60 v$$constant$$00000008  (Idle)
--- From 'obj\string8.355639C6.obj'
02:000A9C70 v$$constant$$00000003  (Idle)
--- From 'obj\memory.568C55F8.obj'
02:000A9C80 v$$constant$$00000004  (Idle)
02:000A9C90 v$$constant$$00000001  (Idle)
02:000A9CA0 v$$constant$$00000002  (Idle)
--- From 'obj\gui_api.9FE53D0D.obj'
02:000A9CB0 v$$constant$$0000002C  (Idle)
02:000A9CC0 v$$constant$$00000030  (Idle)
--- From 'obj\time.6AFD2988.obj'
02:000A9CD0 v$$constant$$0000  (Idle)
--- From 'obj\gui_api.9FE53D0D.obj'
02:000A9CE0 v$$constant$$0000001C  (Idle)
076000:033CF0 003CB0   VIPTypeL::VIPTypeL::.rdata F=4
--- From 'obj\random.27B461AB.obj'
02:000A9CF0 $srwLock$_global_class$0$domain$$type_library$ 
02:000A9D00 $state$random_implement$0$domain$$type_library$ 
02:000A9D10 $random@objectDB$random_implement$0$domain$$type_library$ 
02:000A9D20 $random32/0nf$1$random_implement$0$domain$$type_library$ 
02:000A9D30 $random64/0nf$1$random_implement$0$domain$$type_library$ 
02:000A9D40 $serializestate/1np$1$random_implement$0$domain$$type_library$ 
--- From 'obj\comSupport.C599FD18.obj'
02:000A9D50 $*$_builtIn_class$1$domain$$type_library$1${class$_builtIn::_someType$}$static$ 
02:000A9D60 $*$_builtIn_class$1$domain$$type_library$1${class$comDomains::variant$}$static$ 
--- From 'obj\exceptionHandling.2B4136FF.obj'
02:000A9D70 $supportErrorInfoManager$_global_class$0$domain$$type_library$ 
--- From 'obj\comSupport.C599FD18.obj'
02:000A9D80 $stgFormat$compoundFile_class$0$domain$$type_library$ 
02:000A9D90 $stgm$compoundFile_class$0$domain$$type_library$ 
02:000A9DA0 $storageObject$compoundFile_class$0$domain$$type_library$ 
02:000A9DB0 $asyncFlag$compoundFile_class$0$domain$$type_library$ 
02:000A9DC0 $comMemoryArray@objectDB$comMemoryArray{@Type}_implement$0$domain$$type_library$ 
02:000A9DD0 $commemoryarray$typeLibDB$comMemoryArray{@Type}_implement$0$domain$$type_library$ 
02:000A9DE0 $memoryFlag$comMemory_class$0$domain$$type_library$ 
02:000A9DF0 $comInterface@objectDB$comInterface_implement$0$domain$$type_library$ 
02:000A9E00 $comDispInterface@objectDB$comDispInterface_implement$0$domain$$type_library$ 
02:000A9E10 $classContext$comCreation_class$0$domain$$type_library$ 
--- From 'obj\guid.EF75E950.obj'
02:000A9E20 $nativeGuid4$guid_implement$0$domain$$type_library$ 
--- From 'obj\setM_redBlack.16EF8DC5.obj'
02:000A9E30 $setM_redBlack@objectDB$setM_redBlack{@Type}_implement$0$domain$$type_library$ 
02:000A9E40 $setm_redblack$typeLibDB$setM_redBlack{@Type}_implement$0$domain$$type_library$ 
--- From 'obj\iso8601Parser.F0F6BC83.obj'
02:000A9E50 $iso8601Parser@objectDB$iso8601Parser_implement$0$domain$$type_library$ 
--- From 'obj\criticalSectionSupport.6958A988.obj'
02:000A9E60 $criticalSectionSupport@objectDB$criticalSectionSupport_implement$0$domain$$type_library$ 
--- From 'obj\binary.248EF86D.obj'
02:000A9E70 $inputStream_binary@objectDB$inputStream_binary_implement$0$domain$$type_library$ 
02:000A9E80 $binaryRep$binary_implement$0$domain$$type_library$ 
--- From 'obj\multiThread.32507C62.obj'
02:000A9E90 $arrayM_inline{@ItemType}$_global_class$1$domain$$type_library$1${class$windowsAPI::syncHandle$}$static$ 
02:000A9EA0 $criticalSectionSupport$_global_class$0$domain$$type_library$ 
02:000A9EB0 $criticalSectionSupportSite$_global_class$0$domain$$type_library$ 
02:000A9EC0 $threadEntryParam$thread_implement$0$domain$$type_library$ 
02:000A9ED0 $threadname_info$thread_implement$0$domain$$type_library$ 
02:000A9EE0 $thread@objectDB$thread_implement$0$domain$$type_library$ 
02:000A9EF0 $thread@classDB$thread_implement$0$domain$$type_library$ 
02:000A9F00 $syncObject@objectDB$syncObject_implement$0$domain$$type_library$ 
02:000A9F10 $criticalSection@objectDB$criticalSection_implement$0$domain$$type_library$ 
--- From 'obj\arrayM_inline.F665267A.obj'
02:000A9F20 $arrayM_inline@objectDB$arrayM_inline{@ItemType}_implement$0$domain$$type_library$ 
02:000A9F30 $arrayM_inline@classDB$arrayM_inline{@ItemType}_implement$0$domain$$type_library$ 
02:000A9F40 $arraym_inline$typeLibDB$arrayM_inline{@ItemType}_implement$0$domain$$type_library$ 
--- From 'obj\exception.B6F320E8.obj'
02:000A9F50 $memory_basic_information$memory_native_class$0$domain$$type_library$ 
--- From 'obj\memory_api.EF10D306.obj'
02:000A9F60 $memoryStatusEx$memory_native_class$0$domain$$type_library$ 
02:000A9F70 $process_memory_counters$memory_native_class$0$domain$$type_library$ 
02:000A9F80 $garbageCollectorStatistics$memory_api_class$0$domain$$type_library$ 
--- From 'obj\string_api.2E13EA53.obj'
02:000A9F90 $optional$core_class$1$domain$$type_library$1${class$_builtIn::string$}$static$ 
02:000A9FA0 $norm_form$string_native_class$0$domain$$type_library$ 
--- From 'obj\registry.917E8C91.obj'
02:000A9FB0 $rootKey$registry_class$0$domain$$type_library$ 
02:000A9FC0 $registryView$registry_class$0$domain$$type_library$ 
--- From 'obj\redBlackTreeRep.E6A269FA.obj'
02:000A9FD0 $uniqueKey$redBlackTreeRep_class$0$domain$$type_library$ 
02:000A9FE0 $partialCompare$redBlackTreeRep_class$1$domain$$type_library$ 
--- From 'obj\mapMSupport.8CD6C048.obj'
02:000A9FF0 $mapMSupport@objectDB$collectionSupport\mapMSupport{@Key,@Data}_implement$0$domain$$type_library$ 
02:000AA000 $mapmsupport$typeLibDB$collectionSupport\mapMSupport{@Key,@Data}_implement$0$domain$$type_library$ 
--- From 'obj\mapSupport.C7248B7B.obj'
02:000AA010 $mapSupport@objectDB$collectionSupport\mapSupport{@Key,@Data}_implement$0$domain$$type_library$ 
02:000AA020 $mapsupport$typeLibDB$collectionSupport\mapSupport{@Key,@Data}_implement$0$domain$$type_library$ 
--- From 'obj\collectionSupport.A039CC0D.obj'
02:000AA030 $collectionSupport@objectDB$collectionSupport\collectionSupport{@Type}_implement$0$domain$$type_library$ 
02:000AA040 $collectionsupport$typeLibDB$collectionSupport\collectionSupport{@Type}_implement$0$domain$$type_library$ 
--- From 'obj\modifiableSupport.5D48FFF1.obj'
02:000AA050 $modifiableSupport@objectDB$collectionSupport\modifiableSupport{@Type}_implement$0$domain$$type_library$ 
02:000AA060 $modifiablesupport$typeLibDB$collectionSupport\modifiableSupport{@Type}_implement$0$domain$$type_library$ 
--- From 'obj\segmented_binary.C16992E7.obj'
02:000AA070 $segmentedSupport{@Segment}$_global_class$1$domain$$type_library$1${class$_builtIn::binary$}$static$ 
02:000AA080 $segmented_binary@classDB$segmented_binary_implement$0$domain$$type_library$ 
--- From 'obj\segmented_utf16.76E668A2.obj'
02:000AA090 $segmentedSupport{@Segment}$_global_class$1$domain$$type_library$1${class$_builtIn::string$}$static$ 
02:000AA0A0 $segmented_utf16@classDB$segmented_utf16_implement$0$domain$$type_library$ 
--- From 'obj\inputSupport_mode.ADC075EF.obj'
02:000AA0B0 $inputSupport_mode@objectDB$inputSupport_mode_implement$0$domain$$type_library$ 
--- From 'obj\systemInformation_api.809129C1.obj'
02:000AA0C0 $system_Info$systemInformation_native_class$0$domain$$type_library$ 
02:000AA0D0 $osVersionInfo$systemInformation_native_class$0$domain$$type_library$ 
02:000AA0E0 $osVersionInfoEX$systemInformation_native_class$0$domain$$type_library$ 
02:000AA0F0 $nonclientMetricsXP$systemInformation_native_class$0$domain$$type_library$ 
02:000AA100 $nonclientMetrics$systemInformation_native_class$0$domain$$type_library$ 
--- From 'obj\commandLineParser.67E728BA.obj'
02:000AA110 $tuple$core_class$3$domain$$type_library$3${typelib(class$_builtIn::string*)$typelib({class$_builtIn::string*$}$$$procedure$(i)$prolog$)$typelib(class$_builtIn::boolean)$}$static$ 
02:000AA130 $*$_builtIn_class$1$domain$$type_library$1${class$_builtIn::string$}$static$ 
02:000AA140 $predicate$core_class$1$domain$$type_library$1${typelib(class$_builtIn::string*)$}$static$ 
02:000AA150 $outputStream_string$_global_class$0$domain$$type_library$ 
02:000AA160 $resultDB$commandLineParser_implement$0$domain$$type_library$ 
02:000AA170 $commandLineParser@objectDB$commandLineParser_implement$0$domain$$type_library$ 
02:000AA180 $addoption_0/3np$1$commandLineParser_implement$0$domain$$type_library$ 
02:000AA190 $addoption_1/4np$1$commandLineParser_implement$0$domain$$type_library$ 
02:000AA1A0 $addoption_2/5np$1$commandLineParser_implement$0$domain$$type_library$ 
02:000AA1B0 $addoption_n/3np$1$commandLineParser_implement$0$domain$$type_library$ 
02:000AA1C0 $addoption_boolean/3np$1$commandLineParser_implement$0$domain$$type_library$ 
02:000AA1D0 $addoption_help/1np$1$commandLineParser_implement$0$domain$$type_library$ 
--- From 'obj\varM.B882E173.obj'
02:000AA1E0 $varM_reference@objectDB$varM_reference{@Term}_implement$0$domain$$type_library$ 
02:000AA1F0 $varm_reference$typeLibDB$varM_reference{@Term}_implement$0$domain$$type_library$ 
02:000AA200 $varm_optional$typeLibDB$varM_optional{@Term}_implement$0$domain$$type_library$ 
02:000AA210 $varM_lazy@objectDB$varM_lazy{@Term}_implement$0$domain$$type_library$ 
02:000AA220 $varm_lazy$typeLibDB$varM_lazy{@Term}_implement$0$domain$$type_library$ 
02:000AA230 $varM@objectDB$varM{@Term}_implement$0$domain$$type_library$ 
02:000AA240 $varm$typeLibDB$varM{@Term}_implement$0$domain$$type_library$ 
--- From 'obj\outputStreamSupport.6F229CFB.obj'
02:000AA250 $outputBuffer$_global_class$0$domain$$type_library$ 
--- From 'obj\console.E8EB4F3C.obj'
02:000AA260 $outputStreamSupport$_global_class$0$domain$$type_library$ 
--- From 'obj\outputStreamSupport.6F229CFB.obj'
02:000AA270 $outputStreamSupportSite$_global_class$0$domain$$type_library$ 
--- From 'obj\console.E8EB4F3C.obj'
02:000AA280 $outputStream_console@objectDB$outputStream_console_implement$0$domain$$type_library$ 
02:000AA290 $inputStream_console@objectDB$inputStream_console_implement$0$domain$$type_library$ 
02:000AA2A0 $event$console_class$0$domain$$type_library$ 
02:000AA2B0 $console@classDB$console_implement$0$domain$$type_library$ 
--- From 'obj\exceptionDump.2B9C9E40.obj'
02:000AA2C0 $namedValue$core_class$1$domain$$type_library$1${class$core::value$}$static$ 
--- From 'obj\presenter.E6E77556.obj'
02:000AA2D0 $function$core_class$1$domain$$type_library$1${class$presenter::presentation$}$static$ 
--- From 'obj\core.5D9B9483.obj'
02:000AA2E0 $calendarDuration$_global_class$0$domain$$type_library$ 
02:000AA2F0 $duration$_global_class$0$domain$$type_library$ 
--- From 'obj\time.6AFD2988.obj'
02:000AA300 $gmtTime$_global_class$0$domain$$type_library$ 
--- From 'obj\core.5D9B9483.obj'
02:000AA310 $timeInterval$_global_class$0$domain$$type_library$ 
02:000AA320 $calendarInterval$_global_class$0$domain$$type_library$ 
02:000AA330 $time$_global_class$0$domain$$type_library$ 
--- From 'obj\time.6AFD2988.obj'
02:000AA340 $iso8601_seconds$time_interface$0$domain$$type_library$ 
02:000AA350 $timeFormatter$_global_class$0$domain$$type_library$ 
--- From 'obj\core.5D9B9483.obj'
02:000AA360 $resourceIdentifiers$_global_class$0$domain$$type_library$ 
02:000AA370 $unit$core_class$0$domain$$type_library$ 
--- From 'obj\windowsAPI.FC171F8F.obj'
02:000AA380 $unsigned8$core_class$0$domain$$type_library$ 
--- From 'obj\time.6AFD2988.obj'
02:000AA390 $unsigned16$core_class$0$domain$$type_library$ 
--- From 'obj\core.5D9B9483.obj'
02:000AA3A0 $unsigned64_struct$core_class$0$domain$$type_library$ 
--- From 'obj\comDomains.234349D9.obj'
02:000AA3B0 $integer8$core_class$0$domain$$type_library$ 
--- From 'obj\com_api.B45865D0.obj'
02:000AA3C0 $integer16$core_class$0$domain$$type_library$ 
--- From 'obj\core.5D9B9483.obj'
02:000AA3D0 $integer64_struct$core_class$0$domain$$type_library$ 
--- From 'obj\exceptionDump.2B9C9E40.obj'
02:000AA3E0 $value$core_class$0$domain$$type_library$ 
02:000AA3F0 $gmtTimeValue$core_class$0$domain$$type_library$ 
02:000AA400 $localTimeValue$core_class$0$domain$$type_library$ 
--- From 'obj\exceptionHandling.2B4136FF.obj'
02:000AA410 $exception$core_class$0$domain$$type_library$ 
--- From 'obj\com_api.B45865D0.obj'
02:000AA420 $nativeGuid$core_class$0$domain$$type_library$ 
--- From 'obj\exceptionHandling.2B4136FF.obj'
02:000AA430 $hResult$core_class$0$domain$$type_library$ 
--- From 'obj\core.5D9B9483.obj'
02:000AA440 $byteCountOptional$core_class$0$domain$$type_library$ 
--- From 'obj\segmentedSupport.2BAFE67D.obj'
02:000AA450 $byteCount$core_class$0$domain$$type_library$ 
--- From 'obj\core.5D9B9483.obj'
02:000AA460 $charCountOptional$core_class$0$domain$$type_library$ 
--- From 'obj\time.6AFD2988.obj'
02:000AA470 $charCount$core_class$0$domain$$type_library$ 
--- From 'obj\main.789E136F.obj'
02:000AA480 $positiveOptional$core_class$0$domain$$type_library$ 
--- From 'obj\list.A75CEA31.obj'
02:000AA490 $positive$core_class$0$domain$$type_library$ 
--- From 'obj\core.5D9B9483.obj'
02:000AA4A0 $function$core_class$1$domain$$type_library$ 
02:000AA4B0 $function$core_class$2$domain$$type_library$ 
02:000AA4C0 $function$core_class$3$domain$$type_library$ 
02:000AA4D0 $function$core_class$4$domain$$type_library$ 
02:000AA4E0 $function$core_class$5$domain$$type_library$ 
02:000AA4F0 $function$core_class$6$domain$$type_library$ 
02:000AA500 $function$core_class$7$domain$$type_library$ 
02:000AA510 $function$core_class$8$domain$$type_library$ 
02:000AA520 $function$core_class$9$domain$$type_library$ 
02:000AA530 $function$core_class$10$domain$$type_library$ 
02:000AA540 $function$core_class$11$domain$$type_library$ 
02:000AA550 $function_dt$core_class$1$domain$$type_library$ 
02:000AA560 $function_dt$core_class$2$domain$$type_library$ 
02:000AA570 $function_dt$core_class$3$domain$$type_library$ 
02:000AA580 $function_dt$core_class$4$domain$$type_library$ 
02:000AA590 $function_dt$core_class$5$domain$$type_library$ 
02:000AA5A0 $function_dt$core_class$6$domain$$type_library$ 
02:000AA5B0 $function_dt$core_class$7$domain$$type_library$ 
02:000AA5C0 $function_dt$core_class$8$domain$$type_library$ 
02:000AA5D0 $function_dt$core_class$9$domain$$type_library$ 
02:000AA5E0 $function_dt$core_class$10$domain$$type_library$ 
02:000AA5F0 $function_dt$core_class$11$domain$$type_library$ 
02:000AA600 $function_nd$core_class$1$domain$$type_library$ 
02:000AA610 $function_nd$core_class$2$domain$$type_library$ 
02:000AA620 $function_nd$core_class$3$domain$$type_library$ 
02:000AA630 $function_nd$core_class$4$domain$$type_library$ 
02:000AA640 $function_nd$core_class$5$domain$$type_library$ 
02:000AA650 $function_nd$core_class$6$domain$$type_library$ 
02:000AA660 $function_nd$core_class$7$domain$$type_library$ 
02:000AA670 $function_nd$core_class$8$domain$$type_library$ 
02:000AA680 $function_nd$core_class$9$domain$$type_library$ 
02:000AA690 $function_nd$core_class$10$domain$$type_library$ 
02:000AA6A0 $function_nd$core_class$11$domain$$type_library$ 
--- From 'obj\iterator.60C55021.obj'
02:000AA6B0 $predicate$core_class$0$domain$$type_library$ 
--- From 'obj\core.5D9B9483.obj'
02:000AA6C0 $predicate$core_class$1$domain$$type_library$ 
02:000AA6D0 $predicate$core_class$2$domain$$type_library$ 
02:000AA6E0 $predicate$core_class$3$domain$$type_library$ 
02:000AA6F0 $predicate$core_class$4$domain$$type_library$ 
02:000AA700 $predicate$core_class$5$domain$$type_library$ 
02:000AA710 $predicate$core_class$6$domain$$type_library$ 
02:000AA720 $predicate$core_class$7$domain$$type_library$ 
02:000AA730 $predicate$core_class$8$domain$$type_library$ 
02:000AA740 $predicate$core_class$9$domain$$type_library$ 
02:000AA750 $predicate$core_class$10$domain$$type_library$ 
02:000AA760 $predicate_dt$core_class$0$domain$$type_library$ 
02:000AA770 $predicate_dt$core_class$1$domain$$type_library$ 
02:000AA780 $predicate_dt$core_class$2$domain$$type_library$ 
02:000AA790 $predicate_dt$core_class$3$domain$$type_library$ 
02:000AA7A0 $predicate_dt$core_class$4$domain$$type_library$ 
02:000AA7B0 $predicate_dt$core_class$5$domain$$type_library$ 
02:000AA7C0 $predicate_dt$core_class$6$domain$$type_library$ 
02:000AA7D0 $predicate_dt$core_class$7$domain$$type_library$ 
02:000AA7E0 $predicate_dt$core_class$8$domain$$type_library$ 
02:000AA7F0 $predicate_dt$core_class$9$domain$$type_library$ 
02:000AA800 $predicate_dt$core_class$10$domain$$type_library$ 
02:000AA810 $predicate_nd$core_class$0$domain$$type_library$ 
02:000AA820 $predicate_nd$core_class$1$domain$$type_library$ 
02:000AA830 $predicate_nd$core_class$2$domain$$type_library$ 
02:000AA840 $predicate_nd$core_class$3$domain$$type_library$ 
02:000AA850 $predicate_nd$core_class$4$domain$$type_library$ 
02:000AA860 $predicate_nd$core_class$5$domain$$type_library$ 
02:000AA870 $predicate_nd$core_class$6$domain$$type_library$ 
02:000AA880 $predicate_nd$core_class$7$domain$$type_library$ 
02:000AA890 $predicate_nd$core_class$8$domain$$type_library$ 
02:000AA8A0 $predicate_nd$core_class$9$domain$$type_library$ 
02:000AA8B0 $predicate_nd$core_class$10$domain$$type_library$ 
02:000AA8C0 $runnable$core_class$0$domain$$type_library$ 
02:000AA8D0 $comparator$core_class$1$domain$$type_library$ 
02:000AA8E0 $comparator$core_class$2$domain$$type_library$ 
02:000AA8F0 $sortOrder$core_class$0$domain$$type_library$ 
--- From 'obj\exceptionDump.2B9C9E40.obj'
02:000AA900 $sourceCursor$core_class$0$domain$$type_library$ 
--- From 'obj\core.5D9B9483.obj'
02:000AA910 $packedCursor$core_class$0$domain$$type_library$ 
--- From 'obj\exceptionDump.2B9C9E40.obj'
02:000AA920 $programPoint$core_class$0$domain$$type_library$ 
--- From 'obj\core.5D9B9483.obj'
02:000AA930 $hScopeDescriptor$core_class$0$domain$$type_library$ 
02:000AA940 $allowBoolean$core_class$0$domain$$type_library$ 
02:000AA950 $defaultActionBoolean$core_class$0$domain$$type_library$ 
02:000AA960 $timeout$core_class$0$domain$$type_library$ 
--- From 'obj\exception.B6F320E8.obj'
02:000AA970 $arguments$core_class$0$domain$$type_library$ 
--- From 'obj\event.D92D3A63.obj'
02:000AA980 $event7@objectDB$event7{@Type1,@Type2,@Type3,@Type4,@Type5,@Type6,@Type7}_implement$0$domain$$type_library$ 
02:000AA990 $event7$typeLibDB$event7{@Type1,@Type2,@Type3,@Type4,@Type5,@Type6,@Type7}_implement$0$domain$$type_library$ 
02:000AA9A0 $_poly_0_08A566BE1F__predicate_m_iiiiiii_prolog_procedure$event7{@Type1,@Type2,@Type3,@Type4,@Type5,@Type6,@Type7}_implement$0$domain$$type_library$ 
02:000AA9B0 $event6@objectDB$event6{@Type1,@Type2,@Type3,@Type4,@Type5,@Type6}_implement$0$domain$$type_library$ 
02:000AA9C0 $event6$typeLibDB$event6{@Type1,@Type2,@Type3,@Type4,@Type5,@Type6}_implement$0$domain$$type_library$ 
02:000AA9D0 $_poly_0_08158A74BB__predicate_m_iiiiii_prolog_procedure$event6{@Type1,@Type2,@Type3,@Type4,@Type5,@Type6}_implement$0$domain$$type_library$ 
02:000AA9E0 $event5@objectDB$event5{@Type1,@Type2,@Type3,@Type4,@Type5}_implement$0$domain$$type_library$ 
02:000AA9F0 $event5$typeLibDB$event5{@Type1,@Type2,@Type3,@Type4,@Type5}_implement$0$domain$$type_library$ 
02:000AAA00 $_poly_0_08EAB40A09__predicate_m_iiiii_prolog_procedure$event5{@Type1,@Type2,@Type3,@Type4,@Type5}_implement$0$domain$$type_library$ 
02:000AAA10 $event4@objectDB$event4{@Type1,@Type2,@Type3,@Type4}_implement$0$domain$$type_library$ 
02:000AAA20 $event4$typeLibDB$event4{@Type1,@Type2,@Type3,@Type4}_implement$0$domain$$type_library$ 
02:000AAA30 $_poly_0_0887BF1DB6__predicate_m_iiii_prolog_procedure$event4{@Type1,@Type2,@Type3,@Type4}_implement$0$domain$$type_library$ 
02:000AAA40 $event3@objectDB$event3{@Type1,@Type2,@Type3}_implement$0$domain$$type_library$ 
02:000AAA50 $event3$typeLibDB$event3{@Type1,@Type2,@Type3}_implement$0$domain$$type_library$ 
02:000AAA60 $_poly_0_088FA6DCB9__predicate_m_iii_prolog_procedure$event3{@Type1,@Type2,@Type3}_implement$0$domain$$type_library$ 
02:000AAA70 $event2@objectDB$event2{@Type1,@Type2}_implement$0$domain$$type_library$ 
02:000AAA80 $event2$typeLibDB$event2{@Type1,@Type2}_implement$0$domain$$type_library$ 
02:000AAA90 $_poly_0_0853F7F9EC__predicate_m_ii_prolog_procedure$event2{@Type1,@Type2}_implement$0$domain$$type_library$ 
02:000AAAA0 $event1@objectDB$event1{@Type1}_implement$0$domain$$type_library$ 
02:000AAAB0 $event1$typeLibDB$event1{@Type1}_implement$0$domain$$type_library$ 
02:000AAAC0 $_poly_0_082DF84580__predicate_m_i_prolog_procedure$event1{@Type1}_implement$0$domain$$type_library$ 
02:000AAAD0 $event0@objectDB$event0_implement$0$domain$$type_library$ 
02:000AAAE0 $addlistener_once/1np$1$event0_implement$0$domain$$type_library$ 
02:000AAAF0 $addlistener/2np0$1$event0_implement$0$domain$$type_library$ 
--- From 'obj\presenter.E6E77556.obj'
02:000AAB00 $predicate$core_class$1$domain$$type_library$1${class$exception::traceId$}$static$ 
02:000AAB10 $tuple$core_class$2$domain$$type_library$2${class$_builtIn::unsigned$class$_builtIn::string$}$static$ 
02:000AAB20 $presenter$presenter_class$1$domain$$type_library$ 
02:000AAB30 $presenter$presenter_class$0$domain$$type_library$ 
--- From 'obj\outputStreamSupport.6F229CFB.obj'
02:000AAB40 $presentation$presenter_class$0$domain$$type_library$ 
--- From 'obj\presenter.E6E77556.obj'
02:000AAB50 $subPresenter$presenter_class$0$domain$$type_library$ 
02:000AAB60 $sequencePresenter$presenter_class$0$domain$$type_library$ 
--- From 'obj\outputStreamSupport.6F229CFB.obj'
02:000AAB70 $fieldPresentation$presenter_class$0$domain$$type_library$ 
--- From 'obj\presenter.E6E77556.obj'
02:000AAB80 $fieldPresenter$presenter_class$0$domain$$type_library$ 
02:000AAB90 $functorDescr$presenter_class$0$domain$$type_library$ 
02:000AABA0 $presentDebugResult$presenter_class$0$domain$$type_library$ 
02:000AABB0 $excludedDomainChecker$presenter_class$0$domain$$type_library$ 
02:000AABC0 $presenter@classDB$presenter_implement$0$domain$$type_library$ 
02:000AABD0 $presenter_flagset/2nf$1$presenter_implement$0$domain$$type_library$ 
02:000AABE0 $presenter_flagset/2nf$2$presenter_implement$0$domain$$type_library$ 
--- From 'obj\exceptionDump.2B9C9E40.obj'
02:000AABF0 $*$_builtIn_class$1$domain$$type_library$1${typelib(class$core::namedValue{class$core::value$})$}$static$ 
02:000AAC00 $*$_builtIn_class$1$domain$$type_library$1${class$exception::lineInfo$}$static$ 
--- From 'obj\exception.B6F320E8.obj'
02:000AAC10 $tuple$core_class$2$domain$$type_library$2${class$_builtIn::string$class$_builtIn::any$}$static$ 
02:000AAC20 $outputStream_binary$_global_class$0$domain$$type_library$ 
02:000AAC30 $criticalSection$_global_class$0$domain$$type_library$ 
02:000AAC40 $event$_global_class$0$domain$$type_library$ 
02:000AAC50 $mutex$_global_class$0$domain$$type_library$ 
02:000AAC60 $semaphore$_global_class$0$domain$$type_library$ 
02:000AAC70 $syncObject$_global_class$0$domain$$type_library$ 
02:000AAC80 $thread$_global_class$0$domain$$type_library$ 
02:000AAC90 $waitableTimer$_global_class$0$domain$$type_library$ 
02:000AACA0 $kind$exception_class$0$domain$$type_library$ 
02:000AACB0 $programPointDescriptor$exception_class$0$domain$$type_library$ 
--- From 'obj\exceptionDump.2B9C9E40.obj'
02:000AACC0 $descriptor$exception_class$0$domain$$type_library$ 
02:000AACD0 $traceInfo$exception_class$0$domain$$type_library$ 
02:000AACE0 $lineInfo$exception_class$0$domain$$type_library$ 
--- From 'obj\exception.B6F320E8.obj'
02:000AACF0 $raiser$exception_class$0$domain$$type_library$ 
02:000AAD00 $exception@classDB$exception_implement$0$domain$$type_library$ 
02:000AAD10 $getstacktrace_sync/2nf$1$exception_implement$0$domain$$type_library$ 
02:000AAD20 $errorDescriptorInformation@objectDB$errorDescriptorInformation_implement$0$domain$$type_library$ 
--- From 'obj\programControl.2B27F1CB.obj'
02:000AAD30 $exceptionRaiser$programControl_class$0$domain$$type_library$ 
02:000AAD40 $deObject$programControl_implement$0$domain$$type_library$ 
--- From 'obj\reflection.ACE59E5C.obj'
02:000AAD50 $*$_builtIn_class$1$domain$$type_library$1${typelib(class$core::tuple{class$_builtIn::string$interface$pfc\reflection\typeLibrary$})$}$static$ 
02:000AAD60 $tuple$core_class$2$domain$$type_library$2${class$_builtIn::string$class$_global::pfc\reflection\typeLibrary$}$static$ 
02:000AAD70 $*$_builtIn_class$1$domain$$type_library$1${class$_global::pfc\reflection\scopeDescriptor$}$static$ 
02:000AAD80 $varM{@Term}$_global_class$1$domain$$type_library$1${class$_builtIn::pointer$}$static$ 
02:000AAD90 $*$_builtIn_class$1$domain$$type_library$1${class$pfc\reflection\reflection_native::objectStructure$}$static$ 
02:000AADA0 $argumentLibraryDescriptor$pfc\reflection\reflection_class$2$domain$$type_library$2${class$_global::pfc\reflection\typeLibrary$class$_global::pfc\reflection\typeDescriptor$}$static$ 
02:000AADB0 $anyTermValue$pfc\reflection\reflection_native_class$0$domain$$type_library$ 
02:000AADC0 $factDbValue$pfc\reflection\reflection_native_class$0$domain$$type_library$ 
02:000AADD0 $prologPredicateValue$pfc\reflection\reflection_native_class$0$domain$$type_library$ 
02:000AADE0 $presenterDescriptor$pfc\reflection\reflection_native_class$0$domain$$type_library$ 
02:000AADF0 $predicateOrFunctionCallDescriptor$pfc\reflection\reflection_native_class$0$domain$$type_library$ 
02:000AAE00 $returnKind$pfc\reflection\reflection_native_class$0$domain$$type_library$ 
02:000AAE10 $viewDescriptor$pfc\reflection\reflection_native_class$0$domain$$type_library$ 
02:000AAE20 $viewDescriptorTableHeader$pfc\reflection\reflection_native_class$0$domain$$type_library$ 
02:000AAE30 $objectStructure$pfc\reflection\reflection_native_class$0$domain$$type_library$ 
02:000AAE40 $typeKind$pfc\reflection\reflection_class$0$domain$$type_library$ 
--- From 'obj\main.789E136F.obj'
02:000AAE50 $predicateMode$pfc\reflection\reflection_class$0$domain$$type_library$ 
--- From 'obj\reflection.ACE59E5C.obj'
02:000AAE60 $functor$pfc\reflection\reflection_class$0$domain$$type_library$ 
--- From 'obj\main.789E136F.obj'
02:000AAE70 $callingConvention$pfc\reflection\reflection_class$0$domain$$type_library$ 
02:000AAE80 $argumentFlow$pfc\reflection\reflection_class$0$domain$$type_library$ 
--- From 'obj\stream.8B55AAA7.obj'
02:000AAE90 $stdioState@objectDB$stdioState_implement$0$domain$$type_library$ 
02:000AAEA0 $stdio@classDB$stdio_implement$0$domain$$type_library$ 
02:000AAEB0 $outputStream_null@classDB$outputStream_null_implement$0$domain$$type_library$ 
02:000AAEC0 $inputStream_null@classDB$inputStream_null_implement$0$domain$$type_library$ 
--- From 'obj\segmented.E9C86B20.obj'
02:000AAED0 $segmented$segmented_class$1$domain$$type_library$1${class$_builtIn::_someType$}$static$ 
--- From 'obj\string.19AABD3B.obj'
02:000AAEE0 $segmented_utf16$segmented_class$0$domain$$type_library$ 
--- From 'obj\inputStreamSupport.7AF62102.obj'
02:000AAEF0 $inputSupport@objectDB$inputSupport_implement$0$domain$$type_library$ 
--- From 'obj\console_api.1787DB80.obj'
02:000AAF00 $coord$console_native_class$0$domain$$type_library$ 
02:000AAF10 $consoleScreenBufferInfo$console_native_class$0$domain$$type_library$ 
02:000AAF20 $char_info$console_native_class$0$domain$$type_library$ 
02:000AAF30 $small_rect$console_native_class$0$domain$$type_library$ 
02:000AAF40 $key_event_record$console_native_class$0$domain$$type_library$ 
02:000AAF50 $mouse_event_record$console_native_class$0$domain$$type_library$ 
02:000AAF60 $handlerRoutine$console_native_class$0$domain$$type_library$ 
--- From 'obj\exe_api.026B8342.obj'
02:000AAF70 $runMode$exe_api_class$0$domain$$type_library$ 
02:000AAF80 $coInit$exe_api_class$0$domain$$type_library$ 
02:000AAF90 $exe_api@classDB$exe_api_implement$0$domain$$type_library$ 
--- From 'obj\fileSystem_api.C5B8AF1A.obj'
02:000AAFA0 $ofStruct$lZ_fileSystem_native_class$0$domain$$type_library$ 
02:000AAFB0 $fileInfo$fileSystem_native_class$0$domain$$type_library$ 
--- From 'obj\fileSystem.5B0F823E.obj'
02:000AAFC0 $fileAttributesInfo$fileSystem_native_class$0$domain$$type_library$ 
02:000AAFD0 $win32_find_data$fileSystem_native_class$0$domain$$type_library$ 
--- From 'obj\fileSystem_api.C5B8AF1A.obj'
02:000AAFE0 $file_info_by_handle_class$fileSystem_native_class$0$domain$$type_library$ 
02:000AAFF0 $fileIOCompletionRoutine$fileSystem_native_class$0$domain$$type_library$ 
02:000AB000 $fileAction$fileSystem_native_class$0$domain$$type_library$ 
02:000AB010 $file_notify_information$fileSystem_native_class$0$domain$$type_library$ 
02:000AB020 $overlapped$fileSystem_native_class$0$domain$$type_library$ 
02:000AB030 $openFilename$fileSystem_native_class$0$domain$$type_library$ 
02:000AB040 $oFNHookProc$fileSystem_native_class$0$domain$$type_library$ 
02:000AB050 $use_info_0$fileSystem_native_class$0$domain$$type_library$ 
02:000AB060 $fileAttributeAtom$fileSystem_api_class$0$domain$$type_library$ 
02:000AB070 $accessPermit$fileSystem_api_class$0$domain$$type_library$ 
02:000AB080 $memAppend_CallBack$fileSystem_api_implement$0$domain$$type_library$ 
02:000AB090 $bufferOperation$fileSystem_api_implement$0$domain$$type_library$ 
02:000AB0A0 $getshortpathname/1nf$1$fileSystem_api_implement$0$domain$$type_library$ 
02:000AB0B0 $getlongpathname/1nf$1$fileSystem_api_implement$0$domain$$type_library$ 
--- From 'obj\memory.568C55F8.obj'
02:000AB0C0 $byte$memory_class$0$domain$$type_library$ 
02:000AB0D0 $word$memory_class$0$domain$$type_library$ 
02:000AB0E0 $dword$memory_class$0$domain$$type_library$ 
02:000AB0F0 $qword$memory_class$0$domain$$type_library$ 
02:000AB100 $contextMap$memory_class$0$domain$$type_library$ 
02:000AB110 $memoryKind$memory_class$0$domain$$type_library$ 
02:000AB120 $pBinary$memory_class$0$domain$$type_library$ 
02:000AB130 $pBinaryNonAtomic$memory_class$0$domain$$type_library$ 
02:000AB140 $pByteCount$memory_class$0$domain$$type_library$ 
02:000AB150 $pChar$memory_class$0$domain$$type_library$ 
02:000AB160 $pChar8$memory_class$0$domain$$type_library$ 
02:000AB170 $pCharCount$memory_class$0$domain$$type_library$ 
02:000AB180 $pHandle$memory_class$0$domain$$type_library$ 
02:000AB190 $pInteger$memory_class$0$domain$$type_library$ 
02:000AB1A0 $pInteger16$memory_class$0$domain$$type_library$ 
02:000AB1B0 $pInteger64$memory_class$0$domain$$type_library$ 
02:000AB1C0 $pInteger8$memory_class$0$domain$$type_library$ 
02:000AB1D0 $pIntegerNative$memory_class$0$domain$$type_library$ 
02:000AB1E0 $pObject$memory_class$0$domain$$type_library$ 
--- From 'obj\uncollectable.CD38F31A.obj'
02:000AB1F0 $pPointer$memory_class$0$domain$$type_library$ 
--- From 'obj\memory.568C55F8.obj'
02:000AB200 $pReal$memory_class$0$domain$$type_library$ 
02:000AB210 $pReal32$memory_class$0$domain$$type_library$ 
02:000AB220 $pString$memory_class$0$domain$$type_library$ 
02:000AB230 $pString8$memory_class$0$domain$$type_library$ 
--- From 'obj\gui_api.9FE53D0D.obj'
02:000AB240 $pUnsigned$memory_class$0$domain$$type_library$ 
--- From 'obj\memory.568C55F8.obj'
02:000AB250 $pUnsigned16$memory_class$0$domain$$type_library$ 
02:000AB260 $pUnsigned64$memory_class$0$domain$$type_library$ 
02:000AB270 $pUnsigned8$memory_class$0$domain$$type_library$ 
--- From 'obj\weakReference.0A1AF11C.obj'
02:000AB280 $pUnsignedNative$memory_class$0$domain$$type_library$ 
--- From 'obj\memory.568C55F8.obj'
02:000AB290 $pByte$memory_class$0$domain$$type_library$ 
02:000AB2A0 $unsigned4$bit_class$0$domain$$type_library$ 
02:000AB2B0 $swbo64$bit_implement$0$domain$$type_library$ 
--- From 'obj\multiThread_api.57E3A62D.obj'
02:000AB2C0 $timerAPCProc$multiThread_native_class$0$domain$$type_library$ 
02:000AB2D0 $startupInfo$multiThread_native_class$0$domain$$type_library$ 
02:000AB2E0 $processInformation$multiThread_native_class$0$domain$$type_library$ 
02:000AB2F0 $threadRunnable$multiThread_native_class$0$domain$$type_library$ 
02:000AB300 $critical_section$multiThread_native_class$0$domain$$type_library$ 
02:000AB310 $cache_descriptor$multiThread_native_class$0$domain$$type_library$ 
02:000AB320 $system_logical_processor_information$multiThread_native_class$0$domain$$type_library$ 
02:000AB330 $apcProc$multiThread_native_class$0$domain$$type_library$ 
--- From 'obj\srwLock.8CC714FD.obj'
02:000AB340 $srwLock$multiThread_native_class$0$domain$$type_library$ 
--- From 'obj\multiThread_api.57E3A62D.obj'
02:000AB350 $native$multiThread_api_implement$0$domain$$type_library$ 
--- From 'obj\time_api.32F5932A.obj'
02:000AB360 $mapM{@Key,@Data}$_global_class$2$domain$$type_library$2${typelib(class$core::tuple{class$core::unsigned16$class$time_native::timeZoneAPI$})$typelib(class$time_native::time_zone_information)$}$static$ 
02:000AB370 $tuple$core_class$2$domain$$type_library$2${class$core::unsigned16$class$time_native::timeZoneAPI$}$static$ 
--- From 'obj\com_api.B45865D0.obj'
02:000AB380 $systemTime$time_native_class$0$domain$$type_library$ 
--- From 'obj\time.6AFD2988.obj'
02:000AB390 $timeZoneAPI$time_native_class$0$domain$$type_library$ 
--- From 'obj\time_api.32F5932A.obj'
02:000AB3A0 $time_zone_information$time_native_class$0$domain$$type_library$ 
--- From 'obj\comDomains.234349D9.obj'
02:000AB3B0 $fileTime$time_native_class$0$domain$$type_library$ 
--- From 'obj\time_api.32F5932A.obj'
02:000AB3C0 $reg_tzi_format$time_native_class$0$domain$$type_library$ 
02:000AB3D0 $lastInputInfo$time_native_class$0$domain$$type_library$ 
02:000AB3E0 $time_api@classDB$time_api_implement$0$domain$$type_library$ 
02:000AB3F0 $gettimezoneinformationforyear/2nf$1$time_api_implement$0$domain$$type_library$ 
--- From 'obj\locale_api.2E000328.obj'
02:000AB400 $stdBoolFunc$locale_native_class$1$domain$$type_library$ 
02:000AB410 $stdBoolFunc$locale_native_class$2$domain$$type_library$ 
02:000AB420 $stdBoolFunc$locale_native_class$4$domain$$type_library$ 
02:000AB430 $stdBoolFunc$locale_native_class$5$domain$$type_library$ 
02:000AB440 $numberfmt$locale_native_class$0$domain$$type_library$ 
--- From 'obj\gui_api.9FE53D0D.obj'
02:000AB450 $tuple$core_class$2$domain$$type_library$2${class$_builtIn::integer$class$_builtIn::integer$}$static$ 
02:000AB460 $*$_builtIn_class$1$domain$$type_library$1${class$vpiDomains::pnt$}$static$ 
02:000AB470 $tuple$core_class$4$domain$$type_library$4${class$_builtIn::integer$class$_builtIn::integer$class$_builtIn::integer$class$_builtIn::integer$}$static$ 
02:000AB490 $*$_builtIn_class$1$domain$$type_library$1${typelib(class$vpiDomains::pnt*)$}$static$ 
--- From 'obj\vpiDomains.E7102A6D.obj'
02:000AB4A0 $logfont$gui_native_class$0$domain$$type_library$ 
--- From 'obj\gui_api.9FE53D0D.obj'
02:000AB4B0 $mouseMovePoint$gui_native_class$0$domain$$type_library$ 
02:000AB4C0 $enumDesktopProc$gui_native_class$0$domain$$type_library$ 
02:000AB4D0 $enumWindowStationProc$gui_native_class$0$domain$$type_library$ 
02:000AB4E0 $copyDataStruct$gui_native_class$0$domain$$type_library$ 
02:000AB4F0 $trackMouseEvent$gui_native_class$0$domain$$type_library$ 
02:000AB500 $msg$gui_native_class$0$domain$$type_library$ 
02:000AB510 $sendAsyncProc$gui_native_class$0$domain$$type_library$ 
02:000AB520 $wndProc$gui_native_class$0$domain$$type_library$ 
02:000AB530 $wndClassEx$gui_native_class$0$domain$$type_library$ 
02:000AB540 $createstruct$gui_native_class$0$domain$$type_library$ 
02:000AB550 $flashInfo$gui_native_class$0$domain$$type_library$ 
02:000AB560 $windowPos$gui_native_class$0$domain$$type_library$ 
02:000AB570 $windowPlacement$gui_native_class$0$domain$$type_library$ 
02:000AB580 $windowInfo$gui_native_class$0$domain$$type_library$ 
02:000AB590 $monitorInfo$gui_native_class$0$domain$$type_library$ 
02:000AB5A0 $monitorInfoEx$gui_native_class$0$domain$$type_library$ 
02:000AB5B0 $monitorEnumProc$gui_native_class$0$domain$$type_library$ 
02:000AB5C0 $dlgTemplate$gui_native_class$0$domain$$type_library$ 
02:000AB5D0 $dlgItemTemplate$gui_native_class$0$domain$$type_library$ 
02:000AB5E0 $dlgTemplateEx$gui_native_class$0$domain$$type_library$ 
02:000AB5F0 $timerProc$gui_native_class$0$domain$$type_library$ 
02:000AB600 $accel$gui_native_class$0$domain$$type_library$ 
02:000AB610 $menuItemInfo$gui_native_class$0$domain$$type_library$ 
02:000AB620 $drawTextParams$gui_native_class$0$domain$$type_library$ 
02:000AB630 $grayStringProc$gui_native_class$0$domain$$type_library$ 
02:000AB640 $drawStateProc$gui_native_class$0$domain$$type_library$ 
02:000AB650 $size$gui_native_class$0$domain$$type_library$ 
02:000AB660 $textmetric$gui_native_class$0$domain$$type_library$ 
02:000AB670 $paintStruct$gui_native_class$0$domain$$type_library$ 
02:000AB680 $scrollBar$gui_native_class$0$domain$$type_library$ 
02:000AB690 $propEnumProc$gui_native_class$0$domain$$type_library$ 
02:000AB6A0 $helpInfo$gui_native_class$0$domain$$type_library$ 
02:000AB6B0 $wndEnumProc$gui_native_class$0$domain$$type_library$ 
02:000AB6C0 $gaFlags$gui_native_class$0$domain$$type_library$ 
02:000AB6D0 $hookProc$gui_native_class$0$domain$$type_library$ 
02:000AB6E0 $kbdllhookstruct$gui_native_class$0$domain$$type_library$ 
02:000AB6F0 $iconInfo$gui_native_class$0$domain$$type_library$ 
02:000AB700 $buttonImageList$gui_native_class$0$domain$$type_library$ 
02:000AB710 $button_imageList_align$gui_native_class$0$domain$$type_library$ 
02:000AB720 $nmBcHotItem$gui_native_class$0$domain$$type_library$ 
02:000AB730 $button_splitInfo$gui_native_class$0$domain$$type_library$ 
02:000AB740 $nmBcDropdown$gui_native_class$0$domain$$type_library$ 
02:000AB750 $nmhdr$gui_native_class$0$domain$$type_library$ 
02:000AB760 $nmCustomDraw$gui_native_class$0$domain$$type_library$ 
02:000AB770 $scrollInfo$gui_native_class$0$domain$$type_library$ 
02:000AB780 $scrollBarInfo$gui_native_class$0$domain$$type_library$ 
02:000AB790 $logbrush$gui_native_class$0$domain$$type_library$ 
02:000AB7A0 $tcItem$gui_native_class$0$domain$$type_library$ 
02:000AB7B0 $tagInitCommonControlsEx$gui_native_class$0$domain$$type_library$ 
02:000AB7C0 $logPalette$gui_native_class$0$domain$$type_library$ 
02:000AB7D0 $enumResTypeProc$gui_native_class$0$domain$$type_library$ 
02:000AB7E0 $enumResNameProc$gui_native_class$0$domain$$type_library$ 
02:000AB7F0 $enumResLangProc$gui_native_class$0$domain$$type_library$ 
02:000AB800 $mouseInput$gui_native_class$0$domain$$type_library$ 
02:000AB810 $keybdInput$gui_native_class$0$domain$$type_library$ 
02:000AB820 $hardwareInput$gui_native_class$0$domain$$type_library$ 
02:000AB830 $inputUnion$gui_native_class$0$domain$$type_library$ 
02:000AB840 $inputUnion_mi$gui_native_class$0$domain$$type_library$ 
02:000AB850 $inputUnion_ki$gui_native_class$0$domain$$type_library$ 
02:000AB860 $inputUnion_hi$gui_native_class$0$domain$$type_library$ 
02:000AB870 $input$gui_native_class$0$domain$$type_library$ 
02:000AB880 $toolinfo$gui_native_class$0$domain$$type_library$ 
02:000AB890 $nmttdispInfo$gui_native_class$0$domain$$type_library$ 
02:000AB8A0 $blendFunction$gui_native_class$0$domain$$type_library$ 
02:000AB8B0 $chooseFont$gui_native_class$0$domain$$type_library$ 
02:000AB8C0 $printdlg$gui_native_class$0$domain$$type_library$ 
02:000AB8D0 $printdlgEx$gui_native_class$0$domain$$type_library$ 
02:000AB8E0 $initCommonControlsEx$gui_native_class$0$domain$$type_library$ 
02:000AB8F0 $colorScheme$gui_native_class$0$domain$$type_library$ 
02:000AB900 $nmTooltipsCreated$gui_native_class$0$domain$$type_library$ 
02:000AB910 $nmMouse$gui_native_class$0$domain$$type_library$ 
02:000AB920 $nmObjectNotify$gui_native_class$0$domain$$type_library$ 
02:000AB930 $nmKey$gui_native_class$0$domain$$type_library$ 
02:000AB940 $nmchar$gui_native_class$0$domain$$type_library$ 
02:000AB950 $nmCustomText$gui_native_class$0$domain$$type_library$ 
02:000AB960 $nmttCustomDraw$gui_native_class$0$domain$$type_library$ 
02:000AB970 $nmCustomSplitRectInfo$gui_native_class$0$domain$$type_library$ 
02:000AB980 $imageListDrawParams$gui_native_class$0$domain$$type_library$ 
02:000AB990 $imageInfo$gui_native_class$0$domain$$type_library$ 
02:000AB9A0 $hd_textFilter$gui_native_class$0$domain$$type_library$ 
02:000AB9B0 $hdItem$gui_native_class$0$domain$$type_library$ 
02:000AB9C0 $hdLayout$gui_native_class$0$domain$$type_library$ 
02:000AB9D0 $hdHitTestInfo$gui_native_class$0$domain$$type_library$ 
02:000AB9E0 $nmHeader$gui_native_class$0$domain$$type_library$ 
02:000AB9F0 $nmhdDispInfo$gui_native_class$0$domain$$type_library$ 
02:000ABA00 $nmhdFilterBtnClick$gui_native_class$0$domain$$type_library$ 
02:000ABA10 $tbButton$gui_native_class$0$domain$$type_library$ 
02:000ABA20 $colormap$gui_native_class$0$domain$$type_library$ 
02:000ABA30 $nmtbCustomDraw$gui_native_class$0$domain$$type_library$ 
02:000ABA40 $tbAddBitmap$gui_native_class$0$domain$$type_library$ 
02:000ABA50 $tbSaveParams$gui_native_class$0$domain$$type_library$ 
02:000ABA60 $tbInsertMark$gui_native_class$0$domain$$type_library$ 
02:000ABA70 $tbReplaceBitmap$gui_native_class$0$domain$$type_library$ 
02:000ABA80 $tbButtonInfo$gui_native_class$0$domain$$type_library$ 
02:000ABA90 $tbMetrics$gui_native_class$0$domain$$type_library$ 
02:000ABAA0 $nmtbHotItem$gui_native_class$0$domain$$type_library$ 
02:000ABAB0 $nmtbSave$gui_native_class$0$domain$$type_library$ 
02:000ABAC0 $nmtbRestore$gui_native_class$0$domain$$type_library$ 
02:000ABAD0 $nmtbGetInfoTip$gui_native_class$0$domain$$type_library$ 
02:000ABAE0 $nmtbDispInfo$gui_native_class$0$domain$$type_library$ 
02:000ABAF0 $nmToolbar$gui_native_class$0$domain$$type_library$ 
02:000ABB00 $rebarInfo$gui_native_class$0$domain$$type_library$ 
02:000ABB10 $rebarBandInfo$gui_native_class$0$domain$$type_library$ 
02:000ABB20 $nmRebarChildSize$gui_native_class$0$domain$$type_library$ 
02:000ABB30 $nmRebar$gui_native_class$0$domain$$type_library$ 
02:000ABB40 $nmrbAutoSize$gui_native_class$0$domain$$type_library$ 
02:000ABB50 $nmRebarChevron$gui_native_class$0$domain$$type_library$ 
02:000ABB60 $nmRebarSplitter$gui_native_class$0$domain$$type_library$ 
02:000ABB70 $nmRebarAutoBreak$gui_native_class$0$domain$$type_library$ 
02:000ABB80 $rbHitTestInfo$gui_native_class$0$domain$$type_library$ 
02:000ABB90 $ttToolInfo$gui_native_class$0$domain$$type_library$ 
02:000ABBA0 $ttGetTitle$gui_native_class$0$domain$$type_library$ 
02:000ABBB0 $ttHitTestInfo$gui_native_class$0$domain$$type_library$ 
02:000ABBC0 $nmtrbThumbPosChanging$gui_native_class$0$domain$$type_library$ 
02:000ABBD0 $dragListInfo$gui_native_class$0$domain$$type_library$ 
02:000ABBE0 $udAccel$gui_native_class$0$domain$$type_library$ 
02:000ABBF0 $nmUpDown$gui_native_class$0$domain$$type_library$ 
02:000ABC00 $pbRange$gui_native_class$0$domain$$type_library$ 
02:000ABC10 $lItem$gui_native_class$0$domain$$type_library$ 
02:000ABC20 $lHitTestInfo$gui_native_class$0$domain$$type_library$ 
02:000ABC30 $nmLink$gui_native_class$0$domain$$type_library$ 
02:000ABC40 $lvItem$gui_native_class$0$domain$$type_library$ 
02:000ABC50 $lvfindInfo$gui_native_class$0$domain$$type_library$ 
02:000ABC60 $lvHitTestInfo$gui_native_class$0$domain$$type_library$ 
02:000ABC70 $lvcolumn$gui_native_class$0$domain$$type_library$ 
02:000ABC80 $pfnlvcompare$gui_native_class$0$domain$$type_library$ 
02:000ABC90 $lvbkImage$gui_native_class$0$domain$$type_library$ 
